ARM GAS  /tmp/ccfbcrWA.s 			page 1


   1              		.cpu cortex-m4
   2              		.eabi_attribute 27, 1
   3              		.eabi_attribute 28, 1
   4              		.eabi_attribute 20, 1
   5              		.eabi_attribute 21, 1
   6              		.eabi_attribute 23, 3
   7              		.eabi_attribute 24, 1
   8              		.eabi_attribute 25, 1
   9              		.eabi_attribute 26, 1
  10              		.eabi_attribute 30, 1
  11              		.eabi_attribute 34, 1
  12              		.eabi_attribute 18, 4
  13              		.file	"stm32f4xx_ll_usb.c"
  14              		.text
  15              	.Ltext0:
  16              		.cfi_sections	.debug_frame
  17              		.section	.text.USB_CoreReset,"ax",%progbits
  18              		.align	1
  19              		.arch armv7e-m
  20              		.syntax unified
  21              		.thumb
  22              		.thumb_func
  23              		.fpu fpv4-sp-d16
  25              	USB_CoreReset:
  26              	.LVL0:
  27              	.LFB164:
  28              		.file 1 "Drivers/STM32F4xx_HAL_Driver/Src/stm32f4xx_ll_usb.c"
   1:Drivers/STM32F4xx_HAL_Driver/Src/stm32f4xx_ll_usb.c **** /**
   2:Drivers/STM32F4xx_HAL_Driver/Src/stm32f4xx_ll_usb.c ****   ******************************************************************************
   3:Drivers/STM32F4xx_HAL_Driver/Src/stm32f4xx_ll_usb.c ****   * @file    stm32f4xx_ll_usb.c
   4:Drivers/STM32F4xx_HAL_Driver/Src/stm32f4xx_ll_usb.c ****   * @author  MCD Application Team
   5:Drivers/STM32F4xx_HAL_Driver/Src/stm32f4xx_ll_usb.c ****   * @brief   USB Low Layer HAL module driver.
   6:Drivers/STM32F4xx_HAL_Driver/Src/stm32f4xx_ll_usb.c ****   *
   7:Drivers/STM32F4xx_HAL_Driver/Src/stm32f4xx_ll_usb.c ****   *          This file provides firmware functions to manage the following
   8:Drivers/STM32F4xx_HAL_Driver/Src/stm32f4xx_ll_usb.c ****   *          functionalities of the USB Peripheral Controller:
   9:Drivers/STM32F4xx_HAL_Driver/Src/stm32f4xx_ll_usb.c ****   *           + Initialization/de-initialization functions
  10:Drivers/STM32F4xx_HAL_Driver/Src/stm32f4xx_ll_usb.c ****   *           + I/O operation functions
  11:Drivers/STM32F4xx_HAL_Driver/Src/stm32f4xx_ll_usb.c ****   *           + Peripheral Control functions
  12:Drivers/STM32F4xx_HAL_Driver/Src/stm32f4xx_ll_usb.c ****   *           + Peripheral State functions
  13:Drivers/STM32F4xx_HAL_Driver/Src/stm32f4xx_ll_usb.c ****   *
  14:Drivers/STM32F4xx_HAL_Driver/Src/stm32f4xx_ll_usb.c ****   ******************************************************************************
  15:Drivers/STM32F4xx_HAL_Driver/Src/stm32f4xx_ll_usb.c ****   * @attention
  16:Drivers/STM32F4xx_HAL_Driver/Src/stm32f4xx_ll_usb.c ****   *
  17:Drivers/STM32F4xx_HAL_Driver/Src/stm32f4xx_ll_usb.c ****   * Copyright (c) 2016 STMicroelectronics.
  18:Drivers/STM32F4xx_HAL_Driver/Src/stm32f4xx_ll_usb.c ****   * All rights reserved.
  19:Drivers/STM32F4xx_HAL_Driver/Src/stm32f4xx_ll_usb.c ****   *
  20:Drivers/STM32F4xx_HAL_Driver/Src/stm32f4xx_ll_usb.c ****   * This software is licensed under terms that can be found in the LICENSE file
  21:Drivers/STM32F4xx_HAL_Driver/Src/stm32f4xx_ll_usb.c ****   * in the root directory of this software component.
  22:Drivers/STM32F4xx_HAL_Driver/Src/stm32f4xx_ll_usb.c ****   * If no LICENSE file comes with this software, it is provided AS-IS.
  23:Drivers/STM32F4xx_HAL_Driver/Src/stm32f4xx_ll_usb.c ****   *
  24:Drivers/STM32F4xx_HAL_Driver/Src/stm32f4xx_ll_usb.c ****   ******************************************************************************
  25:Drivers/STM32F4xx_HAL_Driver/Src/stm32f4xx_ll_usb.c ****   @verbatim
  26:Drivers/STM32F4xx_HAL_Driver/Src/stm32f4xx_ll_usb.c ****   ==============================================================================
  27:Drivers/STM32F4xx_HAL_Driver/Src/stm32f4xx_ll_usb.c ****                     ##### How to use this driver #####
  28:Drivers/STM32F4xx_HAL_Driver/Src/stm32f4xx_ll_usb.c ****   ==============================================================================
  29:Drivers/STM32F4xx_HAL_Driver/Src/stm32f4xx_ll_usb.c ****     [..]
  30:Drivers/STM32F4xx_HAL_Driver/Src/stm32f4xx_ll_usb.c ****       (#) Fill parameters of Init structure in USB_OTG_CfgTypeDef structure.
ARM GAS  /tmp/ccfbcrWA.s 			page 2


  31:Drivers/STM32F4xx_HAL_Driver/Src/stm32f4xx_ll_usb.c **** 
  32:Drivers/STM32F4xx_HAL_Driver/Src/stm32f4xx_ll_usb.c ****       (#) Call USB_CoreInit() API to initialize the USB Core peripheral.
  33:Drivers/STM32F4xx_HAL_Driver/Src/stm32f4xx_ll_usb.c **** 
  34:Drivers/STM32F4xx_HAL_Driver/Src/stm32f4xx_ll_usb.c ****       (#) The upper HAL HCD/PCD driver will call the right routines for its internal processes.
  35:Drivers/STM32F4xx_HAL_Driver/Src/stm32f4xx_ll_usb.c **** 
  36:Drivers/STM32F4xx_HAL_Driver/Src/stm32f4xx_ll_usb.c ****   @endverbatim
  37:Drivers/STM32F4xx_HAL_Driver/Src/stm32f4xx_ll_usb.c **** 
  38:Drivers/STM32F4xx_HAL_Driver/Src/stm32f4xx_ll_usb.c ****   ******************************************************************************
  39:Drivers/STM32F4xx_HAL_Driver/Src/stm32f4xx_ll_usb.c ****   */
  40:Drivers/STM32F4xx_HAL_Driver/Src/stm32f4xx_ll_usb.c **** 
  41:Drivers/STM32F4xx_HAL_Driver/Src/stm32f4xx_ll_usb.c **** /* Includes ------------------------------------------------------------------*/
  42:Drivers/STM32F4xx_HAL_Driver/Src/stm32f4xx_ll_usb.c **** #include "stm32f4xx_hal.h"
  43:Drivers/STM32F4xx_HAL_Driver/Src/stm32f4xx_ll_usb.c **** 
  44:Drivers/STM32F4xx_HAL_Driver/Src/stm32f4xx_ll_usb.c **** /** @addtogroup STM32F4xx_LL_USB_DRIVER
  45:Drivers/STM32F4xx_HAL_Driver/Src/stm32f4xx_ll_usb.c ****   * @{
  46:Drivers/STM32F4xx_HAL_Driver/Src/stm32f4xx_ll_usb.c ****   */
  47:Drivers/STM32F4xx_HAL_Driver/Src/stm32f4xx_ll_usb.c **** 
  48:Drivers/STM32F4xx_HAL_Driver/Src/stm32f4xx_ll_usb.c **** #if defined (HAL_PCD_MODULE_ENABLED) || defined (HAL_HCD_MODULE_ENABLED)
  49:Drivers/STM32F4xx_HAL_Driver/Src/stm32f4xx_ll_usb.c **** #if defined (USB_OTG_FS) || defined (USB_OTG_HS)
  50:Drivers/STM32F4xx_HAL_Driver/Src/stm32f4xx_ll_usb.c **** /* Private typedef -----------------------------------------------------------*/
  51:Drivers/STM32F4xx_HAL_Driver/Src/stm32f4xx_ll_usb.c **** /* Private define ------------------------------------------------------------*/
  52:Drivers/STM32F4xx_HAL_Driver/Src/stm32f4xx_ll_usb.c **** /* Private macro -------------------------------------------------------------*/
  53:Drivers/STM32F4xx_HAL_Driver/Src/stm32f4xx_ll_usb.c **** /* Private variables ---------------------------------------------------------*/
  54:Drivers/STM32F4xx_HAL_Driver/Src/stm32f4xx_ll_usb.c **** /* Private function prototypes -----------------------------------------------*/
  55:Drivers/STM32F4xx_HAL_Driver/Src/stm32f4xx_ll_usb.c **** /* Private functions ---------------------------------------------------------*/
  56:Drivers/STM32F4xx_HAL_Driver/Src/stm32f4xx_ll_usb.c **** #if defined (USB_OTG_FS) || defined (USB_OTG_HS)
  57:Drivers/STM32F4xx_HAL_Driver/Src/stm32f4xx_ll_usb.c **** static HAL_StatusTypeDef USB_CoreReset(USB_OTG_GlobalTypeDef *USBx);
  58:Drivers/STM32F4xx_HAL_Driver/Src/stm32f4xx_ll_usb.c **** 
  59:Drivers/STM32F4xx_HAL_Driver/Src/stm32f4xx_ll_usb.c **** /* Exported functions --------------------------------------------------------*/
  60:Drivers/STM32F4xx_HAL_Driver/Src/stm32f4xx_ll_usb.c **** /** @defgroup USB_LL_Exported_Functions USB Low Layer Exported Functions
  61:Drivers/STM32F4xx_HAL_Driver/Src/stm32f4xx_ll_usb.c ****   * @{
  62:Drivers/STM32F4xx_HAL_Driver/Src/stm32f4xx_ll_usb.c ****   */
  63:Drivers/STM32F4xx_HAL_Driver/Src/stm32f4xx_ll_usb.c **** 
  64:Drivers/STM32F4xx_HAL_Driver/Src/stm32f4xx_ll_usb.c **** /** @defgroup USB_LL_Exported_Functions_Group1 Initialization/de-initialization functions
  65:Drivers/STM32F4xx_HAL_Driver/Src/stm32f4xx_ll_usb.c ****   *  @brief    Initialization and Configuration functions
  66:Drivers/STM32F4xx_HAL_Driver/Src/stm32f4xx_ll_usb.c ****   *
  67:Drivers/STM32F4xx_HAL_Driver/Src/stm32f4xx_ll_usb.c **** @verbatim
  68:Drivers/STM32F4xx_HAL_Driver/Src/stm32f4xx_ll_usb.c ****  ===============================================================================
  69:Drivers/STM32F4xx_HAL_Driver/Src/stm32f4xx_ll_usb.c ****                       ##### Initialization/de-initialization functions #####
  70:Drivers/STM32F4xx_HAL_Driver/Src/stm32f4xx_ll_usb.c ****  ===============================================================================
  71:Drivers/STM32F4xx_HAL_Driver/Src/stm32f4xx_ll_usb.c **** 
  72:Drivers/STM32F4xx_HAL_Driver/Src/stm32f4xx_ll_usb.c **** @endverbatim
  73:Drivers/STM32F4xx_HAL_Driver/Src/stm32f4xx_ll_usb.c ****   * @{
  74:Drivers/STM32F4xx_HAL_Driver/Src/stm32f4xx_ll_usb.c ****   */
  75:Drivers/STM32F4xx_HAL_Driver/Src/stm32f4xx_ll_usb.c **** 
  76:Drivers/STM32F4xx_HAL_Driver/Src/stm32f4xx_ll_usb.c **** /**
  77:Drivers/STM32F4xx_HAL_Driver/Src/stm32f4xx_ll_usb.c ****   * @brief  Initializes the USB Core
  78:Drivers/STM32F4xx_HAL_Driver/Src/stm32f4xx_ll_usb.c ****   * @param  USBx USB Instance
  79:Drivers/STM32F4xx_HAL_Driver/Src/stm32f4xx_ll_usb.c ****   * @param  cfg pointer to a USB_OTG_CfgTypeDef structure that contains
  80:Drivers/STM32F4xx_HAL_Driver/Src/stm32f4xx_ll_usb.c ****   *         the configuration information for the specified USBx peripheral.
  81:Drivers/STM32F4xx_HAL_Driver/Src/stm32f4xx_ll_usb.c ****   * @retval HAL status
  82:Drivers/STM32F4xx_HAL_Driver/Src/stm32f4xx_ll_usb.c ****   */
  83:Drivers/STM32F4xx_HAL_Driver/Src/stm32f4xx_ll_usb.c **** HAL_StatusTypeDef USB_CoreInit(USB_OTG_GlobalTypeDef *USBx, USB_OTG_CfgTypeDef cfg)
  84:Drivers/STM32F4xx_HAL_Driver/Src/stm32f4xx_ll_usb.c **** {
  85:Drivers/STM32F4xx_HAL_Driver/Src/stm32f4xx_ll_usb.c ****   HAL_StatusTypeDef ret;
  86:Drivers/STM32F4xx_HAL_Driver/Src/stm32f4xx_ll_usb.c ****   if (cfg.phy_itface == USB_OTG_ULPI_PHY)
  87:Drivers/STM32F4xx_HAL_Driver/Src/stm32f4xx_ll_usb.c ****   {
ARM GAS  /tmp/ccfbcrWA.s 			page 3


  88:Drivers/STM32F4xx_HAL_Driver/Src/stm32f4xx_ll_usb.c ****     USBx->GCCFG &= ~(USB_OTG_GCCFG_PWRDWN);
  89:Drivers/STM32F4xx_HAL_Driver/Src/stm32f4xx_ll_usb.c **** 
  90:Drivers/STM32F4xx_HAL_Driver/Src/stm32f4xx_ll_usb.c ****     /* Init The ULPI Interface */
  91:Drivers/STM32F4xx_HAL_Driver/Src/stm32f4xx_ll_usb.c ****     USBx->GUSBCFG &= ~(USB_OTG_GUSBCFG_TSDPS | USB_OTG_GUSBCFG_ULPIFSLS | USB_OTG_GUSBCFG_PHYSEL);
  92:Drivers/STM32F4xx_HAL_Driver/Src/stm32f4xx_ll_usb.c **** 
  93:Drivers/STM32F4xx_HAL_Driver/Src/stm32f4xx_ll_usb.c ****     /* Select vbus source */
  94:Drivers/STM32F4xx_HAL_Driver/Src/stm32f4xx_ll_usb.c ****     USBx->GUSBCFG &= ~(USB_OTG_GUSBCFG_ULPIEVBUSD | USB_OTG_GUSBCFG_ULPIEVBUSI);
  95:Drivers/STM32F4xx_HAL_Driver/Src/stm32f4xx_ll_usb.c ****     if (cfg.use_external_vbus == 1U)
  96:Drivers/STM32F4xx_HAL_Driver/Src/stm32f4xx_ll_usb.c ****     {
  97:Drivers/STM32F4xx_HAL_Driver/Src/stm32f4xx_ll_usb.c ****       USBx->GUSBCFG |= USB_OTG_GUSBCFG_ULPIEVBUSD;
  98:Drivers/STM32F4xx_HAL_Driver/Src/stm32f4xx_ll_usb.c ****     }
  99:Drivers/STM32F4xx_HAL_Driver/Src/stm32f4xx_ll_usb.c **** 
 100:Drivers/STM32F4xx_HAL_Driver/Src/stm32f4xx_ll_usb.c ****     /* Reset after a PHY select */
 101:Drivers/STM32F4xx_HAL_Driver/Src/stm32f4xx_ll_usb.c ****     ret = USB_CoreReset(USBx);
 102:Drivers/STM32F4xx_HAL_Driver/Src/stm32f4xx_ll_usb.c ****   }
 103:Drivers/STM32F4xx_HAL_Driver/Src/stm32f4xx_ll_usb.c ****   else /* FS interface (embedded Phy) */
 104:Drivers/STM32F4xx_HAL_Driver/Src/stm32f4xx_ll_usb.c ****   {
 105:Drivers/STM32F4xx_HAL_Driver/Src/stm32f4xx_ll_usb.c ****     /* Select FS Embedded PHY */
 106:Drivers/STM32F4xx_HAL_Driver/Src/stm32f4xx_ll_usb.c ****     USBx->GUSBCFG |= USB_OTG_GUSBCFG_PHYSEL;
 107:Drivers/STM32F4xx_HAL_Driver/Src/stm32f4xx_ll_usb.c **** 
 108:Drivers/STM32F4xx_HAL_Driver/Src/stm32f4xx_ll_usb.c ****     /* Reset after a PHY select */
 109:Drivers/STM32F4xx_HAL_Driver/Src/stm32f4xx_ll_usb.c ****     ret = USB_CoreReset(USBx);
 110:Drivers/STM32F4xx_HAL_Driver/Src/stm32f4xx_ll_usb.c **** 
 111:Drivers/STM32F4xx_HAL_Driver/Src/stm32f4xx_ll_usb.c ****     if (cfg.battery_charging_enable == 0U)
 112:Drivers/STM32F4xx_HAL_Driver/Src/stm32f4xx_ll_usb.c ****     {
 113:Drivers/STM32F4xx_HAL_Driver/Src/stm32f4xx_ll_usb.c ****       /* Activate the USB Transceiver */
 114:Drivers/STM32F4xx_HAL_Driver/Src/stm32f4xx_ll_usb.c ****       USBx->GCCFG |= USB_OTG_GCCFG_PWRDWN;
 115:Drivers/STM32F4xx_HAL_Driver/Src/stm32f4xx_ll_usb.c ****     }
 116:Drivers/STM32F4xx_HAL_Driver/Src/stm32f4xx_ll_usb.c ****     else
 117:Drivers/STM32F4xx_HAL_Driver/Src/stm32f4xx_ll_usb.c ****     {
 118:Drivers/STM32F4xx_HAL_Driver/Src/stm32f4xx_ll_usb.c ****       /* Deactivate the USB Transceiver */
 119:Drivers/STM32F4xx_HAL_Driver/Src/stm32f4xx_ll_usb.c ****       USBx->GCCFG &= ~(USB_OTG_GCCFG_PWRDWN);
 120:Drivers/STM32F4xx_HAL_Driver/Src/stm32f4xx_ll_usb.c ****     }
 121:Drivers/STM32F4xx_HAL_Driver/Src/stm32f4xx_ll_usb.c ****   }
 122:Drivers/STM32F4xx_HAL_Driver/Src/stm32f4xx_ll_usb.c **** 
 123:Drivers/STM32F4xx_HAL_Driver/Src/stm32f4xx_ll_usb.c ****   if (cfg.dma_enable == 1U)
 124:Drivers/STM32F4xx_HAL_Driver/Src/stm32f4xx_ll_usb.c ****   {
 125:Drivers/STM32F4xx_HAL_Driver/Src/stm32f4xx_ll_usb.c ****     USBx->GAHBCFG |= USB_OTG_GAHBCFG_HBSTLEN_2;
 126:Drivers/STM32F4xx_HAL_Driver/Src/stm32f4xx_ll_usb.c ****     USBx->GAHBCFG |= USB_OTG_GAHBCFG_DMAEN;
 127:Drivers/STM32F4xx_HAL_Driver/Src/stm32f4xx_ll_usb.c ****   }
 128:Drivers/STM32F4xx_HAL_Driver/Src/stm32f4xx_ll_usb.c **** 
 129:Drivers/STM32F4xx_HAL_Driver/Src/stm32f4xx_ll_usb.c ****   return ret;
 130:Drivers/STM32F4xx_HAL_Driver/Src/stm32f4xx_ll_usb.c **** }
 131:Drivers/STM32F4xx_HAL_Driver/Src/stm32f4xx_ll_usb.c **** 
 132:Drivers/STM32F4xx_HAL_Driver/Src/stm32f4xx_ll_usb.c **** 
 133:Drivers/STM32F4xx_HAL_Driver/Src/stm32f4xx_ll_usb.c **** /**
 134:Drivers/STM32F4xx_HAL_Driver/Src/stm32f4xx_ll_usb.c ****   * @brief  Set the USB turnaround time
 135:Drivers/STM32F4xx_HAL_Driver/Src/stm32f4xx_ll_usb.c ****   * @param  USBx USB Instance
 136:Drivers/STM32F4xx_HAL_Driver/Src/stm32f4xx_ll_usb.c ****   * @param  hclk: AHB clock frequency
 137:Drivers/STM32F4xx_HAL_Driver/Src/stm32f4xx_ll_usb.c ****   * @retval USB turnaround time In PHY Clocks number
 138:Drivers/STM32F4xx_HAL_Driver/Src/stm32f4xx_ll_usb.c ****   */
 139:Drivers/STM32F4xx_HAL_Driver/Src/stm32f4xx_ll_usb.c **** HAL_StatusTypeDef USB_SetTurnaroundTime(USB_OTG_GlobalTypeDef *USBx,
 140:Drivers/STM32F4xx_HAL_Driver/Src/stm32f4xx_ll_usb.c ****                                         uint32_t hclk, uint8_t speed)
 141:Drivers/STM32F4xx_HAL_Driver/Src/stm32f4xx_ll_usb.c **** {
 142:Drivers/STM32F4xx_HAL_Driver/Src/stm32f4xx_ll_usb.c ****   uint32_t UsbTrd;
 143:Drivers/STM32F4xx_HAL_Driver/Src/stm32f4xx_ll_usb.c **** 
 144:Drivers/STM32F4xx_HAL_Driver/Src/stm32f4xx_ll_usb.c ****   /* The USBTRD is configured according to the tables below, depending on AHB frequency
ARM GAS  /tmp/ccfbcrWA.s 			page 4


 145:Drivers/STM32F4xx_HAL_Driver/Src/stm32f4xx_ll_usb.c ****   used by application. In the low AHB frequency range it is used to stretch enough the USB response
 146:Drivers/STM32F4xx_HAL_Driver/Src/stm32f4xx_ll_usb.c ****   time to IN tokens, the USB turnaround time, so to compensate for the longer AHB read access
 147:Drivers/STM32F4xx_HAL_Driver/Src/stm32f4xx_ll_usb.c ****   latency to the Data FIFO */
 148:Drivers/STM32F4xx_HAL_Driver/Src/stm32f4xx_ll_usb.c ****   if (speed == USBD_FS_SPEED)
 149:Drivers/STM32F4xx_HAL_Driver/Src/stm32f4xx_ll_usb.c ****   {
 150:Drivers/STM32F4xx_HAL_Driver/Src/stm32f4xx_ll_usb.c ****     if ((hclk >= 14200000U) && (hclk < 15000000U))
 151:Drivers/STM32F4xx_HAL_Driver/Src/stm32f4xx_ll_usb.c ****     {
 152:Drivers/STM32F4xx_HAL_Driver/Src/stm32f4xx_ll_usb.c ****       /* hclk Clock Range between 14.2-15 MHz */
 153:Drivers/STM32F4xx_HAL_Driver/Src/stm32f4xx_ll_usb.c ****       UsbTrd = 0xFU;
 154:Drivers/STM32F4xx_HAL_Driver/Src/stm32f4xx_ll_usb.c ****     }
 155:Drivers/STM32F4xx_HAL_Driver/Src/stm32f4xx_ll_usb.c ****     else if ((hclk >= 15000000U) && (hclk < 16000000U))
 156:Drivers/STM32F4xx_HAL_Driver/Src/stm32f4xx_ll_usb.c ****     {
 157:Drivers/STM32F4xx_HAL_Driver/Src/stm32f4xx_ll_usb.c ****       /* hclk Clock Range between 15-16 MHz */
 158:Drivers/STM32F4xx_HAL_Driver/Src/stm32f4xx_ll_usb.c ****       UsbTrd = 0xEU;
 159:Drivers/STM32F4xx_HAL_Driver/Src/stm32f4xx_ll_usb.c ****     }
 160:Drivers/STM32F4xx_HAL_Driver/Src/stm32f4xx_ll_usb.c ****     else if ((hclk >= 16000000U) && (hclk < 17200000U))
 161:Drivers/STM32F4xx_HAL_Driver/Src/stm32f4xx_ll_usb.c ****     {
 162:Drivers/STM32F4xx_HAL_Driver/Src/stm32f4xx_ll_usb.c ****       /* hclk Clock Range between 16-17.2 MHz */
 163:Drivers/STM32F4xx_HAL_Driver/Src/stm32f4xx_ll_usb.c ****       UsbTrd = 0xDU;
 164:Drivers/STM32F4xx_HAL_Driver/Src/stm32f4xx_ll_usb.c ****     }
 165:Drivers/STM32F4xx_HAL_Driver/Src/stm32f4xx_ll_usb.c ****     else if ((hclk >= 17200000U) && (hclk < 18500000U))
 166:Drivers/STM32F4xx_HAL_Driver/Src/stm32f4xx_ll_usb.c ****     {
 167:Drivers/STM32F4xx_HAL_Driver/Src/stm32f4xx_ll_usb.c ****       /* hclk Clock Range between 17.2-18.5 MHz */
 168:Drivers/STM32F4xx_HAL_Driver/Src/stm32f4xx_ll_usb.c ****       UsbTrd = 0xCU;
 169:Drivers/STM32F4xx_HAL_Driver/Src/stm32f4xx_ll_usb.c ****     }
 170:Drivers/STM32F4xx_HAL_Driver/Src/stm32f4xx_ll_usb.c ****     else if ((hclk >= 18500000U) && (hclk < 20000000U))
 171:Drivers/STM32F4xx_HAL_Driver/Src/stm32f4xx_ll_usb.c ****     {
 172:Drivers/STM32F4xx_HAL_Driver/Src/stm32f4xx_ll_usb.c ****       /* hclk Clock Range between 18.5-20 MHz */
 173:Drivers/STM32F4xx_HAL_Driver/Src/stm32f4xx_ll_usb.c ****       UsbTrd = 0xBU;
 174:Drivers/STM32F4xx_HAL_Driver/Src/stm32f4xx_ll_usb.c ****     }
 175:Drivers/STM32F4xx_HAL_Driver/Src/stm32f4xx_ll_usb.c ****     else if ((hclk >= 20000000U) && (hclk < 21800000U))
 176:Drivers/STM32F4xx_HAL_Driver/Src/stm32f4xx_ll_usb.c ****     {
 177:Drivers/STM32F4xx_HAL_Driver/Src/stm32f4xx_ll_usb.c ****       /* hclk Clock Range between 20-21.8 MHz */
 178:Drivers/STM32F4xx_HAL_Driver/Src/stm32f4xx_ll_usb.c ****       UsbTrd = 0xAU;
 179:Drivers/STM32F4xx_HAL_Driver/Src/stm32f4xx_ll_usb.c ****     }
 180:Drivers/STM32F4xx_HAL_Driver/Src/stm32f4xx_ll_usb.c ****     else if ((hclk >= 21800000U) && (hclk < 24000000U))
 181:Drivers/STM32F4xx_HAL_Driver/Src/stm32f4xx_ll_usb.c ****     {
 182:Drivers/STM32F4xx_HAL_Driver/Src/stm32f4xx_ll_usb.c ****       /* hclk Clock Range between 21.8-24 MHz */
 183:Drivers/STM32F4xx_HAL_Driver/Src/stm32f4xx_ll_usb.c ****       UsbTrd = 0x9U;
 184:Drivers/STM32F4xx_HAL_Driver/Src/stm32f4xx_ll_usb.c ****     }
 185:Drivers/STM32F4xx_HAL_Driver/Src/stm32f4xx_ll_usb.c ****     else if ((hclk >= 24000000U) && (hclk < 27700000U))
 186:Drivers/STM32F4xx_HAL_Driver/Src/stm32f4xx_ll_usb.c ****     {
 187:Drivers/STM32F4xx_HAL_Driver/Src/stm32f4xx_ll_usb.c ****       /* hclk Clock Range between 24-27.7 MHz */
 188:Drivers/STM32F4xx_HAL_Driver/Src/stm32f4xx_ll_usb.c ****       UsbTrd = 0x8U;
 189:Drivers/STM32F4xx_HAL_Driver/Src/stm32f4xx_ll_usb.c ****     }
 190:Drivers/STM32F4xx_HAL_Driver/Src/stm32f4xx_ll_usb.c ****     else if ((hclk >= 27700000U) && (hclk < 32000000U))
 191:Drivers/STM32F4xx_HAL_Driver/Src/stm32f4xx_ll_usb.c ****     {
 192:Drivers/STM32F4xx_HAL_Driver/Src/stm32f4xx_ll_usb.c ****       /* hclk Clock Range between 27.7-32 MHz */
 193:Drivers/STM32F4xx_HAL_Driver/Src/stm32f4xx_ll_usb.c ****       UsbTrd = 0x7U;
 194:Drivers/STM32F4xx_HAL_Driver/Src/stm32f4xx_ll_usb.c ****     }
 195:Drivers/STM32F4xx_HAL_Driver/Src/stm32f4xx_ll_usb.c ****     else /* if(hclk >= 32000000) */
 196:Drivers/STM32F4xx_HAL_Driver/Src/stm32f4xx_ll_usb.c ****     {
 197:Drivers/STM32F4xx_HAL_Driver/Src/stm32f4xx_ll_usb.c ****       /* hclk Clock Range between 32-200 MHz */
 198:Drivers/STM32F4xx_HAL_Driver/Src/stm32f4xx_ll_usb.c ****       UsbTrd = 0x6U;
 199:Drivers/STM32F4xx_HAL_Driver/Src/stm32f4xx_ll_usb.c ****     }
 200:Drivers/STM32F4xx_HAL_Driver/Src/stm32f4xx_ll_usb.c ****   }
 201:Drivers/STM32F4xx_HAL_Driver/Src/stm32f4xx_ll_usb.c ****   else if (speed == USBD_HS_SPEED)
ARM GAS  /tmp/ccfbcrWA.s 			page 5


 202:Drivers/STM32F4xx_HAL_Driver/Src/stm32f4xx_ll_usb.c ****   {
 203:Drivers/STM32F4xx_HAL_Driver/Src/stm32f4xx_ll_usb.c ****     UsbTrd = USBD_HS_TRDT_VALUE;
 204:Drivers/STM32F4xx_HAL_Driver/Src/stm32f4xx_ll_usb.c ****   }
 205:Drivers/STM32F4xx_HAL_Driver/Src/stm32f4xx_ll_usb.c ****   else
 206:Drivers/STM32F4xx_HAL_Driver/Src/stm32f4xx_ll_usb.c ****   {
 207:Drivers/STM32F4xx_HAL_Driver/Src/stm32f4xx_ll_usb.c ****     UsbTrd = USBD_DEFAULT_TRDT_VALUE;
 208:Drivers/STM32F4xx_HAL_Driver/Src/stm32f4xx_ll_usb.c ****   }
 209:Drivers/STM32F4xx_HAL_Driver/Src/stm32f4xx_ll_usb.c **** 
 210:Drivers/STM32F4xx_HAL_Driver/Src/stm32f4xx_ll_usb.c ****   USBx->GUSBCFG &= ~USB_OTG_GUSBCFG_TRDT;
 211:Drivers/STM32F4xx_HAL_Driver/Src/stm32f4xx_ll_usb.c ****   USBx->GUSBCFG |= (uint32_t)((UsbTrd << 10) & USB_OTG_GUSBCFG_TRDT);
 212:Drivers/STM32F4xx_HAL_Driver/Src/stm32f4xx_ll_usb.c **** 
 213:Drivers/STM32F4xx_HAL_Driver/Src/stm32f4xx_ll_usb.c ****   return HAL_OK;
 214:Drivers/STM32F4xx_HAL_Driver/Src/stm32f4xx_ll_usb.c **** }
 215:Drivers/STM32F4xx_HAL_Driver/Src/stm32f4xx_ll_usb.c **** 
 216:Drivers/STM32F4xx_HAL_Driver/Src/stm32f4xx_ll_usb.c **** /**
 217:Drivers/STM32F4xx_HAL_Driver/Src/stm32f4xx_ll_usb.c ****   * @brief  USB_EnableGlobalInt
 218:Drivers/STM32F4xx_HAL_Driver/Src/stm32f4xx_ll_usb.c ****   *         Enables the controller's Global Int in the AHB Config reg
 219:Drivers/STM32F4xx_HAL_Driver/Src/stm32f4xx_ll_usb.c ****   * @param  USBx  Selected device
 220:Drivers/STM32F4xx_HAL_Driver/Src/stm32f4xx_ll_usb.c ****   * @retval HAL status
 221:Drivers/STM32F4xx_HAL_Driver/Src/stm32f4xx_ll_usb.c ****   */
 222:Drivers/STM32F4xx_HAL_Driver/Src/stm32f4xx_ll_usb.c **** HAL_StatusTypeDef USB_EnableGlobalInt(USB_OTG_GlobalTypeDef *USBx)
 223:Drivers/STM32F4xx_HAL_Driver/Src/stm32f4xx_ll_usb.c **** {
 224:Drivers/STM32F4xx_HAL_Driver/Src/stm32f4xx_ll_usb.c ****   USBx->GAHBCFG |= USB_OTG_GAHBCFG_GINT;
 225:Drivers/STM32F4xx_HAL_Driver/Src/stm32f4xx_ll_usb.c ****   return HAL_OK;
 226:Drivers/STM32F4xx_HAL_Driver/Src/stm32f4xx_ll_usb.c **** }
 227:Drivers/STM32F4xx_HAL_Driver/Src/stm32f4xx_ll_usb.c **** 
 228:Drivers/STM32F4xx_HAL_Driver/Src/stm32f4xx_ll_usb.c **** /**
 229:Drivers/STM32F4xx_HAL_Driver/Src/stm32f4xx_ll_usb.c ****   * @brief  USB_DisableGlobalInt
 230:Drivers/STM32F4xx_HAL_Driver/Src/stm32f4xx_ll_usb.c ****   *         Disable the controller's Global Int in the AHB Config reg
 231:Drivers/STM32F4xx_HAL_Driver/Src/stm32f4xx_ll_usb.c ****   * @param  USBx  Selected device
 232:Drivers/STM32F4xx_HAL_Driver/Src/stm32f4xx_ll_usb.c ****   * @retval HAL status
 233:Drivers/STM32F4xx_HAL_Driver/Src/stm32f4xx_ll_usb.c ****   */
 234:Drivers/STM32F4xx_HAL_Driver/Src/stm32f4xx_ll_usb.c **** HAL_StatusTypeDef USB_DisableGlobalInt(USB_OTG_GlobalTypeDef *USBx)
 235:Drivers/STM32F4xx_HAL_Driver/Src/stm32f4xx_ll_usb.c **** {
 236:Drivers/STM32F4xx_HAL_Driver/Src/stm32f4xx_ll_usb.c ****   USBx->GAHBCFG &= ~USB_OTG_GAHBCFG_GINT;
 237:Drivers/STM32F4xx_HAL_Driver/Src/stm32f4xx_ll_usb.c ****   return HAL_OK;
 238:Drivers/STM32F4xx_HAL_Driver/Src/stm32f4xx_ll_usb.c **** }
 239:Drivers/STM32F4xx_HAL_Driver/Src/stm32f4xx_ll_usb.c **** 
 240:Drivers/STM32F4xx_HAL_Driver/Src/stm32f4xx_ll_usb.c **** /**
 241:Drivers/STM32F4xx_HAL_Driver/Src/stm32f4xx_ll_usb.c ****   * @brief  USB_SetCurrentMode Set functional mode
 242:Drivers/STM32F4xx_HAL_Driver/Src/stm32f4xx_ll_usb.c ****   * @param  USBx  Selected device
 243:Drivers/STM32F4xx_HAL_Driver/Src/stm32f4xx_ll_usb.c ****   * @param  mode  current core mode
 244:Drivers/STM32F4xx_HAL_Driver/Src/stm32f4xx_ll_usb.c ****   *          This parameter can be one of these values:
 245:Drivers/STM32F4xx_HAL_Driver/Src/stm32f4xx_ll_usb.c ****   *            @arg USB_DEVICE_MODE Peripheral mode
 246:Drivers/STM32F4xx_HAL_Driver/Src/stm32f4xx_ll_usb.c ****   *            @arg USB_HOST_MODE Host mode
 247:Drivers/STM32F4xx_HAL_Driver/Src/stm32f4xx_ll_usb.c ****   * @retval HAL status
 248:Drivers/STM32F4xx_HAL_Driver/Src/stm32f4xx_ll_usb.c ****   */
 249:Drivers/STM32F4xx_HAL_Driver/Src/stm32f4xx_ll_usb.c **** HAL_StatusTypeDef USB_SetCurrentMode(USB_OTG_GlobalTypeDef *USBx, USB_OTG_ModeTypeDef mode)
 250:Drivers/STM32F4xx_HAL_Driver/Src/stm32f4xx_ll_usb.c **** {
 251:Drivers/STM32F4xx_HAL_Driver/Src/stm32f4xx_ll_usb.c ****   uint32_t ms = 0U;
 252:Drivers/STM32F4xx_HAL_Driver/Src/stm32f4xx_ll_usb.c **** 
 253:Drivers/STM32F4xx_HAL_Driver/Src/stm32f4xx_ll_usb.c ****   USBx->GUSBCFG &= ~(USB_OTG_GUSBCFG_FHMOD | USB_OTG_GUSBCFG_FDMOD);
 254:Drivers/STM32F4xx_HAL_Driver/Src/stm32f4xx_ll_usb.c **** 
 255:Drivers/STM32F4xx_HAL_Driver/Src/stm32f4xx_ll_usb.c ****   if (mode == USB_HOST_MODE)
 256:Drivers/STM32F4xx_HAL_Driver/Src/stm32f4xx_ll_usb.c ****   {
 257:Drivers/STM32F4xx_HAL_Driver/Src/stm32f4xx_ll_usb.c ****     USBx->GUSBCFG |= USB_OTG_GUSBCFG_FHMOD;
 258:Drivers/STM32F4xx_HAL_Driver/Src/stm32f4xx_ll_usb.c **** 
ARM GAS  /tmp/ccfbcrWA.s 			page 6


 259:Drivers/STM32F4xx_HAL_Driver/Src/stm32f4xx_ll_usb.c ****     do
 260:Drivers/STM32F4xx_HAL_Driver/Src/stm32f4xx_ll_usb.c ****     {
 261:Drivers/STM32F4xx_HAL_Driver/Src/stm32f4xx_ll_usb.c ****       HAL_Delay(1U);
 262:Drivers/STM32F4xx_HAL_Driver/Src/stm32f4xx_ll_usb.c ****       ms++;
 263:Drivers/STM32F4xx_HAL_Driver/Src/stm32f4xx_ll_usb.c ****     } while ((USB_GetMode(USBx) != (uint32_t)USB_HOST_MODE) && (ms < 50U));
 264:Drivers/STM32F4xx_HAL_Driver/Src/stm32f4xx_ll_usb.c ****   }
 265:Drivers/STM32F4xx_HAL_Driver/Src/stm32f4xx_ll_usb.c ****   else if (mode == USB_DEVICE_MODE)
 266:Drivers/STM32F4xx_HAL_Driver/Src/stm32f4xx_ll_usb.c ****   {
 267:Drivers/STM32F4xx_HAL_Driver/Src/stm32f4xx_ll_usb.c ****     USBx->GUSBCFG |= USB_OTG_GUSBCFG_FDMOD;
 268:Drivers/STM32F4xx_HAL_Driver/Src/stm32f4xx_ll_usb.c **** 
 269:Drivers/STM32F4xx_HAL_Driver/Src/stm32f4xx_ll_usb.c ****     do
 270:Drivers/STM32F4xx_HAL_Driver/Src/stm32f4xx_ll_usb.c ****     {
 271:Drivers/STM32F4xx_HAL_Driver/Src/stm32f4xx_ll_usb.c ****       HAL_Delay(1U);
 272:Drivers/STM32F4xx_HAL_Driver/Src/stm32f4xx_ll_usb.c ****       ms++;
 273:Drivers/STM32F4xx_HAL_Driver/Src/stm32f4xx_ll_usb.c ****     } while ((USB_GetMode(USBx) != (uint32_t)USB_DEVICE_MODE) && (ms < 50U));
 274:Drivers/STM32F4xx_HAL_Driver/Src/stm32f4xx_ll_usb.c ****   }
 275:Drivers/STM32F4xx_HAL_Driver/Src/stm32f4xx_ll_usb.c ****   else
 276:Drivers/STM32F4xx_HAL_Driver/Src/stm32f4xx_ll_usb.c ****   {
 277:Drivers/STM32F4xx_HAL_Driver/Src/stm32f4xx_ll_usb.c ****     return HAL_ERROR;
 278:Drivers/STM32F4xx_HAL_Driver/Src/stm32f4xx_ll_usb.c ****   }
 279:Drivers/STM32F4xx_HAL_Driver/Src/stm32f4xx_ll_usb.c **** 
 280:Drivers/STM32F4xx_HAL_Driver/Src/stm32f4xx_ll_usb.c ****   if (ms == 50U)
 281:Drivers/STM32F4xx_HAL_Driver/Src/stm32f4xx_ll_usb.c ****   {
 282:Drivers/STM32F4xx_HAL_Driver/Src/stm32f4xx_ll_usb.c ****     return HAL_ERROR;
 283:Drivers/STM32F4xx_HAL_Driver/Src/stm32f4xx_ll_usb.c ****   }
 284:Drivers/STM32F4xx_HAL_Driver/Src/stm32f4xx_ll_usb.c **** 
 285:Drivers/STM32F4xx_HAL_Driver/Src/stm32f4xx_ll_usb.c ****   return HAL_OK;
 286:Drivers/STM32F4xx_HAL_Driver/Src/stm32f4xx_ll_usb.c **** }
 287:Drivers/STM32F4xx_HAL_Driver/Src/stm32f4xx_ll_usb.c **** 
 288:Drivers/STM32F4xx_HAL_Driver/Src/stm32f4xx_ll_usb.c **** /**
 289:Drivers/STM32F4xx_HAL_Driver/Src/stm32f4xx_ll_usb.c ****   * @brief  USB_DevInit Initializes the USB_OTG controller registers
 290:Drivers/STM32F4xx_HAL_Driver/Src/stm32f4xx_ll_usb.c ****   *         for device mode
 291:Drivers/STM32F4xx_HAL_Driver/Src/stm32f4xx_ll_usb.c ****   * @param  USBx  Selected device
 292:Drivers/STM32F4xx_HAL_Driver/Src/stm32f4xx_ll_usb.c ****   * @param  cfg   pointer to a USB_OTG_CfgTypeDef structure that contains
 293:Drivers/STM32F4xx_HAL_Driver/Src/stm32f4xx_ll_usb.c ****   *         the configuration information for the specified USBx peripheral.
 294:Drivers/STM32F4xx_HAL_Driver/Src/stm32f4xx_ll_usb.c ****   * @retval HAL status
 295:Drivers/STM32F4xx_HAL_Driver/Src/stm32f4xx_ll_usb.c ****   */
 296:Drivers/STM32F4xx_HAL_Driver/Src/stm32f4xx_ll_usb.c **** HAL_StatusTypeDef USB_DevInit(USB_OTG_GlobalTypeDef *USBx, USB_OTG_CfgTypeDef cfg)
 297:Drivers/STM32F4xx_HAL_Driver/Src/stm32f4xx_ll_usb.c **** {
 298:Drivers/STM32F4xx_HAL_Driver/Src/stm32f4xx_ll_usb.c ****   HAL_StatusTypeDef ret = HAL_OK;
 299:Drivers/STM32F4xx_HAL_Driver/Src/stm32f4xx_ll_usb.c ****   uint32_t USBx_BASE = (uint32_t)USBx;
 300:Drivers/STM32F4xx_HAL_Driver/Src/stm32f4xx_ll_usb.c ****   uint32_t i;
 301:Drivers/STM32F4xx_HAL_Driver/Src/stm32f4xx_ll_usb.c **** 
 302:Drivers/STM32F4xx_HAL_Driver/Src/stm32f4xx_ll_usb.c ****   for (i = 0U; i < 15U; i++)
 303:Drivers/STM32F4xx_HAL_Driver/Src/stm32f4xx_ll_usb.c ****   {
 304:Drivers/STM32F4xx_HAL_Driver/Src/stm32f4xx_ll_usb.c ****     USBx->DIEPTXF[i] = 0U;
 305:Drivers/STM32F4xx_HAL_Driver/Src/stm32f4xx_ll_usb.c ****   }
 306:Drivers/STM32F4xx_HAL_Driver/Src/stm32f4xx_ll_usb.c **** 
 307:Drivers/STM32F4xx_HAL_Driver/Src/stm32f4xx_ll_usb.c **** #if defined(STM32F446xx) || defined(STM32F469xx) || defined(STM32F479xx) || defined(STM32F412Zx) ||
 308:Drivers/STM32F4xx_HAL_Driver/Src/stm32f4xx_ll_usb.c ****   /* VBUS Sensing setup */
 309:Drivers/STM32F4xx_HAL_Driver/Src/stm32f4xx_ll_usb.c ****   if (cfg.vbus_sensing_enable == 0U)
 310:Drivers/STM32F4xx_HAL_Driver/Src/stm32f4xx_ll_usb.c ****   {
 311:Drivers/STM32F4xx_HAL_Driver/Src/stm32f4xx_ll_usb.c ****     USBx_DEVICE->DCTL |= USB_OTG_DCTL_SDIS;
 312:Drivers/STM32F4xx_HAL_Driver/Src/stm32f4xx_ll_usb.c **** 
 313:Drivers/STM32F4xx_HAL_Driver/Src/stm32f4xx_ll_usb.c ****     /* Deactivate VBUS Sensing B */
 314:Drivers/STM32F4xx_HAL_Driver/Src/stm32f4xx_ll_usb.c ****     USBx->GCCFG &= ~USB_OTG_GCCFG_VBDEN;
 315:Drivers/STM32F4xx_HAL_Driver/Src/stm32f4xx_ll_usb.c **** 
ARM GAS  /tmp/ccfbcrWA.s 			page 7


 316:Drivers/STM32F4xx_HAL_Driver/Src/stm32f4xx_ll_usb.c ****     /* B-peripheral session valid override enable */
 317:Drivers/STM32F4xx_HAL_Driver/Src/stm32f4xx_ll_usb.c ****     USBx->GOTGCTL |= USB_OTG_GOTGCTL_BVALOEN;
 318:Drivers/STM32F4xx_HAL_Driver/Src/stm32f4xx_ll_usb.c ****     USBx->GOTGCTL |= USB_OTG_GOTGCTL_BVALOVAL;
 319:Drivers/STM32F4xx_HAL_Driver/Src/stm32f4xx_ll_usb.c ****   }
 320:Drivers/STM32F4xx_HAL_Driver/Src/stm32f4xx_ll_usb.c ****   else
 321:Drivers/STM32F4xx_HAL_Driver/Src/stm32f4xx_ll_usb.c ****   {
 322:Drivers/STM32F4xx_HAL_Driver/Src/stm32f4xx_ll_usb.c ****     /* Enable HW VBUS sensing */
 323:Drivers/STM32F4xx_HAL_Driver/Src/stm32f4xx_ll_usb.c ****     USBx->GCCFG |= USB_OTG_GCCFG_VBDEN;
 324:Drivers/STM32F4xx_HAL_Driver/Src/stm32f4xx_ll_usb.c ****   }
 325:Drivers/STM32F4xx_HAL_Driver/Src/stm32f4xx_ll_usb.c **** #else
 326:Drivers/STM32F4xx_HAL_Driver/Src/stm32f4xx_ll_usb.c ****   /* VBUS Sensing setup */
 327:Drivers/STM32F4xx_HAL_Driver/Src/stm32f4xx_ll_usb.c ****   if (cfg.vbus_sensing_enable == 0U)
 328:Drivers/STM32F4xx_HAL_Driver/Src/stm32f4xx_ll_usb.c ****   {
 329:Drivers/STM32F4xx_HAL_Driver/Src/stm32f4xx_ll_usb.c ****     /*
 330:Drivers/STM32F4xx_HAL_Driver/Src/stm32f4xx_ll_usb.c ****      * Disable HW VBUS sensing. VBUS is internally considered to be always
 331:Drivers/STM32F4xx_HAL_Driver/Src/stm32f4xx_ll_usb.c ****      * at VBUS-Valid level (5V).
 332:Drivers/STM32F4xx_HAL_Driver/Src/stm32f4xx_ll_usb.c ****      */
 333:Drivers/STM32F4xx_HAL_Driver/Src/stm32f4xx_ll_usb.c ****     USBx_DEVICE->DCTL |= USB_OTG_DCTL_SDIS;
 334:Drivers/STM32F4xx_HAL_Driver/Src/stm32f4xx_ll_usb.c ****     USBx->GCCFG |= USB_OTG_GCCFG_NOVBUSSENS;
 335:Drivers/STM32F4xx_HAL_Driver/Src/stm32f4xx_ll_usb.c ****     USBx->GCCFG &= ~USB_OTG_GCCFG_VBUSBSEN;
 336:Drivers/STM32F4xx_HAL_Driver/Src/stm32f4xx_ll_usb.c ****     USBx->GCCFG &= ~USB_OTG_GCCFG_VBUSASEN;
 337:Drivers/STM32F4xx_HAL_Driver/Src/stm32f4xx_ll_usb.c ****   }
 338:Drivers/STM32F4xx_HAL_Driver/Src/stm32f4xx_ll_usb.c ****   else
 339:Drivers/STM32F4xx_HAL_Driver/Src/stm32f4xx_ll_usb.c ****   {
 340:Drivers/STM32F4xx_HAL_Driver/Src/stm32f4xx_ll_usb.c ****     /* Enable HW VBUS sensing */
 341:Drivers/STM32F4xx_HAL_Driver/Src/stm32f4xx_ll_usb.c ****     USBx->GCCFG &= ~USB_OTG_GCCFG_NOVBUSSENS;
 342:Drivers/STM32F4xx_HAL_Driver/Src/stm32f4xx_ll_usb.c ****     USBx->GCCFG |= USB_OTG_GCCFG_VBUSBSEN;
 343:Drivers/STM32F4xx_HAL_Driver/Src/stm32f4xx_ll_usb.c ****   }
 344:Drivers/STM32F4xx_HAL_Driver/Src/stm32f4xx_ll_usb.c **** #endif /* defined(STM32F446xx) || defined(STM32F469xx) || defined(STM32F479xx) || defined(STM32F412
 345:Drivers/STM32F4xx_HAL_Driver/Src/stm32f4xx_ll_usb.c **** 
 346:Drivers/STM32F4xx_HAL_Driver/Src/stm32f4xx_ll_usb.c ****   /* Restart the Phy Clock */
 347:Drivers/STM32F4xx_HAL_Driver/Src/stm32f4xx_ll_usb.c ****   USBx_PCGCCTL = 0U;
 348:Drivers/STM32F4xx_HAL_Driver/Src/stm32f4xx_ll_usb.c **** 
 349:Drivers/STM32F4xx_HAL_Driver/Src/stm32f4xx_ll_usb.c ****   /* Device mode configuration */
 350:Drivers/STM32F4xx_HAL_Driver/Src/stm32f4xx_ll_usb.c ****   USBx_DEVICE->DCFG |= DCFG_FRAME_INTERVAL_80;
 351:Drivers/STM32F4xx_HAL_Driver/Src/stm32f4xx_ll_usb.c **** 
 352:Drivers/STM32F4xx_HAL_Driver/Src/stm32f4xx_ll_usb.c ****   if (cfg.phy_itface == USB_OTG_ULPI_PHY)
 353:Drivers/STM32F4xx_HAL_Driver/Src/stm32f4xx_ll_usb.c ****   {
 354:Drivers/STM32F4xx_HAL_Driver/Src/stm32f4xx_ll_usb.c ****     if (cfg.speed == USBD_HS_SPEED)
 355:Drivers/STM32F4xx_HAL_Driver/Src/stm32f4xx_ll_usb.c ****     {
 356:Drivers/STM32F4xx_HAL_Driver/Src/stm32f4xx_ll_usb.c ****       /* Set Core speed to High speed mode */
 357:Drivers/STM32F4xx_HAL_Driver/Src/stm32f4xx_ll_usb.c ****       (void)USB_SetDevSpeed(USBx, USB_OTG_SPEED_HIGH);
 358:Drivers/STM32F4xx_HAL_Driver/Src/stm32f4xx_ll_usb.c ****     }
 359:Drivers/STM32F4xx_HAL_Driver/Src/stm32f4xx_ll_usb.c ****     else
 360:Drivers/STM32F4xx_HAL_Driver/Src/stm32f4xx_ll_usb.c ****     {
 361:Drivers/STM32F4xx_HAL_Driver/Src/stm32f4xx_ll_usb.c ****       /* Set Core speed to Full speed mode */
 362:Drivers/STM32F4xx_HAL_Driver/Src/stm32f4xx_ll_usb.c ****       (void)USB_SetDevSpeed(USBx, USB_OTG_SPEED_HIGH_IN_FULL);
 363:Drivers/STM32F4xx_HAL_Driver/Src/stm32f4xx_ll_usb.c ****     }
 364:Drivers/STM32F4xx_HAL_Driver/Src/stm32f4xx_ll_usb.c ****   }
 365:Drivers/STM32F4xx_HAL_Driver/Src/stm32f4xx_ll_usb.c ****   else
 366:Drivers/STM32F4xx_HAL_Driver/Src/stm32f4xx_ll_usb.c ****   {
 367:Drivers/STM32F4xx_HAL_Driver/Src/stm32f4xx_ll_usb.c ****     /* Set Core speed to Full speed mode */
 368:Drivers/STM32F4xx_HAL_Driver/Src/stm32f4xx_ll_usb.c ****     (void)USB_SetDevSpeed(USBx, USB_OTG_SPEED_FULL);
 369:Drivers/STM32F4xx_HAL_Driver/Src/stm32f4xx_ll_usb.c ****   }
 370:Drivers/STM32F4xx_HAL_Driver/Src/stm32f4xx_ll_usb.c **** 
 371:Drivers/STM32F4xx_HAL_Driver/Src/stm32f4xx_ll_usb.c ****   /* Flush the FIFOs */
 372:Drivers/STM32F4xx_HAL_Driver/Src/stm32f4xx_ll_usb.c ****   if (USB_FlushTxFifo(USBx, 0x10U) != HAL_OK) /* all Tx FIFOs */
ARM GAS  /tmp/ccfbcrWA.s 			page 8


 373:Drivers/STM32F4xx_HAL_Driver/Src/stm32f4xx_ll_usb.c ****   {
 374:Drivers/STM32F4xx_HAL_Driver/Src/stm32f4xx_ll_usb.c ****     ret = HAL_ERROR;
 375:Drivers/STM32F4xx_HAL_Driver/Src/stm32f4xx_ll_usb.c ****   }
 376:Drivers/STM32F4xx_HAL_Driver/Src/stm32f4xx_ll_usb.c **** 
 377:Drivers/STM32F4xx_HAL_Driver/Src/stm32f4xx_ll_usb.c ****   if (USB_FlushRxFifo(USBx) != HAL_OK)
 378:Drivers/STM32F4xx_HAL_Driver/Src/stm32f4xx_ll_usb.c ****   {
 379:Drivers/STM32F4xx_HAL_Driver/Src/stm32f4xx_ll_usb.c ****     ret = HAL_ERROR;
 380:Drivers/STM32F4xx_HAL_Driver/Src/stm32f4xx_ll_usb.c ****   }
 381:Drivers/STM32F4xx_HAL_Driver/Src/stm32f4xx_ll_usb.c **** 
 382:Drivers/STM32F4xx_HAL_Driver/Src/stm32f4xx_ll_usb.c ****   /* Clear all pending Device Interrupts */
 383:Drivers/STM32F4xx_HAL_Driver/Src/stm32f4xx_ll_usb.c ****   USBx_DEVICE->DIEPMSK = 0U;
 384:Drivers/STM32F4xx_HAL_Driver/Src/stm32f4xx_ll_usb.c ****   USBx_DEVICE->DOEPMSK = 0U;
 385:Drivers/STM32F4xx_HAL_Driver/Src/stm32f4xx_ll_usb.c ****   USBx_DEVICE->DAINTMSK = 0U;
 386:Drivers/STM32F4xx_HAL_Driver/Src/stm32f4xx_ll_usb.c **** 
 387:Drivers/STM32F4xx_HAL_Driver/Src/stm32f4xx_ll_usb.c ****   for (i = 0U; i < cfg.dev_endpoints; i++)
 388:Drivers/STM32F4xx_HAL_Driver/Src/stm32f4xx_ll_usb.c ****   {
 389:Drivers/STM32F4xx_HAL_Driver/Src/stm32f4xx_ll_usb.c ****     if ((USBx_INEP(i)->DIEPCTL & USB_OTG_DIEPCTL_EPENA) == USB_OTG_DIEPCTL_EPENA)
 390:Drivers/STM32F4xx_HAL_Driver/Src/stm32f4xx_ll_usb.c ****     {
 391:Drivers/STM32F4xx_HAL_Driver/Src/stm32f4xx_ll_usb.c ****       if (i == 0U)
 392:Drivers/STM32F4xx_HAL_Driver/Src/stm32f4xx_ll_usb.c ****       {
 393:Drivers/STM32F4xx_HAL_Driver/Src/stm32f4xx_ll_usb.c ****         USBx_INEP(i)->DIEPCTL = USB_OTG_DIEPCTL_SNAK;
 394:Drivers/STM32F4xx_HAL_Driver/Src/stm32f4xx_ll_usb.c ****       }
 395:Drivers/STM32F4xx_HAL_Driver/Src/stm32f4xx_ll_usb.c ****       else
 396:Drivers/STM32F4xx_HAL_Driver/Src/stm32f4xx_ll_usb.c ****       {
 397:Drivers/STM32F4xx_HAL_Driver/Src/stm32f4xx_ll_usb.c ****         USBx_INEP(i)->DIEPCTL = USB_OTG_DIEPCTL_EPDIS | USB_OTG_DIEPCTL_SNAK;
 398:Drivers/STM32F4xx_HAL_Driver/Src/stm32f4xx_ll_usb.c ****       }
 399:Drivers/STM32F4xx_HAL_Driver/Src/stm32f4xx_ll_usb.c ****     }
 400:Drivers/STM32F4xx_HAL_Driver/Src/stm32f4xx_ll_usb.c ****     else
 401:Drivers/STM32F4xx_HAL_Driver/Src/stm32f4xx_ll_usb.c ****     {
 402:Drivers/STM32F4xx_HAL_Driver/Src/stm32f4xx_ll_usb.c ****       USBx_INEP(i)->DIEPCTL = 0U;
 403:Drivers/STM32F4xx_HAL_Driver/Src/stm32f4xx_ll_usb.c ****     }
 404:Drivers/STM32F4xx_HAL_Driver/Src/stm32f4xx_ll_usb.c **** 
 405:Drivers/STM32F4xx_HAL_Driver/Src/stm32f4xx_ll_usb.c ****     USBx_INEP(i)->DIEPTSIZ = 0U;
 406:Drivers/STM32F4xx_HAL_Driver/Src/stm32f4xx_ll_usb.c ****     USBx_INEP(i)->DIEPINT  = 0xFB7FU;
 407:Drivers/STM32F4xx_HAL_Driver/Src/stm32f4xx_ll_usb.c ****   }
 408:Drivers/STM32F4xx_HAL_Driver/Src/stm32f4xx_ll_usb.c **** 
 409:Drivers/STM32F4xx_HAL_Driver/Src/stm32f4xx_ll_usb.c ****   for (i = 0U; i < cfg.dev_endpoints; i++)
 410:Drivers/STM32F4xx_HAL_Driver/Src/stm32f4xx_ll_usb.c ****   {
 411:Drivers/STM32F4xx_HAL_Driver/Src/stm32f4xx_ll_usb.c ****     if ((USBx_OUTEP(i)->DOEPCTL & USB_OTG_DOEPCTL_EPENA) == USB_OTG_DOEPCTL_EPENA)
 412:Drivers/STM32F4xx_HAL_Driver/Src/stm32f4xx_ll_usb.c ****     {
 413:Drivers/STM32F4xx_HAL_Driver/Src/stm32f4xx_ll_usb.c ****       if (i == 0U)
 414:Drivers/STM32F4xx_HAL_Driver/Src/stm32f4xx_ll_usb.c ****       {
 415:Drivers/STM32F4xx_HAL_Driver/Src/stm32f4xx_ll_usb.c ****         USBx_OUTEP(i)->DOEPCTL = USB_OTG_DOEPCTL_SNAK;
 416:Drivers/STM32F4xx_HAL_Driver/Src/stm32f4xx_ll_usb.c ****       }
 417:Drivers/STM32F4xx_HAL_Driver/Src/stm32f4xx_ll_usb.c ****       else
 418:Drivers/STM32F4xx_HAL_Driver/Src/stm32f4xx_ll_usb.c ****       {
 419:Drivers/STM32F4xx_HAL_Driver/Src/stm32f4xx_ll_usb.c ****         USBx_OUTEP(i)->DOEPCTL = USB_OTG_DOEPCTL_EPDIS | USB_OTG_DOEPCTL_SNAK;
 420:Drivers/STM32F4xx_HAL_Driver/Src/stm32f4xx_ll_usb.c ****       }
 421:Drivers/STM32F4xx_HAL_Driver/Src/stm32f4xx_ll_usb.c ****     }
 422:Drivers/STM32F4xx_HAL_Driver/Src/stm32f4xx_ll_usb.c ****     else
 423:Drivers/STM32F4xx_HAL_Driver/Src/stm32f4xx_ll_usb.c ****     {
 424:Drivers/STM32F4xx_HAL_Driver/Src/stm32f4xx_ll_usb.c ****       USBx_OUTEP(i)->DOEPCTL = 0U;
 425:Drivers/STM32F4xx_HAL_Driver/Src/stm32f4xx_ll_usb.c ****     }
 426:Drivers/STM32F4xx_HAL_Driver/Src/stm32f4xx_ll_usb.c **** 
 427:Drivers/STM32F4xx_HAL_Driver/Src/stm32f4xx_ll_usb.c ****     USBx_OUTEP(i)->DOEPTSIZ = 0U;
 428:Drivers/STM32F4xx_HAL_Driver/Src/stm32f4xx_ll_usb.c ****     USBx_OUTEP(i)->DOEPINT  = 0xFB7FU;
 429:Drivers/STM32F4xx_HAL_Driver/Src/stm32f4xx_ll_usb.c ****   }
ARM GAS  /tmp/ccfbcrWA.s 			page 9


 430:Drivers/STM32F4xx_HAL_Driver/Src/stm32f4xx_ll_usb.c **** 
 431:Drivers/STM32F4xx_HAL_Driver/Src/stm32f4xx_ll_usb.c ****   USBx_DEVICE->DIEPMSK &= ~(USB_OTG_DIEPMSK_TXFURM);
 432:Drivers/STM32F4xx_HAL_Driver/Src/stm32f4xx_ll_usb.c **** 
 433:Drivers/STM32F4xx_HAL_Driver/Src/stm32f4xx_ll_usb.c ****   /* Disable all interrupts. */
 434:Drivers/STM32F4xx_HAL_Driver/Src/stm32f4xx_ll_usb.c ****   USBx->GINTMSK = 0U;
 435:Drivers/STM32F4xx_HAL_Driver/Src/stm32f4xx_ll_usb.c **** 
 436:Drivers/STM32F4xx_HAL_Driver/Src/stm32f4xx_ll_usb.c ****   /* Clear any pending interrupts */
 437:Drivers/STM32F4xx_HAL_Driver/Src/stm32f4xx_ll_usb.c ****   USBx->GINTSTS = 0xBFFFFFFFU;
 438:Drivers/STM32F4xx_HAL_Driver/Src/stm32f4xx_ll_usb.c **** 
 439:Drivers/STM32F4xx_HAL_Driver/Src/stm32f4xx_ll_usb.c ****   /* Enable the common interrupts */
 440:Drivers/STM32F4xx_HAL_Driver/Src/stm32f4xx_ll_usb.c ****   if (cfg.dma_enable == 0U)
 441:Drivers/STM32F4xx_HAL_Driver/Src/stm32f4xx_ll_usb.c ****   {
 442:Drivers/STM32F4xx_HAL_Driver/Src/stm32f4xx_ll_usb.c ****     USBx->GINTMSK |= USB_OTG_GINTMSK_RXFLVLM;
 443:Drivers/STM32F4xx_HAL_Driver/Src/stm32f4xx_ll_usb.c ****   }
 444:Drivers/STM32F4xx_HAL_Driver/Src/stm32f4xx_ll_usb.c **** 
 445:Drivers/STM32F4xx_HAL_Driver/Src/stm32f4xx_ll_usb.c ****   /* Enable interrupts matching to the Device mode ONLY */
 446:Drivers/STM32F4xx_HAL_Driver/Src/stm32f4xx_ll_usb.c ****   USBx->GINTMSK |= USB_OTG_GINTMSK_USBSUSPM | USB_OTG_GINTMSK_USBRST |
 447:Drivers/STM32F4xx_HAL_Driver/Src/stm32f4xx_ll_usb.c ****                    USB_OTG_GINTMSK_ENUMDNEM | USB_OTG_GINTMSK_IEPINT |
 448:Drivers/STM32F4xx_HAL_Driver/Src/stm32f4xx_ll_usb.c ****                    USB_OTG_GINTMSK_OEPINT   | USB_OTG_GINTMSK_IISOIXFRM |
 449:Drivers/STM32F4xx_HAL_Driver/Src/stm32f4xx_ll_usb.c ****                    USB_OTG_GINTMSK_PXFRM_IISOOXFRM | USB_OTG_GINTMSK_WUIM;
 450:Drivers/STM32F4xx_HAL_Driver/Src/stm32f4xx_ll_usb.c **** 
 451:Drivers/STM32F4xx_HAL_Driver/Src/stm32f4xx_ll_usb.c ****   if (cfg.Sof_enable != 0U)
 452:Drivers/STM32F4xx_HAL_Driver/Src/stm32f4xx_ll_usb.c ****   {
 453:Drivers/STM32F4xx_HAL_Driver/Src/stm32f4xx_ll_usb.c ****     USBx->GINTMSK |= USB_OTG_GINTMSK_SOFM;
 454:Drivers/STM32F4xx_HAL_Driver/Src/stm32f4xx_ll_usb.c ****   }
 455:Drivers/STM32F4xx_HAL_Driver/Src/stm32f4xx_ll_usb.c **** 
 456:Drivers/STM32F4xx_HAL_Driver/Src/stm32f4xx_ll_usb.c ****   if (cfg.vbus_sensing_enable == 1U)
 457:Drivers/STM32F4xx_HAL_Driver/Src/stm32f4xx_ll_usb.c ****   {
 458:Drivers/STM32F4xx_HAL_Driver/Src/stm32f4xx_ll_usb.c ****     USBx->GINTMSK |= (USB_OTG_GINTMSK_SRQIM | USB_OTG_GINTMSK_OTGINT);
 459:Drivers/STM32F4xx_HAL_Driver/Src/stm32f4xx_ll_usb.c ****   }
 460:Drivers/STM32F4xx_HAL_Driver/Src/stm32f4xx_ll_usb.c **** 
 461:Drivers/STM32F4xx_HAL_Driver/Src/stm32f4xx_ll_usb.c ****   return ret;
 462:Drivers/STM32F4xx_HAL_Driver/Src/stm32f4xx_ll_usb.c **** }
 463:Drivers/STM32F4xx_HAL_Driver/Src/stm32f4xx_ll_usb.c **** 
 464:Drivers/STM32F4xx_HAL_Driver/Src/stm32f4xx_ll_usb.c **** /**
 465:Drivers/STM32F4xx_HAL_Driver/Src/stm32f4xx_ll_usb.c ****   * @brief  USB_FlushTxFifo Flush a Tx FIFO
 466:Drivers/STM32F4xx_HAL_Driver/Src/stm32f4xx_ll_usb.c ****   * @param  USBx  Selected device
 467:Drivers/STM32F4xx_HAL_Driver/Src/stm32f4xx_ll_usb.c ****   * @param  num  FIFO number
 468:Drivers/STM32F4xx_HAL_Driver/Src/stm32f4xx_ll_usb.c ****   *         This parameter can be a value from 1 to 15
 469:Drivers/STM32F4xx_HAL_Driver/Src/stm32f4xx_ll_usb.c ****             15 means Flush all Tx FIFOs
 470:Drivers/STM32F4xx_HAL_Driver/Src/stm32f4xx_ll_usb.c ****   * @retval HAL status
 471:Drivers/STM32F4xx_HAL_Driver/Src/stm32f4xx_ll_usb.c ****   */
 472:Drivers/STM32F4xx_HAL_Driver/Src/stm32f4xx_ll_usb.c **** HAL_StatusTypeDef USB_FlushTxFifo(USB_OTG_GlobalTypeDef *USBx, uint32_t num)
 473:Drivers/STM32F4xx_HAL_Driver/Src/stm32f4xx_ll_usb.c **** {
 474:Drivers/STM32F4xx_HAL_Driver/Src/stm32f4xx_ll_usb.c ****   __IO uint32_t count = 0U;
 475:Drivers/STM32F4xx_HAL_Driver/Src/stm32f4xx_ll_usb.c **** 
 476:Drivers/STM32F4xx_HAL_Driver/Src/stm32f4xx_ll_usb.c ****   /* Wait for AHB master IDLE state. */
 477:Drivers/STM32F4xx_HAL_Driver/Src/stm32f4xx_ll_usb.c ****   do
 478:Drivers/STM32F4xx_HAL_Driver/Src/stm32f4xx_ll_usb.c ****   {
 479:Drivers/STM32F4xx_HAL_Driver/Src/stm32f4xx_ll_usb.c ****     count++;
 480:Drivers/STM32F4xx_HAL_Driver/Src/stm32f4xx_ll_usb.c **** 
 481:Drivers/STM32F4xx_HAL_Driver/Src/stm32f4xx_ll_usb.c ****     if (count > 200000U)
 482:Drivers/STM32F4xx_HAL_Driver/Src/stm32f4xx_ll_usb.c ****     {
 483:Drivers/STM32F4xx_HAL_Driver/Src/stm32f4xx_ll_usb.c ****       return HAL_TIMEOUT;
 484:Drivers/STM32F4xx_HAL_Driver/Src/stm32f4xx_ll_usb.c ****     }
 485:Drivers/STM32F4xx_HAL_Driver/Src/stm32f4xx_ll_usb.c ****   } while ((USBx->GRSTCTL & USB_OTG_GRSTCTL_AHBIDL) == 0U);
 486:Drivers/STM32F4xx_HAL_Driver/Src/stm32f4xx_ll_usb.c **** 
ARM GAS  /tmp/ccfbcrWA.s 			page 10


 487:Drivers/STM32F4xx_HAL_Driver/Src/stm32f4xx_ll_usb.c ****   /* Flush TX Fifo */
 488:Drivers/STM32F4xx_HAL_Driver/Src/stm32f4xx_ll_usb.c ****   count = 0U;
 489:Drivers/STM32F4xx_HAL_Driver/Src/stm32f4xx_ll_usb.c ****   USBx->GRSTCTL = (USB_OTG_GRSTCTL_TXFFLSH | (num << 6));
 490:Drivers/STM32F4xx_HAL_Driver/Src/stm32f4xx_ll_usb.c **** 
 491:Drivers/STM32F4xx_HAL_Driver/Src/stm32f4xx_ll_usb.c ****   do
 492:Drivers/STM32F4xx_HAL_Driver/Src/stm32f4xx_ll_usb.c ****   {
 493:Drivers/STM32F4xx_HAL_Driver/Src/stm32f4xx_ll_usb.c ****     count++;
 494:Drivers/STM32F4xx_HAL_Driver/Src/stm32f4xx_ll_usb.c **** 
 495:Drivers/STM32F4xx_HAL_Driver/Src/stm32f4xx_ll_usb.c ****     if (count > 200000U)
 496:Drivers/STM32F4xx_HAL_Driver/Src/stm32f4xx_ll_usb.c ****     {
 497:Drivers/STM32F4xx_HAL_Driver/Src/stm32f4xx_ll_usb.c ****       return HAL_TIMEOUT;
 498:Drivers/STM32F4xx_HAL_Driver/Src/stm32f4xx_ll_usb.c ****     }
 499:Drivers/STM32F4xx_HAL_Driver/Src/stm32f4xx_ll_usb.c ****   } while ((USBx->GRSTCTL & USB_OTG_GRSTCTL_TXFFLSH) == USB_OTG_GRSTCTL_TXFFLSH);
 500:Drivers/STM32F4xx_HAL_Driver/Src/stm32f4xx_ll_usb.c **** 
 501:Drivers/STM32F4xx_HAL_Driver/Src/stm32f4xx_ll_usb.c ****   return HAL_OK;
 502:Drivers/STM32F4xx_HAL_Driver/Src/stm32f4xx_ll_usb.c **** }
 503:Drivers/STM32F4xx_HAL_Driver/Src/stm32f4xx_ll_usb.c **** 
 504:Drivers/STM32F4xx_HAL_Driver/Src/stm32f4xx_ll_usb.c **** /**
 505:Drivers/STM32F4xx_HAL_Driver/Src/stm32f4xx_ll_usb.c ****   * @brief  USB_FlushRxFifo  Flush Rx FIFO
 506:Drivers/STM32F4xx_HAL_Driver/Src/stm32f4xx_ll_usb.c ****   * @param  USBx  Selected device
 507:Drivers/STM32F4xx_HAL_Driver/Src/stm32f4xx_ll_usb.c ****   * @retval HAL status
 508:Drivers/STM32F4xx_HAL_Driver/Src/stm32f4xx_ll_usb.c ****   */
 509:Drivers/STM32F4xx_HAL_Driver/Src/stm32f4xx_ll_usb.c **** HAL_StatusTypeDef USB_FlushRxFifo(USB_OTG_GlobalTypeDef *USBx)
 510:Drivers/STM32F4xx_HAL_Driver/Src/stm32f4xx_ll_usb.c **** {
 511:Drivers/STM32F4xx_HAL_Driver/Src/stm32f4xx_ll_usb.c ****   __IO uint32_t count = 0U;
 512:Drivers/STM32F4xx_HAL_Driver/Src/stm32f4xx_ll_usb.c **** 
 513:Drivers/STM32F4xx_HAL_Driver/Src/stm32f4xx_ll_usb.c ****   /* Wait for AHB master IDLE state. */
 514:Drivers/STM32F4xx_HAL_Driver/Src/stm32f4xx_ll_usb.c ****   do
 515:Drivers/STM32F4xx_HAL_Driver/Src/stm32f4xx_ll_usb.c ****   {
 516:Drivers/STM32F4xx_HAL_Driver/Src/stm32f4xx_ll_usb.c ****     count++;
 517:Drivers/STM32F4xx_HAL_Driver/Src/stm32f4xx_ll_usb.c **** 
 518:Drivers/STM32F4xx_HAL_Driver/Src/stm32f4xx_ll_usb.c ****     if (count > 200000U)
 519:Drivers/STM32F4xx_HAL_Driver/Src/stm32f4xx_ll_usb.c ****     {
 520:Drivers/STM32F4xx_HAL_Driver/Src/stm32f4xx_ll_usb.c ****       return HAL_TIMEOUT;
 521:Drivers/STM32F4xx_HAL_Driver/Src/stm32f4xx_ll_usb.c ****     }
 522:Drivers/STM32F4xx_HAL_Driver/Src/stm32f4xx_ll_usb.c ****   } while ((USBx->GRSTCTL & USB_OTG_GRSTCTL_AHBIDL) == 0U);
 523:Drivers/STM32F4xx_HAL_Driver/Src/stm32f4xx_ll_usb.c **** 
 524:Drivers/STM32F4xx_HAL_Driver/Src/stm32f4xx_ll_usb.c ****   /* Flush RX Fifo */
 525:Drivers/STM32F4xx_HAL_Driver/Src/stm32f4xx_ll_usb.c ****   count = 0U;
 526:Drivers/STM32F4xx_HAL_Driver/Src/stm32f4xx_ll_usb.c ****   USBx->GRSTCTL = USB_OTG_GRSTCTL_RXFFLSH;
 527:Drivers/STM32F4xx_HAL_Driver/Src/stm32f4xx_ll_usb.c **** 
 528:Drivers/STM32F4xx_HAL_Driver/Src/stm32f4xx_ll_usb.c ****   do
 529:Drivers/STM32F4xx_HAL_Driver/Src/stm32f4xx_ll_usb.c ****   {
 530:Drivers/STM32F4xx_HAL_Driver/Src/stm32f4xx_ll_usb.c ****     count++;
 531:Drivers/STM32F4xx_HAL_Driver/Src/stm32f4xx_ll_usb.c **** 
 532:Drivers/STM32F4xx_HAL_Driver/Src/stm32f4xx_ll_usb.c ****     if (count > 200000U)
 533:Drivers/STM32F4xx_HAL_Driver/Src/stm32f4xx_ll_usb.c ****     {
 534:Drivers/STM32F4xx_HAL_Driver/Src/stm32f4xx_ll_usb.c ****       return HAL_TIMEOUT;
 535:Drivers/STM32F4xx_HAL_Driver/Src/stm32f4xx_ll_usb.c ****     }
 536:Drivers/STM32F4xx_HAL_Driver/Src/stm32f4xx_ll_usb.c ****   } while ((USBx->GRSTCTL & USB_OTG_GRSTCTL_RXFFLSH) == USB_OTG_GRSTCTL_RXFFLSH);
 537:Drivers/STM32F4xx_HAL_Driver/Src/stm32f4xx_ll_usb.c **** 
 538:Drivers/STM32F4xx_HAL_Driver/Src/stm32f4xx_ll_usb.c ****   return HAL_OK;
 539:Drivers/STM32F4xx_HAL_Driver/Src/stm32f4xx_ll_usb.c **** }
 540:Drivers/STM32F4xx_HAL_Driver/Src/stm32f4xx_ll_usb.c **** 
 541:Drivers/STM32F4xx_HAL_Driver/Src/stm32f4xx_ll_usb.c **** /**
 542:Drivers/STM32F4xx_HAL_Driver/Src/stm32f4xx_ll_usb.c ****   * @brief  USB_SetDevSpeed  Initializes the DevSpd field of DCFG register
 543:Drivers/STM32F4xx_HAL_Driver/Src/stm32f4xx_ll_usb.c ****   *         depending the PHY type and the enumeration speed of the device.
ARM GAS  /tmp/ccfbcrWA.s 			page 11


 544:Drivers/STM32F4xx_HAL_Driver/Src/stm32f4xx_ll_usb.c ****   * @param  USBx  Selected device
 545:Drivers/STM32F4xx_HAL_Driver/Src/stm32f4xx_ll_usb.c ****   * @param  speed  device speed
 546:Drivers/STM32F4xx_HAL_Driver/Src/stm32f4xx_ll_usb.c ****   *          This parameter can be one of these values:
 547:Drivers/STM32F4xx_HAL_Driver/Src/stm32f4xx_ll_usb.c ****   *            @arg USB_OTG_SPEED_HIGH: High speed mode
 548:Drivers/STM32F4xx_HAL_Driver/Src/stm32f4xx_ll_usb.c ****   *            @arg USB_OTG_SPEED_HIGH_IN_FULL: High speed core in Full Speed mode
 549:Drivers/STM32F4xx_HAL_Driver/Src/stm32f4xx_ll_usb.c ****   *            @arg USB_OTG_SPEED_FULL: Full speed mode
 550:Drivers/STM32F4xx_HAL_Driver/Src/stm32f4xx_ll_usb.c ****   * @retval  Hal status
 551:Drivers/STM32F4xx_HAL_Driver/Src/stm32f4xx_ll_usb.c ****   */
 552:Drivers/STM32F4xx_HAL_Driver/Src/stm32f4xx_ll_usb.c **** HAL_StatusTypeDef USB_SetDevSpeed(USB_OTG_GlobalTypeDef *USBx, uint8_t speed)
 553:Drivers/STM32F4xx_HAL_Driver/Src/stm32f4xx_ll_usb.c **** {
 554:Drivers/STM32F4xx_HAL_Driver/Src/stm32f4xx_ll_usb.c ****   uint32_t USBx_BASE = (uint32_t)USBx;
 555:Drivers/STM32F4xx_HAL_Driver/Src/stm32f4xx_ll_usb.c **** 
 556:Drivers/STM32F4xx_HAL_Driver/Src/stm32f4xx_ll_usb.c ****   USBx_DEVICE->DCFG |= speed;
 557:Drivers/STM32F4xx_HAL_Driver/Src/stm32f4xx_ll_usb.c ****   return HAL_OK;
 558:Drivers/STM32F4xx_HAL_Driver/Src/stm32f4xx_ll_usb.c **** }
 559:Drivers/STM32F4xx_HAL_Driver/Src/stm32f4xx_ll_usb.c **** 
 560:Drivers/STM32F4xx_HAL_Driver/Src/stm32f4xx_ll_usb.c **** /**
 561:Drivers/STM32F4xx_HAL_Driver/Src/stm32f4xx_ll_usb.c ****   * @brief  USB_GetDevSpeed  Return the Dev Speed
 562:Drivers/STM32F4xx_HAL_Driver/Src/stm32f4xx_ll_usb.c ****   * @param  USBx  Selected device
 563:Drivers/STM32F4xx_HAL_Driver/Src/stm32f4xx_ll_usb.c ****   * @retval speed  device speed
 564:Drivers/STM32F4xx_HAL_Driver/Src/stm32f4xx_ll_usb.c ****   *          This parameter can be one of these values:
 565:Drivers/STM32F4xx_HAL_Driver/Src/stm32f4xx_ll_usb.c ****   *            @arg USBD_HS_SPEED: High speed mode
 566:Drivers/STM32F4xx_HAL_Driver/Src/stm32f4xx_ll_usb.c ****   *            @arg USBD_FS_SPEED: Full speed mode
 567:Drivers/STM32F4xx_HAL_Driver/Src/stm32f4xx_ll_usb.c ****   */
 568:Drivers/STM32F4xx_HAL_Driver/Src/stm32f4xx_ll_usb.c **** uint8_t USB_GetDevSpeed(USB_OTG_GlobalTypeDef *USBx)
 569:Drivers/STM32F4xx_HAL_Driver/Src/stm32f4xx_ll_usb.c **** {
 570:Drivers/STM32F4xx_HAL_Driver/Src/stm32f4xx_ll_usb.c ****   uint32_t USBx_BASE = (uint32_t)USBx;
 571:Drivers/STM32F4xx_HAL_Driver/Src/stm32f4xx_ll_usb.c ****   uint8_t speed;
 572:Drivers/STM32F4xx_HAL_Driver/Src/stm32f4xx_ll_usb.c ****   uint32_t DevEnumSpeed = USBx_DEVICE->DSTS & USB_OTG_DSTS_ENUMSPD;
 573:Drivers/STM32F4xx_HAL_Driver/Src/stm32f4xx_ll_usb.c **** 
 574:Drivers/STM32F4xx_HAL_Driver/Src/stm32f4xx_ll_usb.c ****   if (DevEnumSpeed == DSTS_ENUMSPD_HS_PHY_30MHZ_OR_60MHZ)
 575:Drivers/STM32F4xx_HAL_Driver/Src/stm32f4xx_ll_usb.c ****   {
 576:Drivers/STM32F4xx_HAL_Driver/Src/stm32f4xx_ll_usb.c ****     speed = USBD_HS_SPEED;
 577:Drivers/STM32F4xx_HAL_Driver/Src/stm32f4xx_ll_usb.c ****   }
 578:Drivers/STM32F4xx_HAL_Driver/Src/stm32f4xx_ll_usb.c ****   else if ((DevEnumSpeed == DSTS_ENUMSPD_FS_PHY_30MHZ_OR_60MHZ) ||
 579:Drivers/STM32F4xx_HAL_Driver/Src/stm32f4xx_ll_usb.c ****            (DevEnumSpeed == DSTS_ENUMSPD_FS_PHY_48MHZ))
 580:Drivers/STM32F4xx_HAL_Driver/Src/stm32f4xx_ll_usb.c ****   {
 581:Drivers/STM32F4xx_HAL_Driver/Src/stm32f4xx_ll_usb.c ****     speed = USBD_FS_SPEED;
 582:Drivers/STM32F4xx_HAL_Driver/Src/stm32f4xx_ll_usb.c ****   }
 583:Drivers/STM32F4xx_HAL_Driver/Src/stm32f4xx_ll_usb.c ****   else
 584:Drivers/STM32F4xx_HAL_Driver/Src/stm32f4xx_ll_usb.c ****   {
 585:Drivers/STM32F4xx_HAL_Driver/Src/stm32f4xx_ll_usb.c ****     speed = 0xFU;
 586:Drivers/STM32F4xx_HAL_Driver/Src/stm32f4xx_ll_usb.c ****   }
 587:Drivers/STM32F4xx_HAL_Driver/Src/stm32f4xx_ll_usb.c **** 
 588:Drivers/STM32F4xx_HAL_Driver/Src/stm32f4xx_ll_usb.c ****   return speed;
 589:Drivers/STM32F4xx_HAL_Driver/Src/stm32f4xx_ll_usb.c **** }
 590:Drivers/STM32F4xx_HAL_Driver/Src/stm32f4xx_ll_usb.c **** 
 591:Drivers/STM32F4xx_HAL_Driver/Src/stm32f4xx_ll_usb.c **** /**
 592:Drivers/STM32F4xx_HAL_Driver/Src/stm32f4xx_ll_usb.c ****   * @brief  Activate and configure an endpoint
 593:Drivers/STM32F4xx_HAL_Driver/Src/stm32f4xx_ll_usb.c ****   * @param  USBx  Selected device
 594:Drivers/STM32F4xx_HAL_Driver/Src/stm32f4xx_ll_usb.c ****   * @param  ep pointer to endpoint structure
 595:Drivers/STM32F4xx_HAL_Driver/Src/stm32f4xx_ll_usb.c ****   * @retval HAL status
 596:Drivers/STM32F4xx_HAL_Driver/Src/stm32f4xx_ll_usb.c ****   */
 597:Drivers/STM32F4xx_HAL_Driver/Src/stm32f4xx_ll_usb.c **** HAL_StatusTypeDef USB_ActivateEndpoint(USB_OTG_GlobalTypeDef *USBx, USB_OTG_EPTypeDef *ep)
 598:Drivers/STM32F4xx_HAL_Driver/Src/stm32f4xx_ll_usb.c **** {
 599:Drivers/STM32F4xx_HAL_Driver/Src/stm32f4xx_ll_usb.c ****   uint32_t USBx_BASE = (uint32_t)USBx;
 600:Drivers/STM32F4xx_HAL_Driver/Src/stm32f4xx_ll_usb.c ****   uint32_t epnum = (uint32_t)ep->num;
ARM GAS  /tmp/ccfbcrWA.s 			page 12


 601:Drivers/STM32F4xx_HAL_Driver/Src/stm32f4xx_ll_usb.c **** 
 602:Drivers/STM32F4xx_HAL_Driver/Src/stm32f4xx_ll_usb.c ****   if (ep->is_in == 1U)
 603:Drivers/STM32F4xx_HAL_Driver/Src/stm32f4xx_ll_usb.c ****   {
 604:Drivers/STM32F4xx_HAL_Driver/Src/stm32f4xx_ll_usb.c ****     USBx_DEVICE->DAINTMSK |= USB_OTG_DAINTMSK_IEPM & (uint32_t)(1UL << (ep->num & EP_ADDR_MSK));
 605:Drivers/STM32F4xx_HAL_Driver/Src/stm32f4xx_ll_usb.c **** 
 606:Drivers/STM32F4xx_HAL_Driver/Src/stm32f4xx_ll_usb.c ****     if ((USBx_INEP(epnum)->DIEPCTL & USB_OTG_DIEPCTL_USBAEP) == 0U)
 607:Drivers/STM32F4xx_HAL_Driver/Src/stm32f4xx_ll_usb.c ****     {
 608:Drivers/STM32F4xx_HAL_Driver/Src/stm32f4xx_ll_usb.c ****       USBx_INEP(epnum)->DIEPCTL |= (ep->maxpacket & USB_OTG_DIEPCTL_MPSIZ) |
 609:Drivers/STM32F4xx_HAL_Driver/Src/stm32f4xx_ll_usb.c ****                                    ((uint32_t)ep->type << 18) | (epnum << 22) |
 610:Drivers/STM32F4xx_HAL_Driver/Src/stm32f4xx_ll_usb.c ****                                    USB_OTG_DIEPCTL_SD0PID_SEVNFRM |
 611:Drivers/STM32F4xx_HAL_Driver/Src/stm32f4xx_ll_usb.c ****                                    USB_OTG_DIEPCTL_USBAEP;
 612:Drivers/STM32F4xx_HAL_Driver/Src/stm32f4xx_ll_usb.c ****     }
 613:Drivers/STM32F4xx_HAL_Driver/Src/stm32f4xx_ll_usb.c ****   }
 614:Drivers/STM32F4xx_HAL_Driver/Src/stm32f4xx_ll_usb.c ****   else
 615:Drivers/STM32F4xx_HAL_Driver/Src/stm32f4xx_ll_usb.c ****   {
 616:Drivers/STM32F4xx_HAL_Driver/Src/stm32f4xx_ll_usb.c ****     USBx_DEVICE->DAINTMSK |= USB_OTG_DAINTMSK_OEPM & ((uint32_t)(1UL << (ep->num & EP_ADDR_MSK)) <<
 617:Drivers/STM32F4xx_HAL_Driver/Src/stm32f4xx_ll_usb.c **** 
 618:Drivers/STM32F4xx_HAL_Driver/Src/stm32f4xx_ll_usb.c ****     if (((USBx_OUTEP(epnum)->DOEPCTL) & USB_OTG_DOEPCTL_USBAEP) == 0U)
 619:Drivers/STM32F4xx_HAL_Driver/Src/stm32f4xx_ll_usb.c ****     {
 620:Drivers/STM32F4xx_HAL_Driver/Src/stm32f4xx_ll_usb.c ****       USBx_OUTEP(epnum)->DOEPCTL |= (ep->maxpacket & USB_OTG_DOEPCTL_MPSIZ) |
 621:Drivers/STM32F4xx_HAL_Driver/Src/stm32f4xx_ll_usb.c ****                                     ((uint32_t)ep->type << 18) |
 622:Drivers/STM32F4xx_HAL_Driver/Src/stm32f4xx_ll_usb.c ****                                     USB_OTG_DIEPCTL_SD0PID_SEVNFRM |
 623:Drivers/STM32F4xx_HAL_Driver/Src/stm32f4xx_ll_usb.c ****                                     USB_OTG_DOEPCTL_USBAEP;
 624:Drivers/STM32F4xx_HAL_Driver/Src/stm32f4xx_ll_usb.c ****     }
 625:Drivers/STM32F4xx_HAL_Driver/Src/stm32f4xx_ll_usb.c ****   }
 626:Drivers/STM32F4xx_HAL_Driver/Src/stm32f4xx_ll_usb.c ****   return HAL_OK;
 627:Drivers/STM32F4xx_HAL_Driver/Src/stm32f4xx_ll_usb.c **** }
 628:Drivers/STM32F4xx_HAL_Driver/Src/stm32f4xx_ll_usb.c **** 
 629:Drivers/STM32F4xx_HAL_Driver/Src/stm32f4xx_ll_usb.c **** /**
 630:Drivers/STM32F4xx_HAL_Driver/Src/stm32f4xx_ll_usb.c ****   * @brief  Activate and configure a dedicated endpoint
 631:Drivers/STM32F4xx_HAL_Driver/Src/stm32f4xx_ll_usb.c ****   * @param  USBx  Selected device
 632:Drivers/STM32F4xx_HAL_Driver/Src/stm32f4xx_ll_usb.c ****   * @param  ep pointer to endpoint structure
 633:Drivers/STM32F4xx_HAL_Driver/Src/stm32f4xx_ll_usb.c ****   * @retval HAL status
 634:Drivers/STM32F4xx_HAL_Driver/Src/stm32f4xx_ll_usb.c ****   */
 635:Drivers/STM32F4xx_HAL_Driver/Src/stm32f4xx_ll_usb.c **** HAL_StatusTypeDef USB_ActivateDedicatedEndpoint(USB_OTG_GlobalTypeDef *USBx, USB_OTG_EPTypeDef *ep)
 636:Drivers/STM32F4xx_HAL_Driver/Src/stm32f4xx_ll_usb.c **** {
 637:Drivers/STM32F4xx_HAL_Driver/Src/stm32f4xx_ll_usb.c ****   uint32_t USBx_BASE = (uint32_t)USBx;
 638:Drivers/STM32F4xx_HAL_Driver/Src/stm32f4xx_ll_usb.c ****   uint32_t epnum = (uint32_t)ep->num;
 639:Drivers/STM32F4xx_HAL_Driver/Src/stm32f4xx_ll_usb.c **** 
 640:Drivers/STM32F4xx_HAL_Driver/Src/stm32f4xx_ll_usb.c ****   /* Read DEPCTLn register */
 641:Drivers/STM32F4xx_HAL_Driver/Src/stm32f4xx_ll_usb.c ****   if (ep->is_in == 1U)
 642:Drivers/STM32F4xx_HAL_Driver/Src/stm32f4xx_ll_usb.c ****   {
 643:Drivers/STM32F4xx_HAL_Driver/Src/stm32f4xx_ll_usb.c ****     if (((USBx_INEP(epnum)->DIEPCTL) & USB_OTG_DIEPCTL_USBAEP) == 0U)
 644:Drivers/STM32F4xx_HAL_Driver/Src/stm32f4xx_ll_usb.c ****     {
 645:Drivers/STM32F4xx_HAL_Driver/Src/stm32f4xx_ll_usb.c ****       USBx_INEP(epnum)->DIEPCTL |= (ep->maxpacket & USB_OTG_DIEPCTL_MPSIZ) |
 646:Drivers/STM32F4xx_HAL_Driver/Src/stm32f4xx_ll_usb.c ****                                    ((uint32_t)ep->type << 18) | (epnum << 22) |
 647:Drivers/STM32F4xx_HAL_Driver/Src/stm32f4xx_ll_usb.c ****                                    USB_OTG_DIEPCTL_SD0PID_SEVNFRM |
 648:Drivers/STM32F4xx_HAL_Driver/Src/stm32f4xx_ll_usb.c ****                                    USB_OTG_DIEPCTL_USBAEP;
 649:Drivers/STM32F4xx_HAL_Driver/Src/stm32f4xx_ll_usb.c ****     }
 650:Drivers/STM32F4xx_HAL_Driver/Src/stm32f4xx_ll_usb.c **** 
 651:Drivers/STM32F4xx_HAL_Driver/Src/stm32f4xx_ll_usb.c ****     USBx_DEVICE->DEACHMSK |= USB_OTG_DAINTMSK_IEPM & (uint32_t)(1UL << (ep->num & EP_ADDR_MSK));
 652:Drivers/STM32F4xx_HAL_Driver/Src/stm32f4xx_ll_usb.c ****   }
 653:Drivers/STM32F4xx_HAL_Driver/Src/stm32f4xx_ll_usb.c ****   else
 654:Drivers/STM32F4xx_HAL_Driver/Src/stm32f4xx_ll_usb.c ****   {
 655:Drivers/STM32F4xx_HAL_Driver/Src/stm32f4xx_ll_usb.c ****     if (((USBx_OUTEP(epnum)->DOEPCTL) & USB_OTG_DOEPCTL_USBAEP) == 0U)
 656:Drivers/STM32F4xx_HAL_Driver/Src/stm32f4xx_ll_usb.c ****     {
 657:Drivers/STM32F4xx_HAL_Driver/Src/stm32f4xx_ll_usb.c ****       USBx_OUTEP(epnum)->DOEPCTL |= (ep->maxpacket & USB_OTG_DOEPCTL_MPSIZ) |
ARM GAS  /tmp/ccfbcrWA.s 			page 13


 658:Drivers/STM32F4xx_HAL_Driver/Src/stm32f4xx_ll_usb.c ****                                     ((uint32_t)ep->type << 18) | (epnum << 22) |
 659:Drivers/STM32F4xx_HAL_Driver/Src/stm32f4xx_ll_usb.c ****                                     USB_OTG_DOEPCTL_USBAEP;
 660:Drivers/STM32F4xx_HAL_Driver/Src/stm32f4xx_ll_usb.c ****     }
 661:Drivers/STM32F4xx_HAL_Driver/Src/stm32f4xx_ll_usb.c **** 
 662:Drivers/STM32F4xx_HAL_Driver/Src/stm32f4xx_ll_usb.c ****     USBx_DEVICE->DEACHMSK |= USB_OTG_DAINTMSK_OEPM & ((uint32_t)(1UL << (ep->num & EP_ADDR_MSK)) <<
 663:Drivers/STM32F4xx_HAL_Driver/Src/stm32f4xx_ll_usb.c ****   }
 664:Drivers/STM32F4xx_HAL_Driver/Src/stm32f4xx_ll_usb.c **** 
 665:Drivers/STM32F4xx_HAL_Driver/Src/stm32f4xx_ll_usb.c ****   return HAL_OK;
 666:Drivers/STM32F4xx_HAL_Driver/Src/stm32f4xx_ll_usb.c **** }
 667:Drivers/STM32F4xx_HAL_Driver/Src/stm32f4xx_ll_usb.c **** 
 668:Drivers/STM32F4xx_HAL_Driver/Src/stm32f4xx_ll_usb.c **** /**
 669:Drivers/STM32F4xx_HAL_Driver/Src/stm32f4xx_ll_usb.c ****   * @brief  De-activate and de-initialize an endpoint
 670:Drivers/STM32F4xx_HAL_Driver/Src/stm32f4xx_ll_usb.c ****   * @param  USBx  Selected device
 671:Drivers/STM32F4xx_HAL_Driver/Src/stm32f4xx_ll_usb.c ****   * @param  ep pointer to endpoint structure
 672:Drivers/STM32F4xx_HAL_Driver/Src/stm32f4xx_ll_usb.c ****   * @retval HAL status
 673:Drivers/STM32F4xx_HAL_Driver/Src/stm32f4xx_ll_usb.c ****   */
 674:Drivers/STM32F4xx_HAL_Driver/Src/stm32f4xx_ll_usb.c **** HAL_StatusTypeDef USB_DeactivateEndpoint(USB_OTG_GlobalTypeDef *USBx, USB_OTG_EPTypeDef *ep)
 675:Drivers/STM32F4xx_HAL_Driver/Src/stm32f4xx_ll_usb.c **** {
 676:Drivers/STM32F4xx_HAL_Driver/Src/stm32f4xx_ll_usb.c ****   uint32_t USBx_BASE = (uint32_t)USBx;
 677:Drivers/STM32F4xx_HAL_Driver/Src/stm32f4xx_ll_usb.c ****   uint32_t epnum = (uint32_t)ep->num;
 678:Drivers/STM32F4xx_HAL_Driver/Src/stm32f4xx_ll_usb.c **** 
 679:Drivers/STM32F4xx_HAL_Driver/Src/stm32f4xx_ll_usb.c ****   /* Read DEPCTLn register */
 680:Drivers/STM32F4xx_HAL_Driver/Src/stm32f4xx_ll_usb.c ****   if (ep->is_in == 1U)
 681:Drivers/STM32F4xx_HAL_Driver/Src/stm32f4xx_ll_usb.c ****   {
 682:Drivers/STM32F4xx_HAL_Driver/Src/stm32f4xx_ll_usb.c ****     if ((USBx_INEP(epnum)->DIEPCTL & USB_OTG_DIEPCTL_EPENA) == USB_OTG_DIEPCTL_EPENA)
 683:Drivers/STM32F4xx_HAL_Driver/Src/stm32f4xx_ll_usb.c ****     {
 684:Drivers/STM32F4xx_HAL_Driver/Src/stm32f4xx_ll_usb.c ****       USBx_INEP(epnum)->DIEPCTL |= USB_OTG_DIEPCTL_SNAK;
 685:Drivers/STM32F4xx_HAL_Driver/Src/stm32f4xx_ll_usb.c ****       USBx_INEP(epnum)->DIEPCTL |= USB_OTG_DIEPCTL_EPDIS;
 686:Drivers/STM32F4xx_HAL_Driver/Src/stm32f4xx_ll_usb.c ****     }
 687:Drivers/STM32F4xx_HAL_Driver/Src/stm32f4xx_ll_usb.c **** 
 688:Drivers/STM32F4xx_HAL_Driver/Src/stm32f4xx_ll_usb.c ****     USBx_DEVICE->DEACHMSK &= ~(USB_OTG_DAINTMSK_IEPM & (uint32_t)(1UL << (ep->num & EP_ADDR_MSK)));
 689:Drivers/STM32F4xx_HAL_Driver/Src/stm32f4xx_ll_usb.c ****     USBx_DEVICE->DAINTMSK &= ~(USB_OTG_DAINTMSK_IEPM & (uint32_t)(1UL << (ep->num & EP_ADDR_MSK)));
 690:Drivers/STM32F4xx_HAL_Driver/Src/stm32f4xx_ll_usb.c ****     USBx_INEP(epnum)->DIEPCTL &= ~(USB_OTG_DIEPCTL_USBAEP |
 691:Drivers/STM32F4xx_HAL_Driver/Src/stm32f4xx_ll_usb.c ****                                    USB_OTG_DIEPCTL_MPSIZ |
 692:Drivers/STM32F4xx_HAL_Driver/Src/stm32f4xx_ll_usb.c ****                                    USB_OTG_DIEPCTL_TXFNUM |
 693:Drivers/STM32F4xx_HAL_Driver/Src/stm32f4xx_ll_usb.c ****                                    USB_OTG_DIEPCTL_SD0PID_SEVNFRM |
 694:Drivers/STM32F4xx_HAL_Driver/Src/stm32f4xx_ll_usb.c ****                                    USB_OTG_DIEPCTL_EPTYP);
 695:Drivers/STM32F4xx_HAL_Driver/Src/stm32f4xx_ll_usb.c ****   }
 696:Drivers/STM32F4xx_HAL_Driver/Src/stm32f4xx_ll_usb.c ****   else
 697:Drivers/STM32F4xx_HAL_Driver/Src/stm32f4xx_ll_usb.c ****   {
 698:Drivers/STM32F4xx_HAL_Driver/Src/stm32f4xx_ll_usb.c ****     if ((USBx_OUTEP(epnum)->DOEPCTL & USB_OTG_DOEPCTL_EPENA) == USB_OTG_DOEPCTL_EPENA)
 699:Drivers/STM32F4xx_HAL_Driver/Src/stm32f4xx_ll_usb.c ****     {
 700:Drivers/STM32F4xx_HAL_Driver/Src/stm32f4xx_ll_usb.c ****       USBx_OUTEP(epnum)->DOEPCTL |= USB_OTG_DOEPCTL_SNAK;
 701:Drivers/STM32F4xx_HAL_Driver/Src/stm32f4xx_ll_usb.c ****       USBx_OUTEP(epnum)->DOEPCTL |= USB_OTG_DOEPCTL_EPDIS;
 702:Drivers/STM32F4xx_HAL_Driver/Src/stm32f4xx_ll_usb.c ****     }
 703:Drivers/STM32F4xx_HAL_Driver/Src/stm32f4xx_ll_usb.c **** 
 704:Drivers/STM32F4xx_HAL_Driver/Src/stm32f4xx_ll_usb.c ****     USBx_DEVICE->DEACHMSK &= ~(USB_OTG_DAINTMSK_OEPM & ((uint32_t)(1UL << (ep->num & EP_ADDR_MSK)) 
 705:Drivers/STM32F4xx_HAL_Driver/Src/stm32f4xx_ll_usb.c ****     USBx_DEVICE->DAINTMSK &= ~(USB_OTG_DAINTMSK_OEPM & ((uint32_t)(1UL << (ep->num & EP_ADDR_MSK)) 
 706:Drivers/STM32F4xx_HAL_Driver/Src/stm32f4xx_ll_usb.c ****     USBx_OUTEP(epnum)->DOEPCTL &= ~(USB_OTG_DOEPCTL_USBAEP |
 707:Drivers/STM32F4xx_HAL_Driver/Src/stm32f4xx_ll_usb.c ****                                     USB_OTG_DOEPCTL_MPSIZ |
 708:Drivers/STM32F4xx_HAL_Driver/Src/stm32f4xx_ll_usb.c ****                                     USB_OTG_DOEPCTL_SD0PID_SEVNFRM |
 709:Drivers/STM32F4xx_HAL_Driver/Src/stm32f4xx_ll_usb.c ****                                     USB_OTG_DOEPCTL_EPTYP);
 710:Drivers/STM32F4xx_HAL_Driver/Src/stm32f4xx_ll_usb.c ****   }
 711:Drivers/STM32F4xx_HAL_Driver/Src/stm32f4xx_ll_usb.c **** 
 712:Drivers/STM32F4xx_HAL_Driver/Src/stm32f4xx_ll_usb.c ****   return HAL_OK;
 713:Drivers/STM32F4xx_HAL_Driver/Src/stm32f4xx_ll_usb.c **** }
 714:Drivers/STM32F4xx_HAL_Driver/Src/stm32f4xx_ll_usb.c **** 
ARM GAS  /tmp/ccfbcrWA.s 			page 14


 715:Drivers/STM32F4xx_HAL_Driver/Src/stm32f4xx_ll_usb.c **** /**
 716:Drivers/STM32F4xx_HAL_Driver/Src/stm32f4xx_ll_usb.c ****   * @brief  De-activate and de-initialize a dedicated endpoint
 717:Drivers/STM32F4xx_HAL_Driver/Src/stm32f4xx_ll_usb.c ****   * @param  USBx  Selected device
 718:Drivers/STM32F4xx_HAL_Driver/Src/stm32f4xx_ll_usb.c ****   * @param  ep pointer to endpoint structure
 719:Drivers/STM32F4xx_HAL_Driver/Src/stm32f4xx_ll_usb.c ****   * @retval HAL status
 720:Drivers/STM32F4xx_HAL_Driver/Src/stm32f4xx_ll_usb.c ****   */
 721:Drivers/STM32F4xx_HAL_Driver/Src/stm32f4xx_ll_usb.c **** HAL_StatusTypeDef USB_DeactivateDedicatedEndpoint(USB_OTG_GlobalTypeDef *USBx, USB_OTG_EPTypeDef *e
 722:Drivers/STM32F4xx_HAL_Driver/Src/stm32f4xx_ll_usb.c **** {
 723:Drivers/STM32F4xx_HAL_Driver/Src/stm32f4xx_ll_usb.c ****   uint32_t USBx_BASE = (uint32_t)USBx;
 724:Drivers/STM32F4xx_HAL_Driver/Src/stm32f4xx_ll_usb.c ****   uint32_t epnum = (uint32_t)ep->num;
 725:Drivers/STM32F4xx_HAL_Driver/Src/stm32f4xx_ll_usb.c **** 
 726:Drivers/STM32F4xx_HAL_Driver/Src/stm32f4xx_ll_usb.c ****   /* Read DEPCTLn register */
 727:Drivers/STM32F4xx_HAL_Driver/Src/stm32f4xx_ll_usb.c ****   if (ep->is_in == 1U)
 728:Drivers/STM32F4xx_HAL_Driver/Src/stm32f4xx_ll_usb.c ****   {
 729:Drivers/STM32F4xx_HAL_Driver/Src/stm32f4xx_ll_usb.c ****     if ((USBx_INEP(epnum)->DIEPCTL & USB_OTG_DIEPCTL_EPENA) == USB_OTG_DIEPCTL_EPENA)
 730:Drivers/STM32F4xx_HAL_Driver/Src/stm32f4xx_ll_usb.c ****     {
 731:Drivers/STM32F4xx_HAL_Driver/Src/stm32f4xx_ll_usb.c ****       USBx_INEP(epnum)->DIEPCTL  |= USB_OTG_DIEPCTL_SNAK;
 732:Drivers/STM32F4xx_HAL_Driver/Src/stm32f4xx_ll_usb.c ****       USBx_INEP(epnum)->DIEPCTL  |= USB_OTG_DIEPCTL_EPDIS;
 733:Drivers/STM32F4xx_HAL_Driver/Src/stm32f4xx_ll_usb.c ****     }
 734:Drivers/STM32F4xx_HAL_Driver/Src/stm32f4xx_ll_usb.c **** 
 735:Drivers/STM32F4xx_HAL_Driver/Src/stm32f4xx_ll_usb.c ****     USBx_INEP(epnum)->DIEPCTL &= ~ USB_OTG_DIEPCTL_USBAEP;
 736:Drivers/STM32F4xx_HAL_Driver/Src/stm32f4xx_ll_usb.c ****     USBx_DEVICE->DAINTMSK &= ~(USB_OTG_DAINTMSK_IEPM & (uint32_t)(1UL << (ep->num & EP_ADDR_MSK)));
 737:Drivers/STM32F4xx_HAL_Driver/Src/stm32f4xx_ll_usb.c ****   }
 738:Drivers/STM32F4xx_HAL_Driver/Src/stm32f4xx_ll_usb.c ****   else
 739:Drivers/STM32F4xx_HAL_Driver/Src/stm32f4xx_ll_usb.c ****   {
 740:Drivers/STM32F4xx_HAL_Driver/Src/stm32f4xx_ll_usb.c ****     if ((USBx_OUTEP(epnum)->DOEPCTL & USB_OTG_DOEPCTL_EPENA) == USB_OTG_DOEPCTL_EPENA)
 741:Drivers/STM32F4xx_HAL_Driver/Src/stm32f4xx_ll_usb.c ****     {
 742:Drivers/STM32F4xx_HAL_Driver/Src/stm32f4xx_ll_usb.c ****       USBx_OUTEP(epnum)->DOEPCTL  |= USB_OTG_DOEPCTL_SNAK;
 743:Drivers/STM32F4xx_HAL_Driver/Src/stm32f4xx_ll_usb.c ****       USBx_OUTEP(epnum)->DOEPCTL  |= USB_OTG_DOEPCTL_EPDIS;
 744:Drivers/STM32F4xx_HAL_Driver/Src/stm32f4xx_ll_usb.c ****     }
 745:Drivers/STM32F4xx_HAL_Driver/Src/stm32f4xx_ll_usb.c **** 
 746:Drivers/STM32F4xx_HAL_Driver/Src/stm32f4xx_ll_usb.c ****     USBx_OUTEP(epnum)->DOEPCTL &= ~USB_OTG_DOEPCTL_USBAEP;
 747:Drivers/STM32F4xx_HAL_Driver/Src/stm32f4xx_ll_usb.c ****     USBx_DEVICE->DAINTMSK &= ~(USB_OTG_DAINTMSK_OEPM & ((uint32_t)(1UL << (ep->num & EP_ADDR_MSK)) 
 748:Drivers/STM32F4xx_HAL_Driver/Src/stm32f4xx_ll_usb.c ****   }
 749:Drivers/STM32F4xx_HAL_Driver/Src/stm32f4xx_ll_usb.c **** 
 750:Drivers/STM32F4xx_HAL_Driver/Src/stm32f4xx_ll_usb.c ****   return HAL_OK;
 751:Drivers/STM32F4xx_HAL_Driver/Src/stm32f4xx_ll_usb.c **** }
 752:Drivers/STM32F4xx_HAL_Driver/Src/stm32f4xx_ll_usb.c **** 
 753:Drivers/STM32F4xx_HAL_Driver/Src/stm32f4xx_ll_usb.c **** /**
 754:Drivers/STM32F4xx_HAL_Driver/Src/stm32f4xx_ll_usb.c ****   * @brief  USB_EPStartXfer : setup and starts a transfer over an EP
 755:Drivers/STM32F4xx_HAL_Driver/Src/stm32f4xx_ll_usb.c ****   * @param  USBx  Selected device
 756:Drivers/STM32F4xx_HAL_Driver/Src/stm32f4xx_ll_usb.c ****   * @param  ep pointer to endpoint structure
 757:Drivers/STM32F4xx_HAL_Driver/Src/stm32f4xx_ll_usb.c ****   * @param  dma USB dma enabled or disabled
 758:Drivers/STM32F4xx_HAL_Driver/Src/stm32f4xx_ll_usb.c ****   *          This parameter can be one of these values:
 759:Drivers/STM32F4xx_HAL_Driver/Src/stm32f4xx_ll_usb.c ****   *           0 : DMA feature not used
 760:Drivers/STM32F4xx_HAL_Driver/Src/stm32f4xx_ll_usb.c ****   *           1 : DMA feature used
 761:Drivers/STM32F4xx_HAL_Driver/Src/stm32f4xx_ll_usb.c ****   * @retval HAL status
 762:Drivers/STM32F4xx_HAL_Driver/Src/stm32f4xx_ll_usb.c ****   */
 763:Drivers/STM32F4xx_HAL_Driver/Src/stm32f4xx_ll_usb.c **** HAL_StatusTypeDef USB_EPStartXfer(USB_OTG_GlobalTypeDef *USBx, USB_OTG_EPTypeDef *ep, uint8_t dma)
 764:Drivers/STM32F4xx_HAL_Driver/Src/stm32f4xx_ll_usb.c **** {
 765:Drivers/STM32F4xx_HAL_Driver/Src/stm32f4xx_ll_usb.c ****   uint32_t USBx_BASE = (uint32_t)USBx;
 766:Drivers/STM32F4xx_HAL_Driver/Src/stm32f4xx_ll_usb.c ****   uint32_t epnum = (uint32_t)ep->num;
 767:Drivers/STM32F4xx_HAL_Driver/Src/stm32f4xx_ll_usb.c ****   uint16_t pktcnt;
 768:Drivers/STM32F4xx_HAL_Driver/Src/stm32f4xx_ll_usb.c **** 
 769:Drivers/STM32F4xx_HAL_Driver/Src/stm32f4xx_ll_usb.c ****   /* IN endpoint */
 770:Drivers/STM32F4xx_HAL_Driver/Src/stm32f4xx_ll_usb.c ****   if (ep->is_in == 1U)
 771:Drivers/STM32F4xx_HAL_Driver/Src/stm32f4xx_ll_usb.c ****   {
ARM GAS  /tmp/ccfbcrWA.s 			page 15


 772:Drivers/STM32F4xx_HAL_Driver/Src/stm32f4xx_ll_usb.c ****     /* Zero Length Packet? */
 773:Drivers/STM32F4xx_HAL_Driver/Src/stm32f4xx_ll_usb.c ****     if (ep->xfer_len == 0U)
 774:Drivers/STM32F4xx_HAL_Driver/Src/stm32f4xx_ll_usb.c ****     {
 775:Drivers/STM32F4xx_HAL_Driver/Src/stm32f4xx_ll_usb.c ****       USBx_INEP(epnum)->DIEPTSIZ &= ~(USB_OTG_DIEPTSIZ_PKTCNT);
 776:Drivers/STM32F4xx_HAL_Driver/Src/stm32f4xx_ll_usb.c ****       USBx_INEP(epnum)->DIEPTSIZ |= (USB_OTG_DIEPTSIZ_PKTCNT & (1U << 19));
 777:Drivers/STM32F4xx_HAL_Driver/Src/stm32f4xx_ll_usb.c ****       USBx_INEP(epnum)->DIEPTSIZ &= ~(USB_OTG_DIEPTSIZ_XFRSIZ);
 778:Drivers/STM32F4xx_HAL_Driver/Src/stm32f4xx_ll_usb.c ****     }
 779:Drivers/STM32F4xx_HAL_Driver/Src/stm32f4xx_ll_usb.c ****     else
 780:Drivers/STM32F4xx_HAL_Driver/Src/stm32f4xx_ll_usb.c ****     {
 781:Drivers/STM32F4xx_HAL_Driver/Src/stm32f4xx_ll_usb.c ****       /* Program the transfer size and packet count
 782:Drivers/STM32F4xx_HAL_Driver/Src/stm32f4xx_ll_usb.c ****       * as follows: xfersize = N * maxpacket +
 783:Drivers/STM32F4xx_HAL_Driver/Src/stm32f4xx_ll_usb.c ****       * short_packet pktcnt = N + (short_packet
 784:Drivers/STM32F4xx_HAL_Driver/Src/stm32f4xx_ll_usb.c ****       * exist ? 1 : 0)
 785:Drivers/STM32F4xx_HAL_Driver/Src/stm32f4xx_ll_usb.c ****       */
 786:Drivers/STM32F4xx_HAL_Driver/Src/stm32f4xx_ll_usb.c ****       USBx_INEP(epnum)->DIEPTSIZ &= ~(USB_OTG_DIEPTSIZ_XFRSIZ);
 787:Drivers/STM32F4xx_HAL_Driver/Src/stm32f4xx_ll_usb.c ****       USBx_INEP(epnum)->DIEPTSIZ &= ~(USB_OTG_DIEPTSIZ_PKTCNT);
 788:Drivers/STM32F4xx_HAL_Driver/Src/stm32f4xx_ll_usb.c ****       USBx_INEP(epnum)->DIEPTSIZ |= (USB_OTG_DIEPTSIZ_PKTCNT &
 789:Drivers/STM32F4xx_HAL_Driver/Src/stm32f4xx_ll_usb.c ****                                      (((ep->xfer_len + ep->maxpacket - 1U) / ep->maxpacket) << 19))
 790:Drivers/STM32F4xx_HAL_Driver/Src/stm32f4xx_ll_usb.c **** 
 791:Drivers/STM32F4xx_HAL_Driver/Src/stm32f4xx_ll_usb.c ****       USBx_INEP(epnum)->DIEPTSIZ |= (USB_OTG_DIEPTSIZ_XFRSIZ & ep->xfer_len);
 792:Drivers/STM32F4xx_HAL_Driver/Src/stm32f4xx_ll_usb.c **** 
 793:Drivers/STM32F4xx_HAL_Driver/Src/stm32f4xx_ll_usb.c ****       if (ep->type == EP_TYPE_ISOC)
 794:Drivers/STM32F4xx_HAL_Driver/Src/stm32f4xx_ll_usb.c ****       {
 795:Drivers/STM32F4xx_HAL_Driver/Src/stm32f4xx_ll_usb.c ****         USBx_INEP(epnum)->DIEPTSIZ &= ~(USB_OTG_DIEPTSIZ_MULCNT);
 796:Drivers/STM32F4xx_HAL_Driver/Src/stm32f4xx_ll_usb.c ****         USBx_INEP(epnum)->DIEPTSIZ |= (USB_OTG_DIEPTSIZ_MULCNT & (1U << 29));
 797:Drivers/STM32F4xx_HAL_Driver/Src/stm32f4xx_ll_usb.c ****       }
 798:Drivers/STM32F4xx_HAL_Driver/Src/stm32f4xx_ll_usb.c ****     }
 799:Drivers/STM32F4xx_HAL_Driver/Src/stm32f4xx_ll_usb.c **** 
 800:Drivers/STM32F4xx_HAL_Driver/Src/stm32f4xx_ll_usb.c ****     if (dma == 1U)
 801:Drivers/STM32F4xx_HAL_Driver/Src/stm32f4xx_ll_usb.c ****     {
 802:Drivers/STM32F4xx_HAL_Driver/Src/stm32f4xx_ll_usb.c ****       if ((uint32_t)ep->dma_addr != 0U)
 803:Drivers/STM32F4xx_HAL_Driver/Src/stm32f4xx_ll_usb.c ****       {
 804:Drivers/STM32F4xx_HAL_Driver/Src/stm32f4xx_ll_usb.c ****         USBx_INEP(epnum)->DIEPDMA = (uint32_t)(ep->dma_addr);
 805:Drivers/STM32F4xx_HAL_Driver/Src/stm32f4xx_ll_usb.c ****       }
 806:Drivers/STM32F4xx_HAL_Driver/Src/stm32f4xx_ll_usb.c **** 
 807:Drivers/STM32F4xx_HAL_Driver/Src/stm32f4xx_ll_usb.c ****       if (ep->type == EP_TYPE_ISOC)
 808:Drivers/STM32F4xx_HAL_Driver/Src/stm32f4xx_ll_usb.c ****       {
 809:Drivers/STM32F4xx_HAL_Driver/Src/stm32f4xx_ll_usb.c ****         if ((USBx_DEVICE->DSTS & (1U << 8)) == 0U)
 810:Drivers/STM32F4xx_HAL_Driver/Src/stm32f4xx_ll_usb.c ****         {
 811:Drivers/STM32F4xx_HAL_Driver/Src/stm32f4xx_ll_usb.c ****           USBx_INEP(epnum)->DIEPCTL |= USB_OTG_DIEPCTL_SODDFRM;
 812:Drivers/STM32F4xx_HAL_Driver/Src/stm32f4xx_ll_usb.c ****         }
 813:Drivers/STM32F4xx_HAL_Driver/Src/stm32f4xx_ll_usb.c ****         else
 814:Drivers/STM32F4xx_HAL_Driver/Src/stm32f4xx_ll_usb.c ****         {
 815:Drivers/STM32F4xx_HAL_Driver/Src/stm32f4xx_ll_usb.c ****           USBx_INEP(epnum)->DIEPCTL |= USB_OTG_DIEPCTL_SD0PID_SEVNFRM;
 816:Drivers/STM32F4xx_HAL_Driver/Src/stm32f4xx_ll_usb.c ****         }
 817:Drivers/STM32F4xx_HAL_Driver/Src/stm32f4xx_ll_usb.c ****       }
 818:Drivers/STM32F4xx_HAL_Driver/Src/stm32f4xx_ll_usb.c **** 
 819:Drivers/STM32F4xx_HAL_Driver/Src/stm32f4xx_ll_usb.c ****       /* EP enable, IN data in FIFO */
 820:Drivers/STM32F4xx_HAL_Driver/Src/stm32f4xx_ll_usb.c ****       USBx_INEP(epnum)->DIEPCTL |= (USB_OTG_DIEPCTL_CNAK | USB_OTG_DIEPCTL_EPENA);
 821:Drivers/STM32F4xx_HAL_Driver/Src/stm32f4xx_ll_usb.c ****     }
 822:Drivers/STM32F4xx_HAL_Driver/Src/stm32f4xx_ll_usb.c ****     else
 823:Drivers/STM32F4xx_HAL_Driver/Src/stm32f4xx_ll_usb.c ****     {
 824:Drivers/STM32F4xx_HAL_Driver/Src/stm32f4xx_ll_usb.c ****       /* EP enable, IN data in FIFO */
 825:Drivers/STM32F4xx_HAL_Driver/Src/stm32f4xx_ll_usb.c ****       USBx_INEP(epnum)->DIEPCTL |= (USB_OTG_DIEPCTL_CNAK | USB_OTG_DIEPCTL_EPENA);
 826:Drivers/STM32F4xx_HAL_Driver/Src/stm32f4xx_ll_usb.c **** 
 827:Drivers/STM32F4xx_HAL_Driver/Src/stm32f4xx_ll_usb.c ****       if (ep->type != EP_TYPE_ISOC)
 828:Drivers/STM32F4xx_HAL_Driver/Src/stm32f4xx_ll_usb.c ****       {
ARM GAS  /tmp/ccfbcrWA.s 			page 16


 829:Drivers/STM32F4xx_HAL_Driver/Src/stm32f4xx_ll_usb.c ****         /* Enable the Tx FIFO Empty Interrupt for this EP */
 830:Drivers/STM32F4xx_HAL_Driver/Src/stm32f4xx_ll_usb.c ****         if (ep->xfer_len > 0U)
 831:Drivers/STM32F4xx_HAL_Driver/Src/stm32f4xx_ll_usb.c ****         {
 832:Drivers/STM32F4xx_HAL_Driver/Src/stm32f4xx_ll_usb.c ****           USBx_DEVICE->DIEPEMPMSK |= 1UL << (ep->num & EP_ADDR_MSK);
 833:Drivers/STM32F4xx_HAL_Driver/Src/stm32f4xx_ll_usb.c ****         }
 834:Drivers/STM32F4xx_HAL_Driver/Src/stm32f4xx_ll_usb.c ****       }
 835:Drivers/STM32F4xx_HAL_Driver/Src/stm32f4xx_ll_usb.c ****       else
 836:Drivers/STM32F4xx_HAL_Driver/Src/stm32f4xx_ll_usb.c ****       {
 837:Drivers/STM32F4xx_HAL_Driver/Src/stm32f4xx_ll_usb.c ****         if ((USBx_DEVICE->DSTS & (1U << 8)) == 0U)
 838:Drivers/STM32F4xx_HAL_Driver/Src/stm32f4xx_ll_usb.c ****         {
 839:Drivers/STM32F4xx_HAL_Driver/Src/stm32f4xx_ll_usb.c ****           USBx_INEP(epnum)->DIEPCTL |= USB_OTG_DIEPCTL_SODDFRM;
 840:Drivers/STM32F4xx_HAL_Driver/Src/stm32f4xx_ll_usb.c ****         }
 841:Drivers/STM32F4xx_HAL_Driver/Src/stm32f4xx_ll_usb.c ****         else
 842:Drivers/STM32F4xx_HAL_Driver/Src/stm32f4xx_ll_usb.c ****         {
 843:Drivers/STM32F4xx_HAL_Driver/Src/stm32f4xx_ll_usb.c ****           USBx_INEP(epnum)->DIEPCTL |= USB_OTG_DIEPCTL_SD0PID_SEVNFRM;
 844:Drivers/STM32F4xx_HAL_Driver/Src/stm32f4xx_ll_usb.c ****         }
 845:Drivers/STM32F4xx_HAL_Driver/Src/stm32f4xx_ll_usb.c **** 
 846:Drivers/STM32F4xx_HAL_Driver/Src/stm32f4xx_ll_usb.c ****         (void)USB_WritePacket(USBx, ep->xfer_buff, ep->num, (uint16_t)ep->xfer_len, dma);
 847:Drivers/STM32F4xx_HAL_Driver/Src/stm32f4xx_ll_usb.c ****       }
 848:Drivers/STM32F4xx_HAL_Driver/Src/stm32f4xx_ll_usb.c ****     }
 849:Drivers/STM32F4xx_HAL_Driver/Src/stm32f4xx_ll_usb.c ****   }
 850:Drivers/STM32F4xx_HAL_Driver/Src/stm32f4xx_ll_usb.c ****   else /* OUT endpoint */
 851:Drivers/STM32F4xx_HAL_Driver/Src/stm32f4xx_ll_usb.c ****   {
 852:Drivers/STM32F4xx_HAL_Driver/Src/stm32f4xx_ll_usb.c ****     /* Program the transfer size and packet count as follows:
 853:Drivers/STM32F4xx_HAL_Driver/Src/stm32f4xx_ll_usb.c ****     * pktcnt = N
 854:Drivers/STM32F4xx_HAL_Driver/Src/stm32f4xx_ll_usb.c ****     * xfersize = N * maxpacket
 855:Drivers/STM32F4xx_HAL_Driver/Src/stm32f4xx_ll_usb.c ****     */
 856:Drivers/STM32F4xx_HAL_Driver/Src/stm32f4xx_ll_usb.c ****     USBx_OUTEP(epnum)->DOEPTSIZ &= ~(USB_OTG_DOEPTSIZ_XFRSIZ);
 857:Drivers/STM32F4xx_HAL_Driver/Src/stm32f4xx_ll_usb.c ****     USBx_OUTEP(epnum)->DOEPTSIZ &= ~(USB_OTG_DOEPTSIZ_PKTCNT);
 858:Drivers/STM32F4xx_HAL_Driver/Src/stm32f4xx_ll_usb.c **** 
 859:Drivers/STM32F4xx_HAL_Driver/Src/stm32f4xx_ll_usb.c ****     if (ep->xfer_len == 0U)
 860:Drivers/STM32F4xx_HAL_Driver/Src/stm32f4xx_ll_usb.c ****     {
 861:Drivers/STM32F4xx_HAL_Driver/Src/stm32f4xx_ll_usb.c ****       USBx_OUTEP(epnum)->DOEPTSIZ |= (USB_OTG_DOEPTSIZ_XFRSIZ & ep->maxpacket);
 862:Drivers/STM32F4xx_HAL_Driver/Src/stm32f4xx_ll_usb.c ****       USBx_OUTEP(epnum)->DOEPTSIZ |= (USB_OTG_DOEPTSIZ_PKTCNT & (1U << 19));
 863:Drivers/STM32F4xx_HAL_Driver/Src/stm32f4xx_ll_usb.c ****     }
 864:Drivers/STM32F4xx_HAL_Driver/Src/stm32f4xx_ll_usb.c ****     else
 865:Drivers/STM32F4xx_HAL_Driver/Src/stm32f4xx_ll_usb.c ****     {
 866:Drivers/STM32F4xx_HAL_Driver/Src/stm32f4xx_ll_usb.c ****       pktcnt = (uint16_t)((ep->xfer_len + ep->maxpacket - 1U) / ep->maxpacket);
 867:Drivers/STM32F4xx_HAL_Driver/Src/stm32f4xx_ll_usb.c ****       ep->xfer_size = ep->maxpacket * pktcnt;
 868:Drivers/STM32F4xx_HAL_Driver/Src/stm32f4xx_ll_usb.c **** 
 869:Drivers/STM32F4xx_HAL_Driver/Src/stm32f4xx_ll_usb.c ****       USBx_OUTEP(epnum)->DOEPTSIZ |= USB_OTG_DOEPTSIZ_PKTCNT & ((uint32_t)pktcnt << 19);
 870:Drivers/STM32F4xx_HAL_Driver/Src/stm32f4xx_ll_usb.c ****       USBx_OUTEP(epnum)->DOEPTSIZ |= USB_OTG_DOEPTSIZ_XFRSIZ & ep->xfer_size;
 871:Drivers/STM32F4xx_HAL_Driver/Src/stm32f4xx_ll_usb.c ****     }
 872:Drivers/STM32F4xx_HAL_Driver/Src/stm32f4xx_ll_usb.c **** 
 873:Drivers/STM32F4xx_HAL_Driver/Src/stm32f4xx_ll_usb.c ****     if (dma == 1U)
 874:Drivers/STM32F4xx_HAL_Driver/Src/stm32f4xx_ll_usb.c ****     {
 875:Drivers/STM32F4xx_HAL_Driver/Src/stm32f4xx_ll_usb.c ****       if ((uint32_t)ep->xfer_buff != 0U)
 876:Drivers/STM32F4xx_HAL_Driver/Src/stm32f4xx_ll_usb.c ****       {
 877:Drivers/STM32F4xx_HAL_Driver/Src/stm32f4xx_ll_usb.c ****         USBx_OUTEP(epnum)->DOEPDMA = (uint32_t)(ep->xfer_buff);
 878:Drivers/STM32F4xx_HAL_Driver/Src/stm32f4xx_ll_usb.c ****       }
 879:Drivers/STM32F4xx_HAL_Driver/Src/stm32f4xx_ll_usb.c ****     }
 880:Drivers/STM32F4xx_HAL_Driver/Src/stm32f4xx_ll_usb.c **** 
 881:Drivers/STM32F4xx_HAL_Driver/Src/stm32f4xx_ll_usb.c ****     if (ep->type == EP_TYPE_ISOC)
 882:Drivers/STM32F4xx_HAL_Driver/Src/stm32f4xx_ll_usb.c ****     {
 883:Drivers/STM32F4xx_HAL_Driver/Src/stm32f4xx_ll_usb.c ****       if ((USBx_DEVICE->DSTS & (1U << 8)) == 0U)
 884:Drivers/STM32F4xx_HAL_Driver/Src/stm32f4xx_ll_usb.c ****       {
 885:Drivers/STM32F4xx_HAL_Driver/Src/stm32f4xx_ll_usb.c ****         USBx_OUTEP(epnum)->DOEPCTL |= USB_OTG_DOEPCTL_SODDFRM;
ARM GAS  /tmp/ccfbcrWA.s 			page 17


 886:Drivers/STM32F4xx_HAL_Driver/Src/stm32f4xx_ll_usb.c ****       }
 887:Drivers/STM32F4xx_HAL_Driver/Src/stm32f4xx_ll_usb.c ****       else
 888:Drivers/STM32F4xx_HAL_Driver/Src/stm32f4xx_ll_usb.c ****       {
 889:Drivers/STM32F4xx_HAL_Driver/Src/stm32f4xx_ll_usb.c ****         USBx_OUTEP(epnum)->DOEPCTL |= USB_OTG_DOEPCTL_SD0PID_SEVNFRM;
 890:Drivers/STM32F4xx_HAL_Driver/Src/stm32f4xx_ll_usb.c ****       }
 891:Drivers/STM32F4xx_HAL_Driver/Src/stm32f4xx_ll_usb.c ****     }
 892:Drivers/STM32F4xx_HAL_Driver/Src/stm32f4xx_ll_usb.c ****     /* EP enable */
 893:Drivers/STM32F4xx_HAL_Driver/Src/stm32f4xx_ll_usb.c ****     USBx_OUTEP(epnum)->DOEPCTL |= (USB_OTG_DOEPCTL_CNAK | USB_OTG_DOEPCTL_EPENA);
 894:Drivers/STM32F4xx_HAL_Driver/Src/stm32f4xx_ll_usb.c ****   }
 895:Drivers/STM32F4xx_HAL_Driver/Src/stm32f4xx_ll_usb.c **** 
 896:Drivers/STM32F4xx_HAL_Driver/Src/stm32f4xx_ll_usb.c ****   return HAL_OK;
 897:Drivers/STM32F4xx_HAL_Driver/Src/stm32f4xx_ll_usb.c **** }
 898:Drivers/STM32F4xx_HAL_Driver/Src/stm32f4xx_ll_usb.c **** 
 899:Drivers/STM32F4xx_HAL_Driver/Src/stm32f4xx_ll_usb.c **** /**
 900:Drivers/STM32F4xx_HAL_Driver/Src/stm32f4xx_ll_usb.c ****   * @brief  USB_EP0StartXfer : setup and starts a transfer over the EP  0
 901:Drivers/STM32F4xx_HAL_Driver/Src/stm32f4xx_ll_usb.c ****   * @param  USBx  Selected device
 902:Drivers/STM32F4xx_HAL_Driver/Src/stm32f4xx_ll_usb.c ****   * @param  ep pointer to endpoint structure
 903:Drivers/STM32F4xx_HAL_Driver/Src/stm32f4xx_ll_usb.c ****   * @param  dma USB dma enabled or disabled
 904:Drivers/STM32F4xx_HAL_Driver/Src/stm32f4xx_ll_usb.c ****   *          This parameter can be one of these values:
 905:Drivers/STM32F4xx_HAL_Driver/Src/stm32f4xx_ll_usb.c ****   *           0 : DMA feature not used
 906:Drivers/STM32F4xx_HAL_Driver/Src/stm32f4xx_ll_usb.c ****   *           1 : DMA feature used
 907:Drivers/STM32F4xx_HAL_Driver/Src/stm32f4xx_ll_usb.c ****   * @retval HAL status
 908:Drivers/STM32F4xx_HAL_Driver/Src/stm32f4xx_ll_usb.c ****   */
 909:Drivers/STM32F4xx_HAL_Driver/Src/stm32f4xx_ll_usb.c **** HAL_StatusTypeDef USB_EP0StartXfer(USB_OTG_GlobalTypeDef *USBx, USB_OTG_EPTypeDef *ep, uint8_t dma)
 910:Drivers/STM32F4xx_HAL_Driver/Src/stm32f4xx_ll_usb.c **** {
 911:Drivers/STM32F4xx_HAL_Driver/Src/stm32f4xx_ll_usb.c ****   uint32_t USBx_BASE = (uint32_t)USBx;
 912:Drivers/STM32F4xx_HAL_Driver/Src/stm32f4xx_ll_usb.c ****   uint32_t epnum = (uint32_t)ep->num;
 913:Drivers/STM32F4xx_HAL_Driver/Src/stm32f4xx_ll_usb.c **** 
 914:Drivers/STM32F4xx_HAL_Driver/Src/stm32f4xx_ll_usb.c ****   /* IN endpoint */
 915:Drivers/STM32F4xx_HAL_Driver/Src/stm32f4xx_ll_usb.c ****   if (ep->is_in == 1U)
 916:Drivers/STM32F4xx_HAL_Driver/Src/stm32f4xx_ll_usb.c ****   {
 917:Drivers/STM32F4xx_HAL_Driver/Src/stm32f4xx_ll_usb.c ****     /* Zero Length Packet? */
 918:Drivers/STM32F4xx_HAL_Driver/Src/stm32f4xx_ll_usb.c ****     if (ep->xfer_len == 0U)
 919:Drivers/STM32F4xx_HAL_Driver/Src/stm32f4xx_ll_usb.c ****     {
 920:Drivers/STM32F4xx_HAL_Driver/Src/stm32f4xx_ll_usb.c ****       USBx_INEP(epnum)->DIEPTSIZ &= ~(USB_OTG_DIEPTSIZ_PKTCNT);
 921:Drivers/STM32F4xx_HAL_Driver/Src/stm32f4xx_ll_usb.c ****       USBx_INEP(epnum)->DIEPTSIZ |= (USB_OTG_DIEPTSIZ_PKTCNT & (1U << 19));
 922:Drivers/STM32F4xx_HAL_Driver/Src/stm32f4xx_ll_usb.c ****       USBx_INEP(epnum)->DIEPTSIZ &= ~(USB_OTG_DIEPTSIZ_XFRSIZ);
 923:Drivers/STM32F4xx_HAL_Driver/Src/stm32f4xx_ll_usb.c ****     }
 924:Drivers/STM32F4xx_HAL_Driver/Src/stm32f4xx_ll_usb.c ****     else
 925:Drivers/STM32F4xx_HAL_Driver/Src/stm32f4xx_ll_usb.c ****     {
 926:Drivers/STM32F4xx_HAL_Driver/Src/stm32f4xx_ll_usb.c ****       /* Program the transfer size and packet count
 927:Drivers/STM32F4xx_HAL_Driver/Src/stm32f4xx_ll_usb.c ****       * as follows: xfersize = N * maxpacket +
 928:Drivers/STM32F4xx_HAL_Driver/Src/stm32f4xx_ll_usb.c ****       * short_packet pktcnt = N + (short_packet
 929:Drivers/STM32F4xx_HAL_Driver/Src/stm32f4xx_ll_usb.c ****       * exist ? 1 : 0)
 930:Drivers/STM32F4xx_HAL_Driver/Src/stm32f4xx_ll_usb.c ****       */
 931:Drivers/STM32F4xx_HAL_Driver/Src/stm32f4xx_ll_usb.c ****       USBx_INEP(epnum)->DIEPTSIZ &= ~(USB_OTG_DIEPTSIZ_XFRSIZ);
 932:Drivers/STM32F4xx_HAL_Driver/Src/stm32f4xx_ll_usb.c ****       USBx_INEP(epnum)->DIEPTSIZ &= ~(USB_OTG_DIEPTSIZ_PKTCNT);
 933:Drivers/STM32F4xx_HAL_Driver/Src/stm32f4xx_ll_usb.c **** 
 934:Drivers/STM32F4xx_HAL_Driver/Src/stm32f4xx_ll_usb.c ****       if (ep->xfer_len > ep->maxpacket)
 935:Drivers/STM32F4xx_HAL_Driver/Src/stm32f4xx_ll_usb.c ****       {
 936:Drivers/STM32F4xx_HAL_Driver/Src/stm32f4xx_ll_usb.c ****         ep->xfer_len = ep->maxpacket;
 937:Drivers/STM32F4xx_HAL_Driver/Src/stm32f4xx_ll_usb.c ****       }
 938:Drivers/STM32F4xx_HAL_Driver/Src/stm32f4xx_ll_usb.c ****       USBx_INEP(epnum)->DIEPTSIZ |= (USB_OTG_DIEPTSIZ_PKTCNT & (1U << 19));
 939:Drivers/STM32F4xx_HAL_Driver/Src/stm32f4xx_ll_usb.c ****       USBx_INEP(epnum)->DIEPTSIZ |= (USB_OTG_DIEPTSIZ_XFRSIZ & ep->xfer_len);
 940:Drivers/STM32F4xx_HAL_Driver/Src/stm32f4xx_ll_usb.c ****     }
 941:Drivers/STM32F4xx_HAL_Driver/Src/stm32f4xx_ll_usb.c **** 
 942:Drivers/STM32F4xx_HAL_Driver/Src/stm32f4xx_ll_usb.c ****     if (dma == 1U)
ARM GAS  /tmp/ccfbcrWA.s 			page 18


 943:Drivers/STM32F4xx_HAL_Driver/Src/stm32f4xx_ll_usb.c ****     {
 944:Drivers/STM32F4xx_HAL_Driver/Src/stm32f4xx_ll_usb.c ****       if ((uint32_t)ep->dma_addr != 0U)
 945:Drivers/STM32F4xx_HAL_Driver/Src/stm32f4xx_ll_usb.c ****       {
 946:Drivers/STM32F4xx_HAL_Driver/Src/stm32f4xx_ll_usb.c ****         USBx_INEP(epnum)->DIEPDMA = (uint32_t)(ep->dma_addr);
 947:Drivers/STM32F4xx_HAL_Driver/Src/stm32f4xx_ll_usb.c ****       }
 948:Drivers/STM32F4xx_HAL_Driver/Src/stm32f4xx_ll_usb.c **** 
 949:Drivers/STM32F4xx_HAL_Driver/Src/stm32f4xx_ll_usb.c ****       /* EP enable, IN data in FIFO */
 950:Drivers/STM32F4xx_HAL_Driver/Src/stm32f4xx_ll_usb.c ****       USBx_INEP(epnum)->DIEPCTL |= (USB_OTG_DIEPCTL_CNAK | USB_OTG_DIEPCTL_EPENA);
 951:Drivers/STM32F4xx_HAL_Driver/Src/stm32f4xx_ll_usb.c ****     }
 952:Drivers/STM32F4xx_HAL_Driver/Src/stm32f4xx_ll_usb.c ****     else
 953:Drivers/STM32F4xx_HAL_Driver/Src/stm32f4xx_ll_usb.c ****     {
 954:Drivers/STM32F4xx_HAL_Driver/Src/stm32f4xx_ll_usb.c ****       /* EP enable, IN data in FIFO */
 955:Drivers/STM32F4xx_HAL_Driver/Src/stm32f4xx_ll_usb.c ****       USBx_INEP(epnum)->DIEPCTL |= (USB_OTG_DIEPCTL_CNAK | USB_OTG_DIEPCTL_EPENA);
 956:Drivers/STM32F4xx_HAL_Driver/Src/stm32f4xx_ll_usb.c **** 
 957:Drivers/STM32F4xx_HAL_Driver/Src/stm32f4xx_ll_usb.c ****       /* Enable the Tx FIFO Empty Interrupt for this EP */
 958:Drivers/STM32F4xx_HAL_Driver/Src/stm32f4xx_ll_usb.c ****       if (ep->xfer_len > 0U)
 959:Drivers/STM32F4xx_HAL_Driver/Src/stm32f4xx_ll_usb.c ****       {
 960:Drivers/STM32F4xx_HAL_Driver/Src/stm32f4xx_ll_usb.c ****         USBx_DEVICE->DIEPEMPMSK |= 1UL << (ep->num & EP_ADDR_MSK);
 961:Drivers/STM32F4xx_HAL_Driver/Src/stm32f4xx_ll_usb.c ****       }
 962:Drivers/STM32F4xx_HAL_Driver/Src/stm32f4xx_ll_usb.c ****     }
 963:Drivers/STM32F4xx_HAL_Driver/Src/stm32f4xx_ll_usb.c ****   }
 964:Drivers/STM32F4xx_HAL_Driver/Src/stm32f4xx_ll_usb.c ****   else /* OUT endpoint */
 965:Drivers/STM32F4xx_HAL_Driver/Src/stm32f4xx_ll_usb.c ****   {
 966:Drivers/STM32F4xx_HAL_Driver/Src/stm32f4xx_ll_usb.c ****     /* Program the transfer size and packet count as follows:
 967:Drivers/STM32F4xx_HAL_Driver/Src/stm32f4xx_ll_usb.c ****     * pktcnt = N
 968:Drivers/STM32F4xx_HAL_Driver/Src/stm32f4xx_ll_usb.c ****     * xfersize = N * maxpacket
 969:Drivers/STM32F4xx_HAL_Driver/Src/stm32f4xx_ll_usb.c ****     */
 970:Drivers/STM32F4xx_HAL_Driver/Src/stm32f4xx_ll_usb.c ****     USBx_OUTEP(epnum)->DOEPTSIZ &= ~(USB_OTG_DOEPTSIZ_XFRSIZ);
 971:Drivers/STM32F4xx_HAL_Driver/Src/stm32f4xx_ll_usb.c ****     USBx_OUTEP(epnum)->DOEPTSIZ &= ~(USB_OTG_DOEPTSIZ_PKTCNT);
 972:Drivers/STM32F4xx_HAL_Driver/Src/stm32f4xx_ll_usb.c **** 
 973:Drivers/STM32F4xx_HAL_Driver/Src/stm32f4xx_ll_usb.c ****     if (ep->xfer_len > 0U)
 974:Drivers/STM32F4xx_HAL_Driver/Src/stm32f4xx_ll_usb.c ****     {
 975:Drivers/STM32F4xx_HAL_Driver/Src/stm32f4xx_ll_usb.c ****       ep->xfer_len = ep->maxpacket;
 976:Drivers/STM32F4xx_HAL_Driver/Src/stm32f4xx_ll_usb.c ****     }
 977:Drivers/STM32F4xx_HAL_Driver/Src/stm32f4xx_ll_usb.c **** 
 978:Drivers/STM32F4xx_HAL_Driver/Src/stm32f4xx_ll_usb.c ****     /* Store transfer size, for EP0 this is equal to endpoint max packet size */
 979:Drivers/STM32F4xx_HAL_Driver/Src/stm32f4xx_ll_usb.c ****     ep->xfer_size = ep->maxpacket;
 980:Drivers/STM32F4xx_HAL_Driver/Src/stm32f4xx_ll_usb.c **** 
 981:Drivers/STM32F4xx_HAL_Driver/Src/stm32f4xx_ll_usb.c ****     USBx_OUTEP(epnum)->DOEPTSIZ |= (USB_OTG_DOEPTSIZ_PKTCNT & (1U << 19));
 982:Drivers/STM32F4xx_HAL_Driver/Src/stm32f4xx_ll_usb.c ****     USBx_OUTEP(epnum)->DOEPTSIZ |= (USB_OTG_DOEPTSIZ_XFRSIZ & ep->xfer_size);
 983:Drivers/STM32F4xx_HAL_Driver/Src/stm32f4xx_ll_usb.c **** 
 984:Drivers/STM32F4xx_HAL_Driver/Src/stm32f4xx_ll_usb.c ****     if (dma == 1U)
 985:Drivers/STM32F4xx_HAL_Driver/Src/stm32f4xx_ll_usb.c ****     {
 986:Drivers/STM32F4xx_HAL_Driver/Src/stm32f4xx_ll_usb.c ****       if ((uint32_t)ep->xfer_buff != 0U)
 987:Drivers/STM32F4xx_HAL_Driver/Src/stm32f4xx_ll_usb.c ****       {
 988:Drivers/STM32F4xx_HAL_Driver/Src/stm32f4xx_ll_usb.c ****         USBx_OUTEP(epnum)->DOEPDMA = (uint32_t)(ep->xfer_buff);
 989:Drivers/STM32F4xx_HAL_Driver/Src/stm32f4xx_ll_usb.c ****       }
 990:Drivers/STM32F4xx_HAL_Driver/Src/stm32f4xx_ll_usb.c ****     }
 991:Drivers/STM32F4xx_HAL_Driver/Src/stm32f4xx_ll_usb.c **** 
 992:Drivers/STM32F4xx_HAL_Driver/Src/stm32f4xx_ll_usb.c ****     /* EP enable */
 993:Drivers/STM32F4xx_HAL_Driver/Src/stm32f4xx_ll_usb.c ****     USBx_OUTEP(epnum)->DOEPCTL |= (USB_OTG_DOEPCTL_CNAK | USB_OTG_DOEPCTL_EPENA);
 994:Drivers/STM32F4xx_HAL_Driver/Src/stm32f4xx_ll_usb.c ****   }
 995:Drivers/STM32F4xx_HAL_Driver/Src/stm32f4xx_ll_usb.c **** 
 996:Drivers/STM32F4xx_HAL_Driver/Src/stm32f4xx_ll_usb.c ****   return HAL_OK;
 997:Drivers/STM32F4xx_HAL_Driver/Src/stm32f4xx_ll_usb.c **** }
 998:Drivers/STM32F4xx_HAL_Driver/Src/stm32f4xx_ll_usb.c **** 
 999:Drivers/STM32F4xx_HAL_Driver/Src/stm32f4xx_ll_usb.c **** 
ARM GAS  /tmp/ccfbcrWA.s 			page 19


1000:Drivers/STM32F4xx_HAL_Driver/Src/stm32f4xx_ll_usb.c **** /**
1001:Drivers/STM32F4xx_HAL_Driver/Src/stm32f4xx_ll_usb.c ****    * @brief  USB_EPStoptXfer  Stop transfer on an EP
1002:Drivers/STM32F4xx_HAL_Driver/Src/stm32f4xx_ll_usb.c ****    * @param  USBx  usb device instance
1003:Drivers/STM32F4xx_HAL_Driver/Src/stm32f4xx_ll_usb.c ****    * @param  ep pointer to endpoint structure
1004:Drivers/STM32F4xx_HAL_Driver/Src/stm32f4xx_ll_usb.c ****    * @retval HAL status
1005:Drivers/STM32F4xx_HAL_Driver/Src/stm32f4xx_ll_usb.c ****    */
1006:Drivers/STM32F4xx_HAL_Driver/Src/stm32f4xx_ll_usb.c **** HAL_StatusTypeDef USB_EPStopXfer(USB_OTG_GlobalTypeDef *USBx, USB_OTG_EPTypeDef *ep)
1007:Drivers/STM32F4xx_HAL_Driver/Src/stm32f4xx_ll_usb.c **** {
1008:Drivers/STM32F4xx_HAL_Driver/Src/stm32f4xx_ll_usb.c ****   __IO uint32_t count = 0U;
1009:Drivers/STM32F4xx_HAL_Driver/Src/stm32f4xx_ll_usb.c ****   HAL_StatusTypeDef ret = HAL_OK;
1010:Drivers/STM32F4xx_HAL_Driver/Src/stm32f4xx_ll_usb.c ****   uint32_t USBx_BASE = (uint32_t)USBx;
1011:Drivers/STM32F4xx_HAL_Driver/Src/stm32f4xx_ll_usb.c **** 
1012:Drivers/STM32F4xx_HAL_Driver/Src/stm32f4xx_ll_usb.c ****   /* IN endpoint */
1013:Drivers/STM32F4xx_HAL_Driver/Src/stm32f4xx_ll_usb.c ****   if (ep->is_in == 1U)
1014:Drivers/STM32F4xx_HAL_Driver/Src/stm32f4xx_ll_usb.c ****   {
1015:Drivers/STM32F4xx_HAL_Driver/Src/stm32f4xx_ll_usb.c ****     /* EP enable, IN data in FIFO */
1016:Drivers/STM32F4xx_HAL_Driver/Src/stm32f4xx_ll_usb.c ****     if (((USBx_INEP(ep->num)->DIEPCTL) & USB_OTG_DIEPCTL_EPENA) == USB_OTG_DIEPCTL_EPENA)
1017:Drivers/STM32F4xx_HAL_Driver/Src/stm32f4xx_ll_usb.c ****     {
1018:Drivers/STM32F4xx_HAL_Driver/Src/stm32f4xx_ll_usb.c ****       USBx_INEP(ep->num)->DIEPCTL |= (USB_OTG_DIEPCTL_SNAK);
1019:Drivers/STM32F4xx_HAL_Driver/Src/stm32f4xx_ll_usb.c ****       USBx_INEP(ep->num)->DIEPCTL |= (USB_OTG_DIEPCTL_EPDIS);
1020:Drivers/STM32F4xx_HAL_Driver/Src/stm32f4xx_ll_usb.c **** 
1021:Drivers/STM32F4xx_HAL_Driver/Src/stm32f4xx_ll_usb.c ****       do
1022:Drivers/STM32F4xx_HAL_Driver/Src/stm32f4xx_ll_usb.c ****       {
1023:Drivers/STM32F4xx_HAL_Driver/Src/stm32f4xx_ll_usb.c ****         count++;
1024:Drivers/STM32F4xx_HAL_Driver/Src/stm32f4xx_ll_usb.c **** 
1025:Drivers/STM32F4xx_HAL_Driver/Src/stm32f4xx_ll_usb.c ****         if (count > 10000U)
1026:Drivers/STM32F4xx_HAL_Driver/Src/stm32f4xx_ll_usb.c ****         {
1027:Drivers/STM32F4xx_HAL_Driver/Src/stm32f4xx_ll_usb.c ****           ret = HAL_ERROR;
1028:Drivers/STM32F4xx_HAL_Driver/Src/stm32f4xx_ll_usb.c ****           break;
1029:Drivers/STM32F4xx_HAL_Driver/Src/stm32f4xx_ll_usb.c ****         }
1030:Drivers/STM32F4xx_HAL_Driver/Src/stm32f4xx_ll_usb.c ****       } while (((USBx_INEP(ep->num)->DIEPCTL) & USB_OTG_DIEPCTL_EPENA) ==  USB_OTG_DIEPCTL_EPENA);
1031:Drivers/STM32F4xx_HAL_Driver/Src/stm32f4xx_ll_usb.c ****     }
1032:Drivers/STM32F4xx_HAL_Driver/Src/stm32f4xx_ll_usb.c ****   }
1033:Drivers/STM32F4xx_HAL_Driver/Src/stm32f4xx_ll_usb.c ****   else /* OUT endpoint */
1034:Drivers/STM32F4xx_HAL_Driver/Src/stm32f4xx_ll_usb.c ****   {
1035:Drivers/STM32F4xx_HAL_Driver/Src/stm32f4xx_ll_usb.c ****     if (((USBx_OUTEP(ep->num)->DOEPCTL) & USB_OTG_DOEPCTL_EPENA) == USB_OTG_DOEPCTL_EPENA)
1036:Drivers/STM32F4xx_HAL_Driver/Src/stm32f4xx_ll_usb.c ****     {
1037:Drivers/STM32F4xx_HAL_Driver/Src/stm32f4xx_ll_usb.c ****       USBx_OUTEP(ep->num)->DOEPCTL |= (USB_OTG_DOEPCTL_SNAK);
1038:Drivers/STM32F4xx_HAL_Driver/Src/stm32f4xx_ll_usb.c ****       USBx_OUTEP(ep->num)->DOEPCTL |= (USB_OTG_DOEPCTL_EPDIS);
1039:Drivers/STM32F4xx_HAL_Driver/Src/stm32f4xx_ll_usb.c **** 
1040:Drivers/STM32F4xx_HAL_Driver/Src/stm32f4xx_ll_usb.c ****       do
1041:Drivers/STM32F4xx_HAL_Driver/Src/stm32f4xx_ll_usb.c ****       {
1042:Drivers/STM32F4xx_HAL_Driver/Src/stm32f4xx_ll_usb.c ****         count++;
1043:Drivers/STM32F4xx_HAL_Driver/Src/stm32f4xx_ll_usb.c **** 
1044:Drivers/STM32F4xx_HAL_Driver/Src/stm32f4xx_ll_usb.c ****         if (count > 10000U)
1045:Drivers/STM32F4xx_HAL_Driver/Src/stm32f4xx_ll_usb.c ****         {
1046:Drivers/STM32F4xx_HAL_Driver/Src/stm32f4xx_ll_usb.c ****           ret = HAL_ERROR;
1047:Drivers/STM32F4xx_HAL_Driver/Src/stm32f4xx_ll_usb.c ****           break;
1048:Drivers/STM32F4xx_HAL_Driver/Src/stm32f4xx_ll_usb.c ****         }
1049:Drivers/STM32F4xx_HAL_Driver/Src/stm32f4xx_ll_usb.c ****       } while (((USBx_OUTEP(ep->num)->DOEPCTL) & USB_OTG_DOEPCTL_EPENA) ==  USB_OTG_DOEPCTL_EPENA);
1050:Drivers/STM32F4xx_HAL_Driver/Src/stm32f4xx_ll_usb.c ****     }
1051:Drivers/STM32F4xx_HAL_Driver/Src/stm32f4xx_ll_usb.c ****   }
1052:Drivers/STM32F4xx_HAL_Driver/Src/stm32f4xx_ll_usb.c **** 
1053:Drivers/STM32F4xx_HAL_Driver/Src/stm32f4xx_ll_usb.c ****   return ret;
1054:Drivers/STM32F4xx_HAL_Driver/Src/stm32f4xx_ll_usb.c **** }
1055:Drivers/STM32F4xx_HAL_Driver/Src/stm32f4xx_ll_usb.c **** 
1056:Drivers/STM32F4xx_HAL_Driver/Src/stm32f4xx_ll_usb.c **** 
ARM GAS  /tmp/ccfbcrWA.s 			page 20


1057:Drivers/STM32F4xx_HAL_Driver/Src/stm32f4xx_ll_usb.c **** /**
1058:Drivers/STM32F4xx_HAL_Driver/Src/stm32f4xx_ll_usb.c ****   * @brief  USB_WritePacket : Writes a packet into the Tx FIFO associated
1059:Drivers/STM32F4xx_HAL_Driver/Src/stm32f4xx_ll_usb.c ****   *         with the EP/channel
1060:Drivers/STM32F4xx_HAL_Driver/Src/stm32f4xx_ll_usb.c ****   * @param  USBx  Selected device
1061:Drivers/STM32F4xx_HAL_Driver/Src/stm32f4xx_ll_usb.c ****   * @param  src   pointer to source buffer
1062:Drivers/STM32F4xx_HAL_Driver/Src/stm32f4xx_ll_usb.c ****   * @param  ch_ep_num  endpoint or host channel number
1063:Drivers/STM32F4xx_HAL_Driver/Src/stm32f4xx_ll_usb.c ****   * @param  len  Number of bytes to write
1064:Drivers/STM32F4xx_HAL_Driver/Src/stm32f4xx_ll_usb.c ****   * @param  dma USB dma enabled or disabled
1065:Drivers/STM32F4xx_HAL_Driver/Src/stm32f4xx_ll_usb.c ****   *          This parameter can be one of these values:
1066:Drivers/STM32F4xx_HAL_Driver/Src/stm32f4xx_ll_usb.c ****   *           0 : DMA feature not used
1067:Drivers/STM32F4xx_HAL_Driver/Src/stm32f4xx_ll_usb.c ****   *           1 : DMA feature used
1068:Drivers/STM32F4xx_HAL_Driver/Src/stm32f4xx_ll_usb.c ****   * @retval HAL status
1069:Drivers/STM32F4xx_HAL_Driver/Src/stm32f4xx_ll_usb.c ****   */
1070:Drivers/STM32F4xx_HAL_Driver/Src/stm32f4xx_ll_usb.c **** HAL_StatusTypeDef USB_WritePacket(USB_OTG_GlobalTypeDef *USBx, uint8_t *src,
1071:Drivers/STM32F4xx_HAL_Driver/Src/stm32f4xx_ll_usb.c ****                                   uint8_t ch_ep_num, uint16_t len, uint8_t dma)
1072:Drivers/STM32F4xx_HAL_Driver/Src/stm32f4xx_ll_usb.c **** {
1073:Drivers/STM32F4xx_HAL_Driver/Src/stm32f4xx_ll_usb.c ****   uint32_t USBx_BASE = (uint32_t)USBx;
1074:Drivers/STM32F4xx_HAL_Driver/Src/stm32f4xx_ll_usb.c ****   uint8_t *pSrc = src;
1075:Drivers/STM32F4xx_HAL_Driver/Src/stm32f4xx_ll_usb.c ****   uint32_t count32b;
1076:Drivers/STM32F4xx_HAL_Driver/Src/stm32f4xx_ll_usb.c ****   uint32_t i;
1077:Drivers/STM32F4xx_HAL_Driver/Src/stm32f4xx_ll_usb.c **** 
1078:Drivers/STM32F4xx_HAL_Driver/Src/stm32f4xx_ll_usb.c ****   if (dma == 0U)
1079:Drivers/STM32F4xx_HAL_Driver/Src/stm32f4xx_ll_usb.c ****   {
1080:Drivers/STM32F4xx_HAL_Driver/Src/stm32f4xx_ll_usb.c ****     count32b = ((uint32_t)len + 3U) / 4U;
1081:Drivers/STM32F4xx_HAL_Driver/Src/stm32f4xx_ll_usb.c ****     for (i = 0U; i < count32b; i++)
1082:Drivers/STM32F4xx_HAL_Driver/Src/stm32f4xx_ll_usb.c ****     {
1083:Drivers/STM32F4xx_HAL_Driver/Src/stm32f4xx_ll_usb.c ****       USBx_DFIFO((uint32_t)ch_ep_num) = __UNALIGNED_UINT32_READ(pSrc);
1084:Drivers/STM32F4xx_HAL_Driver/Src/stm32f4xx_ll_usb.c ****       pSrc++;
1085:Drivers/STM32F4xx_HAL_Driver/Src/stm32f4xx_ll_usb.c ****       pSrc++;
1086:Drivers/STM32F4xx_HAL_Driver/Src/stm32f4xx_ll_usb.c ****       pSrc++;
1087:Drivers/STM32F4xx_HAL_Driver/Src/stm32f4xx_ll_usb.c ****       pSrc++;
1088:Drivers/STM32F4xx_HAL_Driver/Src/stm32f4xx_ll_usb.c ****     }
1089:Drivers/STM32F4xx_HAL_Driver/Src/stm32f4xx_ll_usb.c ****   }
1090:Drivers/STM32F4xx_HAL_Driver/Src/stm32f4xx_ll_usb.c **** 
1091:Drivers/STM32F4xx_HAL_Driver/Src/stm32f4xx_ll_usb.c ****   return HAL_OK;
1092:Drivers/STM32F4xx_HAL_Driver/Src/stm32f4xx_ll_usb.c **** }
1093:Drivers/STM32F4xx_HAL_Driver/Src/stm32f4xx_ll_usb.c **** 
1094:Drivers/STM32F4xx_HAL_Driver/Src/stm32f4xx_ll_usb.c **** /**
1095:Drivers/STM32F4xx_HAL_Driver/Src/stm32f4xx_ll_usb.c ****   * @brief  USB_ReadPacket : read a packet from the RX FIFO
1096:Drivers/STM32F4xx_HAL_Driver/Src/stm32f4xx_ll_usb.c ****   * @param  USBx  Selected device
1097:Drivers/STM32F4xx_HAL_Driver/Src/stm32f4xx_ll_usb.c ****   * @param  dest  source pointer
1098:Drivers/STM32F4xx_HAL_Driver/Src/stm32f4xx_ll_usb.c ****   * @param  len  Number of bytes to read
1099:Drivers/STM32F4xx_HAL_Driver/Src/stm32f4xx_ll_usb.c ****   * @retval pointer to destination buffer
1100:Drivers/STM32F4xx_HAL_Driver/Src/stm32f4xx_ll_usb.c ****   */
1101:Drivers/STM32F4xx_HAL_Driver/Src/stm32f4xx_ll_usb.c **** void *USB_ReadPacket(USB_OTG_GlobalTypeDef *USBx, uint8_t *dest, uint16_t len)
1102:Drivers/STM32F4xx_HAL_Driver/Src/stm32f4xx_ll_usb.c **** {
1103:Drivers/STM32F4xx_HAL_Driver/Src/stm32f4xx_ll_usb.c ****   uint32_t USBx_BASE = (uint32_t)USBx;
1104:Drivers/STM32F4xx_HAL_Driver/Src/stm32f4xx_ll_usb.c ****   uint8_t *pDest = dest;
1105:Drivers/STM32F4xx_HAL_Driver/Src/stm32f4xx_ll_usb.c ****   uint32_t pData;
1106:Drivers/STM32F4xx_HAL_Driver/Src/stm32f4xx_ll_usb.c ****   uint32_t i;
1107:Drivers/STM32F4xx_HAL_Driver/Src/stm32f4xx_ll_usb.c ****   uint32_t count32b = (uint32_t)len >> 2U;
1108:Drivers/STM32F4xx_HAL_Driver/Src/stm32f4xx_ll_usb.c ****   uint16_t remaining_bytes = len % 4U;
1109:Drivers/STM32F4xx_HAL_Driver/Src/stm32f4xx_ll_usb.c **** 
1110:Drivers/STM32F4xx_HAL_Driver/Src/stm32f4xx_ll_usb.c ****   for (i = 0U; i < count32b; i++)
1111:Drivers/STM32F4xx_HAL_Driver/Src/stm32f4xx_ll_usb.c ****   {
1112:Drivers/STM32F4xx_HAL_Driver/Src/stm32f4xx_ll_usb.c ****     __UNALIGNED_UINT32_WRITE(pDest, USBx_DFIFO(0U));
1113:Drivers/STM32F4xx_HAL_Driver/Src/stm32f4xx_ll_usb.c ****     pDest++;
ARM GAS  /tmp/ccfbcrWA.s 			page 21


1114:Drivers/STM32F4xx_HAL_Driver/Src/stm32f4xx_ll_usb.c ****     pDest++;
1115:Drivers/STM32F4xx_HAL_Driver/Src/stm32f4xx_ll_usb.c ****     pDest++;
1116:Drivers/STM32F4xx_HAL_Driver/Src/stm32f4xx_ll_usb.c ****     pDest++;
1117:Drivers/STM32F4xx_HAL_Driver/Src/stm32f4xx_ll_usb.c ****   }
1118:Drivers/STM32F4xx_HAL_Driver/Src/stm32f4xx_ll_usb.c **** 
1119:Drivers/STM32F4xx_HAL_Driver/Src/stm32f4xx_ll_usb.c ****   /* When Number of data is not word aligned, read the remaining byte */
1120:Drivers/STM32F4xx_HAL_Driver/Src/stm32f4xx_ll_usb.c ****   if (remaining_bytes != 0U)
1121:Drivers/STM32F4xx_HAL_Driver/Src/stm32f4xx_ll_usb.c ****   {
1122:Drivers/STM32F4xx_HAL_Driver/Src/stm32f4xx_ll_usb.c ****     i = 0U;
1123:Drivers/STM32F4xx_HAL_Driver/Src/stm32f4xx_ll_usb.c ****     __UNALIGNED_UINT32_WRITE(&pData, USBx_DFIFO(0U));
1124:Drivers/STM32F4xx_HAL_Driver/Src/stm32f4xx_ll_usb.c **** 
1125:Drivers/STM32F4xx_HAL_Driver/Src/stm32f4xx_ll_usb.c ****     do
1126:Drivers/STM32F4xx_HAL_Driver/Src/stm32f4xx_ll_usb.c ****     {
1127:Drivers/STM32F4xx_HAL_Driver/Src/stm32f4xx_ll_usb.c ****       *(uint8_t *)pDest = (uint8_t)(pData >> (8U * (uint8_t)(i)));
1128:Drivers/STM32F4xx_HAL_Driver/Src/stm32f4xx_ll_usb.c ****       i++;
1129:Drivers/STM32F4xx_HAL_Driver/Src/stm32f4xx_ll_usb.c ****       pDest++;
1130:Drivers/STM32F4xx_HAL_Driver/Src/stm32f4xx_ll_usb.c ****       remaining_bytes--;
1131:Drivers/STM32F4xx_HAL_Driver/Src/stm32f4xx_ll_usb.c ****     } while (remaining_bytes != 0U);
1132:Drivers/STM32F4xx_HAL_Driver/Src/stm32f4xx_ll_usb.c ****   }
1133:Drivers/STM32F4xx_HAL_Driver/Src/stm32f4xx_ll_usb.c **** 
1134:Drivers/STM32F4xx_HAL_Driver/Src/stm32f4xx_ll_usb.c ****   return ((void *)pDest);
1135:Drivers/STM32F4xx_HAL_Driver/Src/stm32f4xx_ll_usb.c **** }
1136:Drivers/STM32F4xx_HAL_Driver/Src/stm32f4xx_ll_usb.c **** 
1137:Drivers/STM32F4xx_HAL_Driver/Src/stm32f4xx_ll_usb.c **** /**
1138:Drivers/STM32F4xx_HAL_Driver/Src/stm32f4xx_ll_usb.c ****   * @brief  USB_EPSetStall : set a stall condition over an EP
1139:Drivers/STM32F4xx_HAL_Driver/Src/stm32f4xx_ll_usb.c ****   * @param  USBx  Selected device
1140:Drivers/STM32F4xx_HAL_Driver/Src/stm32f4xx_ll_usb.c ****   * @param  ep pointer to endpoint structure
1141:Drivers/STM32F4xx_HAL_Driver/Src/stm32f4xx_ll_usb.c ****   * @retval HAL status
1142:Drivers/STM32F4xx_HAL_Driver/Src/stm32f4xx_ll_usb.c ****   */
1143:Drivers/STM32F4xx_HAL_Driver/Src/stm32f4xx_ll_usb.c **** HAL_StatusTypeDef USB_EPSetStall(USB_OTG_GlobalTypeDef *USBx, USB_OTG_EPTypeDef *ep)
1144:Drivers/STM32F4xx_HAL_Driver/Src/stm32f4xx_ll_usb.c **** {
1145:Drivers/STM32F4xx_HAL_Driver/Src/stm32f4xx_ll_usb.c ****   uint32_t USBx_BASE = (uint32_t)USBx;
1146:Drivers/STM32F4xx_HAL_Driver/Src/stm32f4xx_ll_usb.c ****   uint32_t epnum = (uint32_t)ep->num;
1147:Drivers/STM32F4xx_HAL_Driver/Src/stm32f4xx_ll_usb.c **** 
1148:Drivers/STM32F4xx_HAL_Driver/Src/stm32f4xx_ll_usb.c ****   if (ep->is_in == 1U)
1149:Drivers/STM32F4xx_HAL_Driver/Src/stm32f4xx_ll_usb.c ****   {
1150:Drivers/STM32F4xx_HAL_Driver/Src/stm32f4xx_ll_usb.c ****     if (((USBx_INEP(epnum)->DIEPCTL & USB_OTG_DIEPCTL_EPENA) == 0U) && (epnum != 0U))
1151:Drivers/STM32F4xx_HAL_Driver/Src/stm32f4xx_ll_usb.c ****     {
1152:Drivers/STM32F4xx_HAL_Driver/Src/stm32f4xx_ll_usb.c ****       USBx_INEP(epnum)->DIEPCTL &= ~(USB_OTG_DIEPCTL_EPDIS);
1153:Drivers/STM32F4xx_HAL_Driver/Src/stm32f4xx_ll_usb.c ****     }
1154:Drivers/STM32F4xx_HAL_Driver/Src/stm32f4xx_ll_usb.c ****     USBx_INEP(epnum)->DIEPCTL |= USB_OTG_DIEPCTL_STALL;
1155:Drivers/STM32F4xx_HAL_Driver/Src/stm32f4xx_ll_usb.c ****   }
1156:Drivers/STM32F4xx_HAL_Driver/Src/stm32f4xx_ll_usb.c ****   else
1157:Drivers/STM32F4xx_HAL_Driver/Src/stm32f4xx_ll_usb.c ****   {
1158:Drivers/STM32F4xx_HAL_Driver/Src/stm32f4xx_ll_usb.c ****     if (((USBx_OUTEP(epnum)->DOEPCTL & USB_OTG_DOEPCTL_EPENA) == 0U) && (epnum != 0U))
1159:Drivers/STM32F4xx_HAL_Driver/Src/stm32f4xx_ll_usb.c ****     {
1160:Drivers/STM32F4xx_HAL_Driver/Src/stm32f4xx_ll_usb.c ****       USBx_OUTEP(epnum)->DOEPCTL &= ~(USB_OTG_DOEPCTL_EPDIS);
1161:Drivers/STM32F4xx_HAL_Driver/Src/stm32f4xx_ll_usb.c ****     }
1162:Drivers/STM32F4xx_HAL_Driver/Src/stm32f4xx_ll_usb.c ****     USBx_OUTEP(epnum)->DOEPCTL |= USB_OTG_DOEPCTL_STALL;
1163:Drivers/STM32F4xx_HAL_Driver/Src/stm32f4xx_ll_usb.c ****   }
1164:Drivers/STM32F4xx_HAL_Driver/Src/stm32f4xx_ll_usb.c **** 
1165:Drivers/STM32F4xx_HAL_Driver/Src/stm32f4xx_ll_usb.c ****   return HAL_OK;
1166:Drivers/STM32F4xx_HAL_Driver/Src/stm32f4xx_ll_usb.c **** }
1167:Drivers/STM32F4xx_HAL_Driver/Src/stm32f4xx_ll_usb.c **** 
1168:Drivers/STM32F4xx_HAL_Driver/Src/stm32f4xx_ll_usb.c **** /**
1169:Drivers/STM32F4xx_HAL_Driver/Src/stm32f4xx_ll_usb.c ****   * @brief  USB_EPClearStall : Clear a stall condition over an EP
1170:Drivers/STM32F4xx_HAL_Driver/Src/stm32f4xx_ll_usb.c ****   * @param  USBx  Selected device
ARM GAS  /tmp/ccfbcrWA.s 			page 22


1171:Drivers/STM32F4xx_HAL_Driver/Src/stm32f4xx_ll_usb.c ****   * @param  ep pointer to endpoint structure
1172:Drivers/STM32F4xx_HAL_Driver/Src/stm32f4xx_ll_usb.c ****   * @retval HAL status
1173:Drivers/STM32F4xx_HAL_Driver/Src/stm32f4xx_ll_usb.c ****   */
1174:Drivers/STM32F4xx_HAL_Driver/Src/stm32f4xx_ll_usb.c **** HAL_StatusTypeDef USB_EPClearStall(USB_OTG_GlobalTypeDef *USBx, USB_OTG_EPTypeDef *ep)
1175:Drivers/STM32F4xx_HAL_Driver/Src/stm32f4xx_ll_usb.c **** {
1176:Drivers/STM32F4xx_HAL_Driver/Src/stm32f4xx_ll_usb.c ****   uint32_t USBx_BASE = (uint32_t)USBx;
1177:Drivers/STM32F4xx_HAL_Driver/Src/stm32f4xx_ll_usb.c ****   uint32_t epnum = (uint32_t)ep->num;
1178:Drivers/STM32F4xx_HAL_Driver/Src/stm32f4xx_ll_usb.c **** 
1179:Drivers/STM32F4xx_HAL_Driver/Src/stm32f4xx_ll_usb.c ****   if (ep->is_in == 1U)
1180:Drivers/STM32F4xx_HAL_Driver/Src/stm32f4xx_ll_usb.c ****   {
1181:Drivers/STM32F4xx_HAL_Driver/Src/stm32f4xx_ll_usb.c ****     USBx_INEP(epnum)->DIEPCTL &= ~USB_OTG_DIEPCTL_STALL;
1182:Drivers/STM32F4xx_HAL_Driver/Src/stm32f4xx_ll_usb.c ****     if ((ep->type == EP_TYPE_INTR) || (ep->type == EP_TYPE_BULK))
1183:Drivers/STM32F4xx_HAL_Driver/Src/stm32f4xx_ll_usb.c ****     {
1184:Drivers/STM32F4xx_HAL_Driver/Src/stm32f4xx_ll_usb.c ****       USBx_INEP(epnum)->DIEPCTL |= USB_OTG_DIEPCTL_SD0PID_SEVNFRM; /* DATA0 */
1185:Drivers/STM32F4xx_HAL_Driver/Src/stm32f4xx_ll_usb.c ****     }
1186:Drivers/STM32F4xx_HAL_Driver/Src/stm32f4xx_ll_usb.c ****   }
1187:Drivers/STM32F4xx_HAL_Driver/Src/stm32f4xx_ll_usb.c ****   else
1188:Drivers/STM32F4xx_HAL_Driver/Src/stm32f4xx_ll_usb.c ****   {
1189:Drivers/STM32F4xx_HAL_Driver/Src/stm32f4xx_ll_usb.c ****     USBx_OUTEP(epnum)->DOEPCTL &= ~USB_OTG_DOEPCTL_STALL;
1190:Drivers/STM32F4xx_HAL_Driver/Src/stm32f4xx_ll_usb.c ****     if ((ep->type == EP_TYPE_INTR) || (ep->type == EP_TYPE_BULK))
1191:Drivers/STM32F4xx_HAL_Driver/Src/stm32f4xx_ll_usb.c ****     {
1192:Drivers/STM32F4xx_HAL_Driver/Src/stm32f4xx_ll_usb.c ****       USBx_OUTEP(epnum)->DOEPCTL |= USB_OTG_DOEPCTL_SD0PID_SEVNFRM; /* DATA0 */
1193:Drivers/STM32F4xx_HAL_Driver/Src/stm32f4xx_ll_usb.c ****     }
1194:Drivers/STM32F4xx_HAL_Driver/Src/stm32f4xx_ll_usb.c ****   }
1195:Drivers/STM32F4xx_HAL_Driver/Src/stm32f4xx_ll_usb.c ****   return HAL_OK;
1196:Drivers/STM32F4xx_HAL_Driver/Src/stm32f4xx_ll_usb.c **** }
1197:Drivers/STM32F4xx_HAL_Driver/Src/stm32f4xx_ll_usb.c **** 
1198:Drivers/STM32F4xx_HAL_Driver/Src/stm32f4xx_ll_usb.c **** /**
1199:Drivers/STM32F4xx_HAL_Driver/Src/stm32f4xx_ll_usb.c ****   * @brief  USB_StopDevice : Stop the usb device mode
1200:Drivers/STM32F4xx_HAL_Driver/Src/stm32f4xx_ll_usb.c ****   * @param  USBx  Selected device
1201:Drivers/STM32F4xx_HAL_Driver/Src/stm32f4xx_ll_usb.c ****   * @retval HAL status
1202:Drivers/STM32F4xx_HAL_Driver/Src/stm32f4xx_ll_usb.c ****   */
1203:Drivers/STM32F4xx_HAL_Driver/Src/stm32f4xx_ll_usb.c **** HAL_StatusTypeDef USB_StopDevice(USB_OTG_GlobalTypeDef *USBx)
1204:Drivers/STM32F4xx_HAL_Driver/Src/stm32f4xx_ll_usb.c **** {
1205:Drivers/STM32F4xx_HAL_Driver/Src/stm32f4xx_ll_usb.c ****   HAL_StatusTypeDef ret;
1206:Drivers/STM32F4xx_HAL_Driver/Src/stm32f4xx_ll_usb.c ****   uint32_t USBx_BASE = (uint32_t)USBx;
1207:Drivers/STM32F4xx_HAL_Driver/Src/stm32f4xx_ll_usb.c ****   uint32_t i;
1208:Drivers/STM32F4xx_HAL_Driver/Src/stm32f4xx_ll_usb.c **** 
1209:Drivers/STM32F4xx_HAL_Driver/Src/stm32f4xx_ll_usb.c ****   /* Clear Pending interrupt */
1210:Drivers/STM32F4xx_HAL_Driver/Src/stm32f4xx_ll_usb.c ****   for (i = 0U; i < 15U; i++)
1211:Drivers/STM32F4xx_HAL_Driver/Src/stm32f4xx_ll_usb.c ****   {
1212:Drivers/STM32F4xx_HAL_Driver/Src/stm32f4xx_ll_usb.c ****     USBx_INEP(i)->DIEPINT = 0xFB7FU;
1213:Drivers/STM32F4xx_HAL_Driver/Src/stm32f4xx_ll_usb.c ****     USBx_OUTEP(i)->DOEPINT = 0xFB7FU;
1214:Drivers/STM32F4xx_HAL_Driver/Src/stm32f4xx_ll_usb.c ****   }
1215:Drivers/STM32F4xx_HAL_Driver/Src/stm32f4xx_ll_usb.c **** 
1216:Drivers/STM32F4xx_HAL_Driver/Src/stm32f4xx_ll_usb.c ****   /* Clear interrupt masks */
1217:Drivers/STM32F4xx_HAL_Driver/Src/stm32f4xx_ll_usb.c ****   USBx_DEVICE->DIEPMSK  = 0U;
1218:Drivers/STM32F4xx_HAL_Driver/Src/stm32f4xx_ll_usb.c ****   USBx_DEVICE->DOEPMSK  = 0U;
1219:Drivers/STM32F4xx_HAL_Driver/Src/stm32f4xx_ll_usb.c ****   USBx_DEVICE->DAINTMSK = 0U;
1220:Drivers/STM32F4xx_HAL_Driver/Src/stm32f4xx_ll_usb.c **** 
1221:Drivers/STM32F4xx_HAL_Driver/Src/stm32f4xx_ll_usb.c ****   /* Flush the FIFO */
1222:Drivers/STM32F4xx_HAL_Driver/Src/stm32f4xx_ll_usb.c ****   ret = USB_FlushRxFifo(USBx);
1223:Drivers/STM32F4xx_HAL_Driver/Src/stm32f4xx_ll_usb.c ****   if (ret != HAL_OK)
1224:Drivers/STM32F4xx_HAL_Driver/Src/stm32f4xx_ll_usb.c ****   {
1225:Drivers/STM32F4xx_HAL_Driver/Src/stm32f4xx_ll_usb.c ****     return ret;
1226:Drivers/STM32F4xx_HAL_Driver/Src/stm32f4xx_ll_usb.c ****   }
1227:Drivers/STM32F4xx_HAL_Driver/Src/stm32f4xx_ll_usb.c **** 
ARM GAS  /tmp/ccfbcrWA.s 			page 23


1228:Drivers/STM32F4xx_HAL_Driver/Src/stm32f4xx_ll_usb.c ****   ret = USB_FlushTxFifo(USBx,  0x10U);
1229:Drivers/STM32F4xx_HAL_Driver/Src/stm32f4xx_ll_usb.c ****   if (ret != HAL_OK)
1230:Drivers/STM32F4xx_HAL_Driver/Src/stm32f4xx_ll_usb.c ****   {
1231:Drivers/STM32F4xx_HAL_Driver/Src/stm32f4xx_ll_usb.c ****     return ret;
1232:Drivers/STM32F4xx_HAL_Driver/Src/stm32f4xx_ll_usb.c ****   }
1233:Drivers/STM32F4xx_HAL_Driver/Src/stm32f4xx_ll_usb.c **** 
1234:Drivers/STM32F4xx_HAL_Driver/Src/stm32f4xx_ll_usb.c ****   return ret;
1235:Drivers/STM32F4xx_HAL_Driver/Src/stm32f4xx_ll_usb.c **** }
1236:Drivers/STM32F4xx_HAL_Driver/Src/stm32f4xx_ll_usb.c **** 
1237:Drivers/STM32F4xx_HAL_Driver/Src/stm32f4xx_ll_usb.c **** /**
1238:Drivers/STM32F4xx_HAL_Driver/Src/stm32f4xx_ll_usb.c ****   * @brief  USB_SetDevAddress : Stop the usb device mode
1239:Drivers/STM32F4xx_HAL_Driver/Src/stm32f4xx_ll_usb.c ****   * @param  USBx  Selected device
1240:Drivers/STM32F4xx_HAL_Driver/Src/stm32f4xx_ll_usb.c ****   * @param  address  new device address to be assigned
1241:Drivers/STM32F4xx_HAL_Driver/Src/stm32f4xx_ll_usb.c ****   *          This parameter can be a value from 0 to 255
1242:Drivers/STM32F4xx_HAL_Driver/Src/stm32f4xx_ll_usb.c ****   * @retval HAL status
1243:Drivers/STM32F4xx_HAL_Driver/Src/stm32f4xx_ll_usb.c ****   */
1244:Drivers/STM32F4xx_HAL_Driver/Src/stm32f4xx_ll_usb.c **** HAL_StatusTypeDef  USB_SetDevAddress(USB_OTG_GlobalTypeDef *USBx, uint8_t address)
1245:Drivers/STM32F4xx_HAL_Driver/Src/stm32f4xx_ll_usb.c **** {
1246:Drivers/STM32F4xx_HAL_Driver/Src/stm32f4xx_ll_usb.c ****   uint32_t USBx_BASE = (uint32_t)USBx;
1247:Drivers/STM32F4xx_HAL_Driver/Src/stm32f4xx_ll_usb.c **** 
1248:Drivers/STM32F4xx_HAL_Driver/Src/stm32f4xx_ll_usb.c ****   USBx_DEVICE->DCFG &= ~(USB_OTG_DCFG_DAD);
1249:Drivers/STM32F4xx_HAL_Driver/Src/stm32f4xx_ll_usb.c ****   USBx_DEVICE->DCFG |= ((uint32_t)address << 4) & USB_OTG_DCFG_DAD;
1250:Drivers/STM32F4xx_HAL_Driver/Src/stm32f4xx_ll_usb.c **** 
1251:Drivers/STM32F4xx_HAL_Driver/Src/stm32f4xx_ll_usb.c ****   return HAL_OK;
1252:Drivers/STM32F4xx_HAL_Driver/Src/stm32f4xx_ll_usb.c **** }
1253:Drivers/STM32F4xx_HAL_Driver/Src/stm32f4xx_ll_usb.c **** 
1254:Drivers/STM32F4xx_HAL_Driver/Src/stm32f4xx_ll_usb.c **** /**
1255:Drivers/STM32F4xx_HAL_Driver/Src/stm32f4xx_ll_usb.c ****   * @brief  USB_DevConnect : Connect the USB device by enabling Rpu
1256:Drivers/STM32F4xx_HAL_Driver/Src/stm32f4xx_ll_usb.c ****   * @param  USBx  Selected device
1257:Drivers/STM32F4xx_HAL_Driver/Src/stm32f4xx_ll_usb.c ****   * @retval HAL status
1258:Drivers/STM32F4xx_HAL_Driver/Src/stm32f4xx_ll_usb.c ****   */
1259:Drivers/STM32F4xx_HAL_Driver/Src/stm32f4xx_ll_usb.c **** HAL_StatusTypeDef  USB_DevConnect(USB_OTG_GlobalTypeDef *USBx)
1260:Drivers/STM32F4xx_HAL_Driver/Src/stm32f4xx_ll_usb.c **** {
1261:Drivers/STM32F4xx_HAL_Driver/Src/stm32f4xx_ll_usb.c ****   uint32_t USBx_BASE = (uint32_t)USBx;
1262:Drivers/STM32F4xx_HAL_Driver/Src/stm32f4xx_ll_usb.c **** 
1263:Drivers/STM32F4xx_HAL_Driver/Src/stm32f4xx_ll_usb.c ****   /* In case phy is stopped, ensure to ungate and restore the phy CLK */
1264:Drivers/STM32F4xx_HAL_Driver/Src/stm32f4xx_ll_usb.c ****   USBx_PCGCCTL &= ~(USB_OTG_PCGCCTL_STOPCLK | USB_OTG_PCGCCTL_GATECLK);
1265:Drivers/STM32F4xx_HAL_Driver/Src/stm32f4xx_ll_usb.c **** 
1266:Drivers/STM32F4xx_HAL_Driver/Src/stm32f4xx_ll_usb.c ****   USBx_DEVICE->DCTL &= ~USB_OTG_DCTL_SDIS;
1267:Drivers/STM32F4xx_HAL_Driver/Src/stm32f4xx_ll_usb.c **** 
1268:Drivers/STM32F4xx_HAL_Driver/Src/stm32f4xx_ll_usb.c ****   return HAL_OK;
1269:Drivers/STM32F4xx_HAL_Driver/Src/stm32f4xx_ll_usb.c **** }
1270:Drivers/STM32F4xx_HAL_Driver/Src/stm32f4xx_ll_usb.c **** 
1271:Drivers/STM32F4xx_HAL_Driver/Src/stm32f4xx_ll_usb.c **** /**
1272:Drivers/STM32F4xx_HAL_Driver/Src/stm32f4xx_ll_usb.c ****   * @brief  USB_DevDisconnect : Disconnect the USB device by disabling Rpu
1273:Drivers/STM32F4xx_HAL_Driver/Src/stm32f4xx_ll_usb.c ****   * @param  USBx  Selected device
1274:Drivers/STM32F4xx_HAL_Driver/Src/stm32f4xx_ll_usb.c ****   * @retval HAL status
1275:Drivers/STM32F4xx_HAL_Driver/Src/stm32f4xx_ll_usb.c ****   */
1276:Drivers/STM32F4xx_HAL_Driver/Src/stm32f4xx_ll_usb.c **** HAL_StatusTypeDef  USB_DevDisconnect(USB_OTG_GlobalTypeDef *USBx)
1277:Drivers/STM32F4xx_HAL_Driver/Src/stm32f4xx_ll_usb.c **** {
1278:Drivers/STM32F4xx_HAL_Driver/Src/stm32f4xx_ll_usb.c ****   uint32_t USBx_BASE = (uint32_t)USBx;
1279:Drivers/STM32F4xx_HAL_Driver/Src/stm32f4xx_ll_usb.c **** 
1280:Drivers/STM32F4xx_HAL_Driver/Src/stm32f4xx_ll_usb.c ****   /* In case phy is stopped, ensure to ungate and restore the phy CLK */
1281:Drivers/STM32F4xx_HAL_Driver/Src/stm32f4xx_ll_usb.c ****   USBx_PCGCCTL &= ~(USB_OTG_PCGCCTL_STOPCLK | USB_OTG_PCGCCTL_GATECLK);
1282:Drivers/STM32F4xx_HAL_Driver/Src/stm32f4xx_ll_usb.c **** 
1283:Drivers/STM32F4xx_HAL_Driver/Src/stm32f4xx_ll_usb.c ****   USBx_DEVICE->DCTL |= USB_OTG_DCTL_SDIS;
1284:Drivers/STM32F4xx_HAL_Driver/Src/stm32f4xx_ll_usb.c **** 
ARM GAS  /tmp/ccfbcrWA.s 			page 24


1285:Drivers/STM32F4xx_HAL_Driver/Src/stm32f4xx_ll_usb.c ****   return HAL_OK;
1286:Drivers/STM32F4xx_HAL_Driver/Src/stm32f4xx_ll_usb.c **** }
1287:Drivers/STM32F4xx_HAL_Driver/Src/stm32f4xx_ll_usb.c **** 
1288:Drivers/STM32F4xx_HAL_Driver/Src/stm32f4xx_ll_usb.c **** /**
1289:Drivers/STM32F4xx_HAL_Driver/Src/stm32f4xx_ll_usb.c ****   * @brief  USB_ReadInterrupts: return the global USB interrupt status
1290:Drivers/STM32F4xx_HAL_Driver/Src/stm32f4xx_ll_usb.c ****   * @param  USBx  Selected device
1291:Drivers/STM32F4xx_HAL_Driver/Src/stm32f4xx_ll_usb.c ****   * @retval HAL status
1292:Drivers/STM32F4xx_HAL_Driver/Src/stm32f4xx_ll_usb.c ****   */
1293:Drivers/STM32F4xx_HAL_Driver/Src/stm32f4xx_ll_usb.c **** uint32_t  USB_ReadInterrupts(USB_OTG_GlobalTypeDef *USBx)
1294:Drivers/STM32F4xx_HAL_Driver/Src/stm32f4xx_ll_usb.c **** {
1295:Drivers/STM32F4xx_HAL_Driver/Src/stm32f4xx_ll_usb.c ****   uint32_t tmpreg;
1296:Drivers/STM32F4xx_HAL_Driver/Src/stm32f4xx_ll_usb.c **** 
1297:Drivers/STM32F4xx_HAL_Driver/Src/stm32f4xx_ll_usb.c ****   tmpreg = USBx->GINTSTS;
1298:Drivers/STM32F4xx_HAL_Driver/Src/stm32f4xx_ll_usb.c ****   tmpreg &= USBx->GINTMSK;
1299:Drivers/STM32F4xx_HAL_Driver/Src/stm32f4xx_ll_usb.c **** 
1300:Drivers/STM32F4xx_HAL_Driver/Src/stm32f4xx_ll_usb.c ****   return tmpreg;
1301:Drivers/STM32F4xx_HAL_Driver/Src/stm32f4xx_ll_usb.c **** }
1302:Drivers/STM32F4xx_HAL_Driver/Src/stm32f4xx_ll_usb.c **** 
1303:Drivers/STM32F4xx_HAL_Driver/Src/stm32f4xx_ll_usb.c **** /**
1304:Drivers/STM32F4xx_HAL_Driver/Src/stm32f4xx_ll_usb.c ****   * @brief  USB_ReadDevAllOutEpInterrupt: return the USB device OUT endpoints interrupt status
1305:Drivers/STM32F4xx_HAL_Driver/Src/stm32f4xx_ll_usb.c ****   * @param  USBx  Selected device
1306:Drivers/STM32F4xx_HAL_Driver/Src/stm32f4xx_ll_usb.c ****   * @retval HAL status
1307:Drivers/STM32F4xx_HAL_Driver/Src/stm32f4xx_ll_usb.c ****   */
1308:Drivers/STM32F4xx_HAL_Driver/Src/stm32f4xx_ll_usb.c **** uint32_t USB_ReadDevAllOutEpInterrupt(USB_OTG_GlobalTypeDef *USBx)
1309:Drivers/STM32F4xx_HAL_Driver/Src/stm32f4xx_ll_usb.c **** {
1310:Drivers/STM32F4xx_HAL_Driver/Src/stm32f4xx_ll_usb.c ****   uint32_t USBx_BASE = (uint32_t)USBx;
1311:Drivers/STM32F4xx_HAL_Driver/Src/stm32f4xx_ll_usb.c ****   uint32_t tmpreg;
1312:Drivers/STM32F4xx_HAL_Driver/Src/stm32f4xx_ll_usb.c **** 
1313:Drivers/STM32F4xx_HAL_Driver/Src/stm32f4xx_ll_usb.c ****   tmpreg  = USBx_DEVICE->DAINT;
1314:Drivers/STM32F4xx_HAL_Driver/Src/stm32f4xx_ll_usb.c ****   tmpreg &= USBx_DEVICE->DAINTMSK;
1315:Drivers/STM32F4xx_HAL_Driver/Src/stm32f4xx_ll_usb.c **** 
1316:Drivers/STM32F4xx_HAL_Driver/Src/stm32f4xx_ll_usb.c ****   return ((tmpreg & 0xffff0000U) >> 16);
1317:Drivers/STM32F4xx_HAL_Driver/Src/stm32f4xx_ll_usb.c **** }
1318:Drivers/STM32F4xx_HAL_Driver/Src/stm32f4xx_ll_usb.c **** 
1319:Drivers/STM32F4xx_HAL_Driver/Src/stm32f4xx_ll_usb.c **** /**
1320:Drivers/STM32F4xx_HAL_Driver/Src/stm32f4xx_ll_usb.c ****   * @brief  USB_ReadDevAllInEpInterrupt: return the USB device IN endpoints interrupt status
1321:Drivers/STM32F4xx_HAL_Driver/Src/stm32f4xx_ll_usb.c ****   * @param  USBx  Selected device
1322:Drivers/STM32F4xx_HAL_Driver/Src/stm32f4xx_ll_usb.c ****   * @retval HAL status
1323:Drivers/STM32F4xx_HAL_Driver/Src/stm32f4xx_ll_usb.c ****   */
1324:Drivers/STM32F4xx_HAL_Driver/Src/stm32f4xx_ll_usb.c **** uint32_t USB_ReadDevAllInEpInterrupt(USB_OTG_GlobalTypeDef *USBx)
1325:Drivers/STM32F4xx_HAL_Driver/Src/stm32f4xx_ll_usb.c **** {
1326:Drivers/STM32F4xx_HAL_Driver/Src/stm32f4xx_ll_usb.c ****   uint32_t USBx_BASE = (uint32_t)USBx;
1327:Drivers/STM32F4xx_HAL_Driver/Src/stm32f4xx_ll_usb.c ****   uint32_t tmpreg;
1328:Drivers/STM32F4xx_HAL_Driver/Src/stm32f4xx_ll_usb.c **** 
1329:Drivers/STM32F4xx_HAL_Driver/Src/stm32f4xx_ll_usb.c ****   tmpreg  = USBx_DEVICE->DAINT;
1330:Drivers/STM32F4xx_HAL_Driver/Src/stm32f4xx_ll_usb.c ****   tmpreg &= USBx_DEVICE->DAINTMSK;
1331:Drivers/STM32F4xx_HAL_Driver/Src/stm32f4xx_ll_usb.c **** 
1332:Drivers/STM32F4xx_HAL_Driver/Src/stm32f4xx_ll_usb.c ****   return ((tmpreg & 0xFFFFU));
1333:Drivers/STM32F4xx_HAL_Driver/Src/stm32f4xx_ll_usb.c **** }
1334:Drivers/STM32F4xx_HAL_Driver/Src/stm32f4xx_ll_usb.c **** 
1335:Drivers/STM32F4xx_HAL_Driver/Src/stm32f4xx_ll_usb.c **** /**
1336:Drivers/STM32F4xx_HAL_Driver/Src/stm32f4xx_ll_usb.c ****   * @brief  Returns Device OUT EP Interrupt register
1337:Drivers/STM32F4xx_HAL_Driver/Src/stm32f4xx_ll_usb.c ****   * @param  USBx  Selected device
1338:Drivers/STM32F4xx_HAL_Driver/Src/stm32f4xx_ll_usb.c ****   * @param  epnum  endpoint number
1339:Drivers/STM32F4xx_HAL_Driver/Src/stm32f4xx_ll_usb.c ****   *          This parameter can be a value from 0 to 15
1340:Drivers/STM32F4xx_HAL_Driver/Src/stm32f4xx_ll_usb.c ****   * @retval Device OUT EP Interrupt register
1341:Drivers/STM32F4xx_HAL_Driver/Src/stm32f4xx_ll_usb.c ****   */
ARM GAS  /tmp/ccfbcrWA.s 			page 25


1342:Drivers/STM32F4xx_HAL_Driver/Src/stm32f4xx_ll_usb.c **** uint32_t USB_ReadDevOutEPInterrupt(USB_OTG_GlobalTypeDef *USBx, uint8_t epnum)
1343:Drivers/STM32F4xx_HAL_Driver/Src/stm32f4xx_ll_usb.c **** {
1344:Drivers/STM32F4xx_HAL_Driver/Src/stm32f4xx_ll_usb.c ****   uint32_t USBx_BASE = (uint32_t)USBx;
1345:Drivers/STM32F4xx_HAL_Driver/Src/stm32f4xx_ll_usb.c ****   uint32_t tmpreg;
1346:Drivers/STM32F4xx_HAL_Driver/Src/stm32f4xx_ll_usb.c **** 
1347:Drivers/STM32F4xx_HAL_Driver/Src/stm32f4xx_ll_usb.c ****   tmpreg  = USBx_OUTEP((uint32_t)epnum)->DOEPINT;
1348:Drivers/STM32F4xx_HAL_Driver/Src/stm32f4xx_ll_usb.c ****   tmpreg &= USBx_DEVICE->DOEPMSK;
1349:Drivers/STM32F4xx_HAL_Driver/Src/stm32f4xx_ll_usb.c **** 
1350:Drivers/STM32F4xx_HAL_Driver/Src/stm32f4xx_ll_usb.c ****   return tmpreg;
1351:Drivers/STM32F4xx_HAL_Driver/Src/stm32f4xx_ll_usb.c **** }
1352:Drivers/STM32F4xx_HAL_Driver/Src/stm32f4xx_ll_usb.c **** 
1353:Drivers/STM32F4xx_HAL_Driver/Src/stm32f4xx_ll_usb.c **** /**
1354:Drivers/STM32F4xx_HAL_Driver/Src/stm32f4xx_ll_usb.c ****   * @brief  Returns Device IN EP Interrupt register
1355:Drivers/STM32F4xx_HAL_Driver/Src/stm32f4xx_ll_usb.c ****   * @param  USBx  Selected device
1356:Drivers/STM32F4xx_HAL_Driver/Src/stm32f4xx_ll_usb.c ****   * @param  epnum  endpoint number
1357:Drivers/STM32F4xx_HAL_Driver/Src/stm32f4xx_ll_usb.c ****   *          This parameter can be a value from 0 to 15
1358:Drivers/STM32F4xx_HAL_Driver/Src/stm32f4xx_ll_usb.c ****   * @retval Device IN EP Interrupt register
1359:Drivers/STM32F4xx_HAL_Driver/Src/stm32f4xx_ll_usb.c ****   */
1360:Drivers/STM32F4xx_HAL_Driver/Src/stm32f4xx_ll_usb.c **** uint32_t USB_ReadDevInEPInterrupt(USB_OTG_GlobalTypeDef *USBx, uint8_t epnum)
1361:Drivers/STM32F4xx_HAL_Driver/Src/stm32f4xx_ll_usb.c **** {
1362:Drivers/STM32F4xx_HAL_Driver/Src/stm32f4xx_ll_usb.c ****   uint32_t USBx_BASE = (uint32_t)USBx;
1363:Drivers/STM32F4xx_HAL_Driver/Src/stm32f4xx_ll_usb.c ****   uint32_t tmpreg;
1364:Drivers/STM32F4xx_HAL_Driver/Src/stm32f4xx_ll_usb.c ****   uint32_t msk;
1365:Drivers/STM32F4xx_HAL_Driver/Src/stm32f4xx_ll_usb.c ****   uint32_t emp;
1366:Drivers/STM32F4xx_HAL_Driver/Src/stm32f4xx_ll_usb.c **** 
1367:Drivers/STM32F4xx_HAL_Driver/Src/stm32f4xx_ll_usb.c ****   msk = USBx_DEVICE->DIEPMSK;
1368:Drivers/STM32F4xx_HAL_Driver/Src/stm32f4xx_ll_usb.c ****   emp = USBx_DEVICE->DIEPEMPMSK;
1369:Drivers/STM32F4xx_HAL_Driver/Src/stm32f4xx_ll_usb.c ****   msk |= ((emp >> (epnum & EP_ADDR_MSK)) & 0x1U) << 7;
1370:Drivers/STM32F4xx_HAL_Driver/Src/stm32f4xx_ll_usb.c ****   tmpreg = USBx_INEP((uint32_t)epnum)->DIEPINT & msk;
1371:Drivers/STM32F4xx_HAL_Driver/Src/stm32f4xx_ll_usb.c **** 
1372:Drivers/STM32F4xx_HAL_Driver/Src/stm32f4xx_ll_usb.c ****   return tmpreg;
1373:Drivers/STM32F4xx_HAL_Driver/Src/stm32f4xx_ll_usb.c **** }
1374:Drivers/STM32F4xx_HAL_Driver/Src/stm32f4xx_ll_usb.c **** 
1375:Drivers/STM32F4xx_HAL_Driver/Src/stm32f4xx_ll_usb.c **** /**
1376:Drivers/STM32F4xx_HAL_Driver/Src/stm32f4xx_ll_usb.c ****   * @brief  USB_ClearInterrupts: clear a USB interrupt
1377:Drivers/STM32F4xx_HAL_Driver/Src/stm32f4xx_ll_usb.c ****   * @param  USBx  Selected device
1378:Drivers/STM32F4xx_HAL_Driver/Src/stm32f4xx_ll_usb.c ****   * @param  interrupt  flag
1379:Drivers/STM32F4xx_HAL_Driver/Src/stm32f4xx_ll_usb.c ****   * @retval None
1380:Drivers/STM32F4xx_HAL_Driver/Src/stm32f4xx_ll_usb.c ****   */
1381:Drivers/STM32F4xx_HAL_Driver/Src/stm32f4xx_ll_usb.c **** void  USB_ClearInterrupts(USB_OTG_GlobalTypeDef *USBx, uint32_t interrupt)
1382:Drivers/STM32F4xx_HAL_Driver/Src/stm32f4xx_ll_usb.c **** {
1383:Drivers/STM32F4xx_HAL_Driver/Src/stm32f4xx_ll_usb.c ****   USBx->GINTSTS |= interrupt;
1384:Drivers/STM32F4xx_HAL_Driver/Src/stm32f4xx_ll_usb.c **** }
1385:Drivers/STM32F4xx_HAL_Driver/Src/stm32f4xx_ll_usb.c **** 
1386:Drivers/STM32F4xx_HAL_Driver/Src/stm32f4xx_ll_usb.c **** /**
1387:Drivers/STM32F4xx_HAL_Driver/Src/stm32f4xx_ll_usb.c ****   * @brief  Returns USB core mode
1388:Drivers/STM32F4xx_HAL_Driver/Src/stm32f4xx_ll_usb.c ****   * @param  USBx  Selected device
1389:Drivers/STM32F4xx_HAL_Driver/Src/stm32f4xx_ll_usb.c ****   * @retval return core mode : Host or Device
1390:Drivers/STM32F4xx_HAL_Driver/Src/stm32f4xx_ll_usb.c ****   *          This parameter can be one of these values:
1391:Drivers/STM32F4xx_HAL_Driver/Src/stm32f4xx_ll_usb.c ****   *           0 : Host
1392:Drivers/STM32F4xx_HAL_Driver/Src/stm32f4xx_ll_usb.c ****   *           1 : Device
1393:Drivers/STM32F4xx_HAL_Driver/Src/stm32f4xx_ll_usb.c ****   */
1394:Drivers/STM32F4xx_HAL_Driver/Src/stm32f4xx_ll_usb.c **** uint32_t USB_GetMode(USB_OTG_GlobalTypeDef *USBx)
1395:Drivers/STM32F4xx_HAL_Driver/Src/stm32f4xx_ll_usb.c **** {
1396:Drivers/STM32F4xx_HAL_Driver/Src/stm32f4xx_ll_usb.c ****   return ((USBx->GINTSTS) & 0x1U);
1397:Drivers/STM32F4xx_HAL_Driver/Src/stm32f4xx_ll_usb.c **** }
1398:Drivers/STM32F4xx_HAL_Driver/Src/stm32f4xx_ll_usb.c **** 
ARM GAS  /tmp/ccfbcrWA.s 			page 26


1399:Drivers/STM32F4xx_HAL_Driver/Src/stm32f4xx_ll_usb.c **** /**
1400:Drivers/STM32F4xx_HAL_Driver/Src/stm32f4xx_ll_usb.c ****   * @brief  Activate EP0 for Setup transactions
1401:Drivers/STM32F4xx_HAL_Driver/Src/stm32f4xx_ll_usb.c ****   * @param  USBx  Selected device
1402:Drivers/STM32F4xx_HAL_Driver/Src/stm32f4xx_ll_usb.c ****   * @retval HAL status
1403:Drivers/STM32F4xx_HAL_Driver/Src/stm32f4xx_ll_usb.c ****   */
1404:Drivers/STM32F4xx_HAL_Driver/Src/stm32f4xx_ll_usb.c **** HAL_StatusTypeDef  USB_ActivateSetup(USB_OTG_GlobalTypeDef *USBx)
1405:Drivers/STM32F4xx_HAL_Driver/Src/stm32f4xx_ll_usb.c **** {
1406:Drivers/STM32F4xx_HAL_Driver/Src/stm32f4xx_ll_usb.c ****   uint32_t USBx_BASE = (uint32_t)USBx;
1407:Drivers/STM32F4xx_HAL_Driver/Src/stm32f4xx_ll_usb.c **** 
1408:Drivers/STM32F4xx_HAL_Driver/Src/stm32f4xx_ll_usb.c ****   /* Set the MPS of the IN EP0 to 64 bytes */
1409:Drivers/STM32F4xx_HAL_Driver/Src/stm32f4xx_ll_usb.c ****   USBx_INEP(0U)->DIEPCTL &= ~USB_OTG_DIEPCTL_MPSIZ;
1410:Drivers/STM32F4xx_HAL_Driver/Src/stm32f4xx_ll_usb.c **** 
1411:Drivers/STM32F4xx_HAL_Driver/Src/stm32f4xx_ll_usb.c ****   USBx_DEVICE->DCTL |= USB_OTG_DCTL_CGINAK;
1412:Drivers/STM32F4xx_HAL_Driver/Src/stm32f4xx_ll_usb.c **** 
1413:Drivers/STM32F4xx_HAL_Driver/Src/stm32f4xx_ll_usb.c ****   return HAL_OK;
1414:Drivers/STM32F4xx_HAL_Driver/Src/stm32f4xx_ll_usb.c **** }
1415:Drivers/STM32F4xx_HAL_Driver/Src/stm32f4xx_ll_usb.c **** 
1416:Drivers/STM32F4xx_HAL_Driver/Src/stm32f4xx_ll_usb.c **** /**
1417:Drivers/STM32F4xx_HAL_Driver/Src/stm32f4xx_ll_usb.c ****   * @brief  Prepare the EP0 to start the first control setup
1418:Drivers/STM32F4xx_HAL_Driver/Src/stm32f4xx_ll_usb.c ****   * @param  USBx  Selected device
1419:Drivers/STM32F4xx_HAL_Driver/Src/stm32f4xx_ll_usb.c ****   * @param  dma USB dma enabled or disabled
1420:Drivers/STM32F4xx_HAL_Driver/Src/stm32f4xx_ll_usb.c ****   *          This parameter can be one of these values:
1421:Drivers/STM32F4xx_HAL_Driver/Src/stm32f4xx_ll_usb.c ****   *           0 : DMA feature not used
1422:Drivers/STM32F4xx_HAL_Driver/Src/stm32f4xx_ll_usb.c ****   *           1 : DMA feature used
1423:Drivers/STM32F4xx_HAL_Driver/Src/stm32f4xx_ll_usb.c ****   * @param  psetup  pointer to setup packet
1424:Drivers/STM32F4xx_HAL_Driver/Src/stm32f4xx_ll_usb.c ****   * @retval HAL status
1425:Drivers/STM32F4xx_HAL_Driver/Src/stm32f4xx_ll_usb.c ****   */
1426:Drivers/STM32F4xx_HAL_Driver/Src/stm32f4xx_ll_usb.c **** HAL_StatusTypeDef USB_EP0_OutStart(USB_OTG_GlobalTypeDef *USBx, uint8_t dma, uint8_t *psetup)
1427:Drivers/STM32F4xx_HAL_Driver/Src/stm32f4xx_ll_usb.c **** {
1428:Drivers/STM32F4xx_HAL_Driver/Src/stm32f4xx_ll_usb.c ****   uint32_t USBx_BASE = (uint32_t)USBx;
1429:Drivers/STM32F4xx_HAL_Driver/Src/stm32f4xx_ll_usb.c ****   uint32_t gSNPSiD = *(__IO uint32_t *)(&USBx->CID + 0x1U);
1430:Drivers/STM32F4xx_HAL_Driver/Src/stm32f4xx_ll_usb.c **** 
1431:Drivers/STM32F4xx_HAL_Driver/Src/stm32f4xx_ll_usb.c ****   if (gSNPSiD > USB_OTG_CORE_ID_300A)
1432:Drivers/STM32F4xx_HAL_Driver/Src/stm32f4xx_ll_usb.c ****   {
1433:Drivers/STM32F4xx_HAL_Driver/Src/stm32f4xx_ll_usb.c ****     if ((USBx_OUTEP(0U)->DOEPCTL & USB_OTG_DOEPCTL_EPENA) == USB_OTG_DOEPCTL_EPENA)
1434:Drivers/STM32F4xx_HAL_Driver/Src/stm32f4xx_ll_usb.c ****     {
1435:Drivers/STM32F4xx_HAL_Driver/Src/stm32f4xx_ll_usb.c ****       return HAL_OK;
1436:Drivers/STM32F4xx_HAL_Driver/Src/stm32f4xx_ll_usb.c ****     }
1437:Drivers/STM32F4xx_HAL_Driver/Src/stm32f4xx_ll_usb.c ****   }
1438:Drivers/STM32F4xx_HAL_Driver/Src/stm32f4xx_ll_usb.c **** 
1439:Drivers/STM32F4xx_HAL_Driver/Src/stm32f4xx_ll_usb.c ****   USBx_OUTEP(0U)->DOEPTSIZ = 0U;
1440:Drivers/STM32F4xx_HAL_Driver/Src/stm32f4xx_ll_usb.c ****   USBx_OUTEP(0U)->DOEPTSIZ |= (USB_OTG_DOEPTSIZ_PKTCNT & (1U << 19));
1441:Drivers/STM32F4xx_HAL_Driver/Src/stm32f4xx_ll_usb.c ****   USBx_OUTEP(0U)->DOEPTSIZ |= (3U * 8U);
1442:Drivers/STM32F4xx_HAL_Driver/Src/stm32f4xx_ll_usb.c ****   USBx_OUTEP(0U)->DOEPTSIZ |=  USB_OTG_DOEPTSIZ_STUPCNT;
1443:Drivers/STM32F4xx_HAL_Driver/Src/stm32f4xx_ll_usb.c **** 
1444:Drivers/STM32F4xx_HAL_Driver/Src/stm32f4xx_ll_usb.c ****   if (dma == 1U)
1445:Drivers/STM32F4xx_HAL_Driver/Src/stm32f4xx_ll_usb.c ****   {
1446:Drivers/STM32F4xx_HAL_Driver/Src/stm32f4xx_ll_usb.c ****     USBx_OUTEP(0U)->DOEPDMA = (uint32_t)psetup;
1447:Drivers/STM32F4xx_HAL_Driver/Src/stm32f4xx_ll_usb.c ****     /* EP enable */
1448:Drivers/STM32F4xx_HAL_Driver/Src/stm32f4xx_ll_usb.c ****     USBx_OUTEP(0U)->DOEPCTL |= USB_OTG_DOEPCTL_EPENA | USB_OTG_DOEPCTL_USBAEP;
1449:Drivers/STM32F4xx_HAL_Driver/Src/stm32f4xx_ll_usb.c ****   }
1450:Drivers/STM32F4xx_HAL_Driver/Src/stm32f4xx_ll_usb.c **** 
1451:Drivers/STM32F4xx_HAL_Driver/Src/stm32f4xx_ll_usb.c ****   return HAL_OK;
1452:Drivers/STM32F4xx_HAL_Driver/Src/stm32f4xx_ll_usb.c **** }
1453:Drivers/STM32F4xx_HAL_Driver/Src/stm32f4xx_ll_usb.c **** 
1454:Drivers/STM32F4xx_HAL_Driver/Src/stm32f4xx_ll_usb.c **** /**
1455:Drivers/STM32F4xx_HAL_Driver/Src/stm32f4xx_ll_usb.c ****   * @brief  Reset the USB Core (needed after USB clock settings change)
ARM GAS  /tmp/ccfbcrWA.s 			page 27


1456:Drivers/STM32F4xx_HAL_Driver/Src/stm32f4xx_ll_usb.c ****   * @param  USBx  Selected device
1457:Drivers/STM32F4xx_HAL_Driver/Src/stm32f4xx_ll_usb.c ****   * @retval HAL status
1458:Drivers/STM32F4xx_HAL_Driver/Src/stm32f4xx_ll_usb.c ****   */
1459:Drivers/STM32F4xx_HAL_Driver/Src/stm32f4xx_ll_usb.c **** static HAL_StatusTypeDef USB_CoreReset(USB_OTG_GlobalTypeDef *USBx)
1460:Drivers/STM32F4xx_HAL_Driver/Src/stm32f4xx_ll_usb.c **** {
  29              		.loc 1 1460 1 view -0
  30              		.cfi_startproc
  31              		@ args = 0, pretend = 0, frame = 8
  32              		@ frame_needed = 0, uses_anonymous_args = 0
  33              		@ link register save eliminated.
  34              		.loc 1 1460 1 is_stmt 0 view .LVU1
  35 0000 82B0     		sub	sp, sp, #8
  36              	.LCFI0:
  37              		.cfi_def_cfa_offset 8
1461:Drivers/STM32F4xx_HAL_Driver/Src/stm32f4xx_ll_usb.c ****   __IO uint32_t count = 0U;
  38              		.loc 1 1461 3 is_stmt 1 view .LVU2
  39              		.loc 1 1461 17 is_stmt 0 view .LVU3
  40 0002 0023     		movs	r3, #0
  41 0004 0193     		str	r3, [sp, #4]
  42              	.L3:
1462:Drivers/STM32F4xx_HAL_Driver/Src/stm32f4xx_ll_usb.c **** 
1463:Drivers/STM32F4xx_HAL_Driver/Src/stm32f4xx_ll_usb.c ****   /* Wait for AHB master IDLE state. */
1464:Drivers/STM32F4xx_HAL_Driver/Src/stm32f4xx_ll_usb.c ****   do
  43              		.loc 1 1464 3 is_stmt 1 view .LVU4
1465:Drivers/STM32F4xx_HAL_Driver/Src/stm32f4xx_ll_usb.c ****   {
1466:Drivers/STM32F4xx_HAL_Driver/Src/stm32f4xx_ll_usb.c ****     count++;
  44              		.loc 1 1466 5 view .LVU5
  45              		.loc 1 1466 10 is_stmt 0 view .LVU6
  46 0006 019B     		ldr	r3, [sp, #4]
  47 0008 0133     		adds	r3, r3, #1
  48 000a 0193     		str	r3, [sp, #4]
1467:Drivers/STM32F4xx_HAL_Driver/Src/stm32f4xx_ll_usb.c **** 
1468:Drivers/STM32F4xx_HAL_Driver/Src/stm32f4xx_ll_usb.c ****     if (count > 200000U)
  49              		.loc 1 1468 5 is_stmt 1 view .LVU7
  50              		.loc 1 1468 15 is_stmt 0 view .LVU8
  51 000c 019A     		ldr	r2, [sp, #4]
  52              		.loc 1 1468 8 view .LVU9
  53 000e 0F4B     		ldr	r3, .L8
  54 0010 9A42     		cmp	r2, r3
  55 0012 15D8     		bhi	.L5
1469:Drivers/STM32F4xx_HAL_Driver/Src/stm32f4xx_ll_usb.c ****     {
1470:Drivers/STM32F4xx_HAL_Driver/Src/stm32f4xx_ll_usb.c ****       return HAL_TIMEOUT;
1471:Drivers/STM32F4xx_HAL_Driver/Src/stm32f4xx_ll_usb.c ****     }
1472:Drivers/STM32F4xx_HAL_Driver/Src/stm32f4xx_ll_usb.c ****   } while ((USBx->GRSTCTL & USB_OTG_GRSTCTL_AHBIDL) == 0U);
  56              		.loc 1 1472 11 is_stmt 1 view .LVU10
  57              		.loc 1 1472 17 is_stmt 0 view .LVU11
  58 0014 0369     		ldr	r3, [r0, #16]
  59              		.loc 1 1472 3 view .LVU12
  60 0016 002B     		cmp	r3, #0
  61 0018 F5DA     		bge	.L3
1473:Drivers/STM32F4xx_HAL_Driver/Src/stm32f4xx_ll_usb.c **** 
1474:Drivers/STM32F4xx_HAL_Driver/Src/stm32f4xx_ll_usb.c ****   /* Core Soft Reset */
1475:Drivers/STM32F4xx_HAL_Driver/Src/stm32f4xx_ll_usb.c ****   count = 0U;
  62              		.loc 1 1475 3 is_stmt 1 view .LVU13
  63              		.loc 1 1475 9 is_stmt 0 view .LVU14
  64 001a 0023     		movs	r3, #0
  65 001c 0193     		str	r3, [sp, #4]
ARM GAS  /tmp/ccfbcrWA.s 			page 28


1476:Drivers/STM32F4xx_HAL_Driver/Src/stm32f4xx_ll_usb.c ****   USBx->GRSTCTL |= USB_OTG_GRSTCTL_CSRST;
  66              		.loc 1 1476 3 is_stmt 1 view .LVU15
  67              		.loc 1 1476 17 is_stmt 0 view .LVU16
  68 001e 0369     		ldr	r3, [r0, #16]
  69 0020 43F00103 		orr	r3, r3, #1
  70 0024 0361     		str	r3, [r0, #16]
  71              	.L4:
1477:Drivers/STM32F4xx_HAL_Driver/Src/stm32f4xx_ll_usb.c **** 
1478:Drivers/STM32F4xx_HAL_Driver/Src/stm32f4xx_ll_usb.c ****   do
  72              		.loc 1 1478 3 is_stmt 1 view .LVU17
1479:Drivers/STM32F4xx_HAL_Driver/Src/stm32f4xx_ll_usb.c ****   {
1480:Drivers/STM32F4xx_HAL_Driver/Src/stm32f4xx_ll_usb.c ****     count++;
  73              		.loc 1 1480 5 view .LVU18
  74              		.loc 1 1480 10 is_stmt 0 view .LVU19
  75 0026 019B     		ldr	r3, [sp, #4]
  76 0028 0133     		adds	r3, r3, #1
  77 002a 0193     		str	r3, [sp, #4]
1481:Drivers/STM32F4xx_HAL_Driver/Src/stm32f4xx_ll_usb.c **** 
1482:Drivers/STM32F4xx_HAL_Driver/Src/stm32f4xx_ll_usb.c ****     if (count > 200000U)
  78              		.loc 1 1482 5 is_stmt 1 view .LVU20
  79              		.loc 1 1482 15 is_stmt 0 view .LVU21
  80 002c 019A     		ldr	r2, [sp, #4]
  81              		.loc 1 1482 8 view .LVU22
  82 002e 074B     		ldr	r3, .L8
  83 0030 9A42     		cmp	r2, r3
  84 0032 08D8     		bhi	.L6
1483:Drivers/STM32F4xx_HAL_Driver/Src/stm32f4xx_ll_usb.c ****     {
1484:Drivers/STM32F4xx_HAL_Driver/Src/stm32f4xx_ll_usb.c ****       return HAL_TIMEOUT;
1485:Drivers/STM32F4xx_HAL_Driver/Src/stm32f4xx_ll_usb.c ****     }
1486:Drivers/STM32F4xx_HAL_Driver/Src/stm32f4xx_ll_usb.c ****   } while ((USBx->GRSTCTL & USB_OTG_GRSTCTL_CSRST) == USB_OTG_GRSTCTL_CSRST);
  85              		.loc 1 1486 11 is_stmt 1 view .LVU23
  86              		.loc 1 1486 17 is_stmt 0 view .LVU24
  87 0034 0369     		ldr	r3, [r0, #16]
  88              		.loc 1 1486 3 view .LVU25
  89 0036 13F0010F 		tst	r3, #1
  90 003a F4D1     		bne	.L4
1487:Drivers/STM32F4xx_HAL_Driver/Src/stm32f4xx_ll_usb.c **** 
1488:Drivers/STM32F4xx_HAL_Driver/Src/stm32f4xx_ll_usb.c ****   return HAL_OK;
  91              		.loc 1 1488 10 view .LVU26
  92 003c 0020     		movs	r0, #0
  93              	.LVL1:
  94              		.loc 1 1488 10 view .LVU27
  95 003e 00E0     		b	.L2
  96              	.LVL2:
  97              	.L5:
1470:Drivers/STM32F4xx_HAL_Driver/Src/stm32f4xx_ll_usb.c ****     }
  98              		.loc 1 1470 14 view .LVU28
  99 0040 0320     		movs	r0, #3
 100              	.LVL3:
 101              	.L2:
1489:Drivers/STM32F4xx_HAL_Driver/Src/stm32f4xx_ll_usb.c **** }
 102              		.loc 1 1489 1 view .LVU29
 103 0042 02B0     		add	sp, sp, #8
 104              	.LCFI1:
 105              		.cfi_remember_state
 106              		.cfi_def_cfa_offset 0
 107              		@ sp needed
ARM GAS  /tmp/ccfbcrWA.s 			page 29


 108 0044 7047     		bx	lr
 109              	.LVL4:
 110              	.L6:
 111              	.LCFI2:
 112              		.cfi_restore_state
1484:Drivers/STM32F4xx_HAL_Driver/Src/stm32f4xx_ll_usb.c ****     }
 113              		.loc 1 1484 14 view .LVU30
 114 0046 0320     		movs	r0, #3
 115              	.LVL5:
1484:Drivers/STM32F4xx_HAL_Driver/Src/stm32f4xx_ll_usb.c ****     }
 116              		.loc 1 1484 14 view .LVU31
 117 0048 FBE7     		b	.L2
 118              	.L9:
 119 004a 00BF     		.align	2
 120              	.L8:
 121 004c 400D0300 		.word	200000
 122              		.cfi_endproc
 123              	.LFE164:
 125              		.section	.text.USB_CoreInit,"ax",%progbits
 126              		.align	1
 127              		.global	USB_CoreInit
 128              		.syntax unified
 129              		.thumb
 130              		.thumb_func
 131              		.fpu fpv4-sp-d16
 133              	USB_CoreInit:
 134              	.LVL6:
 135              	.LFB130:
  84:Drivers/STM32F4xx_HAL_Driver/Src/stm32f4xx_ll_usb.c ****   HAL_StatusTypeDef ret;
 136              		.loc 1 84 1 is_stmt 1 view -0
 137              		.cfi_startproc
 138              		@ args = 56, pretend = 16, frame = 0
 139              		@ frame_needed = 0, uses_anonymous_args = 0
  84:Drivers/STM32F4xx_HAL_Driver/Src/stm32f4xx_ll_usb.c ****   HAL_StatusTypeDef ret;
 140              		.loc 1 84 1 is_stmt 0 view .LVU33
 141 0000 84B0     		sub	sp, sp, #16
 142              	.LCFI3:
 143              		.cfi_def_cfa_offset 16
 144 0002 10B5     		push	{r4, lr}
 145              	.LCFI4:
 146              		.cfi_def_cfa_offset 24
 147              		.cfi_offset 4, -24
 148              		.cfi_offset 14, -20
 149 0004 0446     		mov	r4, r0
 150 0006 03A8     		add	r0, sp, #12
 151 0008 80E80E00 		stm	r0, {r1, r2, r3}
  85:Drivers/STM32F4xx_HAL_Driver/Src/stm32f4xx_ll_usb.c ****   if (cfg.phy_itface == USB_OTG_ULPI_PHY)
 152              		.loc 1 85 3 is_stmt 1 view .LVU34
  86:Drivers/STM32F4xx_HAL_Driver/Src/stm32f4xx_ll_usb.c ****   {
 153              		.loc 1 86 3 view .LVU35
  86:Drivers/STM32F4xx_HAL_Driver/Src/stm32f4xx_ll_usb.c ****   {
 154              		.loc 1 86 10 is_stmt 0 view .LVU36
 155 000c 089B     		ldr	r3, [sp, #32]
  86:Drivers/STM32F4xx_HAL_Driver/Src/stm32f4xx_ll_usb.c ****   {
 156              		.loc 1 86 6 view .LVU37
 157 000e 012B     		cmp	r3, #1
 158 0010 1FD1     		bne	.L11
ARM GAS  /tmp/ccfbcrWA.s 			page 30


  88:Drivers/STM32F4xx_HAL_Driver/Src/stm32f4xx_ll_usb.c **** 
 159              		.loc 1 88 5 is_stmt 1 view .LVU38
  88:Drivers/STM32F4xx_HAL_Driver/Src/stm32f4xx_ll_usb.c **** 
 160              		.loc 1 88 17 is_stmt 0 view .LVU39
 161 0012 A36B     		ldr	r3, [r4, #56]
 162 0014 23F48033 		bic	r3, r3, #65536
 163 0018 A363     		str	r3, [r4, #56]
  91:Drivers/STM32F4xx_HAL_Driver/Src/stm32f4xx_ll_usb.c **** 
 164              		.loc 1 91 5 is_stmt 1 view .LVU40
  91:Drivers/STM32F4xx_HAL_Driver/Src/stm32f4xx_ll_usb.c **** 
 165              		.loc 1 91 19 is_stmt 0 view .LVU41
 166 001a E368     		ldr	r3, [r4, #12]
 167 001c 23F48403 		bic	r3, r3, #4325376
 168 0020 23F04003 		bic	r3, r3, #64
 169 0024 E360     		str	r3, [r4, #12]
  94:Drivers/STM32F4xx_HAL_Driver/Src/stm32f4xx_ll_usb.c ****     if (cfg.use_external_vbus == 1U)
 170              		.loc 1 94 5 is_stmt 1 view .LVU42
  94:Drivers/STM32F4xx_HAL_Driver/Src/stm32f4xx_ll_usb.c ****     if (cfg.use_external_vbus == 1U)
 171              		.loc 1 94 19 is_stmt 0 view .LVU43
 172 0026 E368     		ldr	r3, [r4, #12]
 173 0028 23F44013 		bic	r3, r3, #3145728
 174 002c E360     		str	r3, [r4, #12]
  95:Drivers/STM32F4xx_HAL_Driver/Src/stm32f4xx_ll_usb.c ****     {
 175              		.loc 1 95 5 is_stmt 1 view .LVU44
  95:Drivers/STM32F4xx_HAL_Driver/Src/stm32f4xx_ll_usb.c ****     {
 176              		.loc 1 95 12 is_stmt 0 view .LVU45
 177 002e 0F9B     		ldr	r3, [sp, #60]
  95:Drivers/STM32F4xx_HAL_Driver/Src/stm32f4xx_ll_usb.c ****     {
 178              		.loc 1 95 8 view .LVU46
 179 0030 012B     		cmp	r3, #1
 180 0032 09D0     		beq	.L17
 181              	.L12:
 101:Drivers/STM32F4xx_HAL_Driver/Src/stm32f4xx_ll_usb.c ****   }
 182              		.loc 1 101 5 is_stmt 1 view .LVU47
 101:Drivers/STM32F4xx_HAL_Driver/Src/stm32f4xx_ll_usb.c ****   }
 183              		.loc 1 101 11 is_stmt 0 view .LVU48
 184 0034 2046     		mov	r0, r4
 185              	.LVL7:
 101:Drivers/STM32F4xx_HAL_Driver/Src/stm32f4xx_ll_usb.c ****   }
 186              		.loc 1 101 11 view .LVU49
 187 0036 FFF7FEFF 		bl	USB_CoreReset
 188              	.LVL8:
 189              	.L13:
 123:Drivers/STM32F4xx_HAL_Driver/Src/stm32f4xx_ll_usb.c ****   {
 190              		.loc 1 123 3 is_stmt 1 view .LVU50
 123:Drivers/STM32F4xx_HAL_Driver/Src/stm32f4xx_ll_usb.c ****   {
 191              		.loc 1 123 10 is_stmt 0 view .LVU51
 192 003a 069B     		ldr	r3, [sp, #24]
 123:Drivers/STM32F4xx_HAL_Driver/Src/stm32f4xx_ll_usb.c ****   {
 193              		.loc 1 123 6 view .LVU52
 194 003c 012B     		cmp	r3, #1
 195 003e 1BD0     		beq	.L18
 196              	.L15:
 129:Drivers/STM32F4xx_HAL_Driver/Src/stm32f4xx_ll_usb.c **** }
 197              		.loc 1 129 3 is_stmt 1 view .LVU53
 130:Drivers/STM32F4xx_HAL_Driver/Src/stm32f4xx_ll_usb.c **** 
 198              		.loc 1 130 1 is_stmt 0 view .LVU54
ARM GAS  /tmp/ccfbcrWA.s 			page 31


 199 0040 BDE81040 		pop	{r4, lr}
 200              	.LCFI5:
 201              		.cfi_remember_state
 202              		.cfi_restore 14
 203              		.cfi_restore 4
 204              		.cfi_def_cfa_offset 16
 205              	.LVL9:
 130:Drivers/STM32F4xx_HAL_Driver/Src/stm32f4xx_ll_usb.c **** 
 206              		.loc 1 130 1 view .LVU55
 207 0044 04B0     		add	sp, sp, #16
 208              	.LCFI6:
 209              		.cfi_def_cfa_offset 0
 210 0046 7047     		bx	lr
 211              	.LVL10:
 212              	.L17:
 213              	.LCFI7:
 214              		.cfi_restore_state
  97:Drivers/STM32F4xx_HAL_Driver/Src/stm32f4xx_ll_usb.c ****     }
 215              		.loc 1 97 7 is_stmt 1 view .LVU56
  97:Drivers/STM32F4xx_HAL_Driver/Src/stm32f4xx_ll_usb.c ****     }
 216              		.loc 1 97 21 is_stmt 0 view .LVU57
 217 0048 E368     		ldr	r3, [r4, #12]
 218 004a 43F48013 		orr	r3, r3, #1048576
 219 004e E360     		str	r3, [r4, #12]
 220 0050 F0E7     		b	.L12
 221              	.L11:
 106:Drivers/STM32F4xx_HAL_Driver/Src/stm32f4xx_ll_usb.c **** 
 222              		.loc 1 106 5 is_stmt 1 view .LVU58
 106:Drivers/STM32F4xx_HAL_Driver/Src/stm32f4xx_ll_usb.c **** 
 223              		.loc 1 106 19 is_stmt 0 view .LVU59
 224 0052 E368     		ldr	r3, [r4, #12]
 225 0054 43F04003 		orr	r3, r3, #64
 226 0058 E360     		str	r3, [r4, #12]
 109:Drivers/STM32F4xx_HAL_Driver/Src/stm32f4xx_ll_usb.c **** 
 227              		.loc 1 109 5 is_stmt 1 view .LVU60
 109:Drivers/STM32F4xx_HAL_Driver/Src/stm32f4xx_ll_usb.c **** 
 228              		.loc 1 109 11 is_stmt 0 view .LVU61
 229 005a 2046     		mov	r0, r4
 230              	.LVL11:
 109:Drivers/STM32F4xx_HAL_Driver/Src/stm32f4xx_ll_usb.c **** 
 231              		.loc 1 109 11 view .LVU62
 232 005c FFF7FEFF 		bl	USB_CoreReset
 233              	.LVL12:
 111:Drivers/STM32F4xx_HAL_Driver/Src/stm32f4xx_ll_usb.c ****     {
 234              		.loc 1 111 5 is_stmt 1 view .LVU63
 111:Drivers/STM32F4xx_HAL_Driver/Src/stm32f4xx_ll_usb.c ****     {
 235              		.loc 1 111 12 is_stmt 0 view .LVU64
 236 0060 0C9B     		ldr	r3, [sp, #48]
 111:Drivers/STM32F4xx_HAL_Driver/Src/stm32f4xx_ll_usb.c ****     {
 237              		.loc 1 111 8 view .LVU65
 238 0062 23B9     		cbnz	r3, .L14
 114:Drivers/STM32F4xx_HAL_Driver/Src/stm32f4xx_ll_usb.c ****     }
 239              		.loc 1 114 7 is_stmt 1 view .LVU66
 114:Drivers/STM32F4xx_HAL_Driver/Src/stm32f4xx_ll_usb.c ****     }
 240              		.loc 1 114 19 is_stmt 0 view .LVU67
 241 0064 A36B     		ldr	r3, [r4, #56]
 242 0066 43F48033 		orr	r3, r3, #65536
ARM GAS  /tmp/ccfbcrWA.s 			page 32


 243 006a A363     		str	r3, [r4, #56]
 244 006c E5E7     		b	.L13
 245              	.L14:
 119:Drivers/STM32F4xx_HAL_Driver/Src/stm32f4xx_ll_usb.c ****     }
 246              		.loc 1 119 7 is_stmt 1 view .LVU68
 119:Drivers/STM32F4xx_HAL_Driver/Src/stm32f4xx_ll_usb.c ****     }
 247              		.loc 1 119 19 is_stmt 0 view .LVU69
 248 006e A36B     		ldr	r3, [r4, #56]
 249 0070 23F48033 		bic	r3, r3, #65536
 250 0074 A363     		str	r3, [r4, #56]
 251 0076 E0E7     		b	.L13
 252              	.L18:
 125:Drivers/STM32F4xx_HAL_Driver/Src/stm32f4xx_ll_usb.c ****     USBx->GAHBCFG |= USB_OTG_GAHBCFG_DMAEN;
 253              		.loc 1 125 5 is_stmt 1 view .LVU70
 125:Drivers/STM32F4xx_HAL_Driver/Src/stm32f4xx_ll_usb.c ****     USBx->GAHBCFG |= USB_OTG_GAHBCFG_DMAEN;
 254              		.loc 1 125 19 is_stmt 0 view .LVU71
 255 0078 A368     		ldr	r3, [r4, #8]
 256 007a 43F00603 		orr	r3, r3, #6
 257 007e A360     		str	r3, [r4, #8]
 126:Drivers/STM32F4xx_HAL_Driver/Src/stm32f4xx_ll_usb.c ****   }
 258              		.loc 1 126 5 is_stmt 1 view .LVU72
 126:Drivers/STM32F4xx_HAL_Driver/Src/stm32f4xx_ll_usb.c ****   }
 259              		.loc 1 126 19 is_stmt 0 view .LVU73
 260 0080 A368     		ldr	r3, [r4, #8]
 261 0082 43F02003 		orr	r3, r3, #32
 262 0086 A360     		str	r3, [r4, #8]
 263 0088 DAE7     		b	.L15
 264              		.cfi_endproc
 265              	.LFE130:
 267              		.section	.text.USB_SetTurnaroundTime,"ax",%progbits
 268              		.align	1
 269              		.global	USB_SetTurnaroundTime
 270              		.syntax unified
 271              		.thumb
 272              		.thumb_func
 273              		.fpu fpv4-sp-d16
 275              	USB_SetTurnaroundTime:
 276              	.LVL13:
 277              	.LFB131:
 141:Drivers/STM32F4xx_HAL_Driver/Src/stm32f4xx_ll_usb.c ****   uint32_t UsbTrd;
 278              		.loc 1 141 1 is_stmt 1 view -0
 279              		.cfi_startproc
 280              		@ args = 0, pretend = 0, frame = 0
 281              		@ frame_needed = 0, uses_anonymous_args = 0
 282              		@ link register save eliminated.
 142:Drivers/STM32F4xx_HAL_Driver/Src/stm32f4xx_ll_usb.c **** 
 283              		.loc 1 142 3 view .LVU75
 148:Drivers/STM32F4xx_HAL_Driver/Src/stm32f4xx_ll_usb.c ****   {
 284              		.loc 1 148 3 view .LVU76
 148:Drivers/STM32F4xx_HAL_Driver/Src/stm32f4xx_ll_usb.c ****   {
 285              		.loc 1 148 6 is_stmt 0 view .LVU77
 286 0000 022A     		cmp	r2, #2
 287 0002 0AD0     		beq	.L31
 203:Drivers/STM32F4xx_HAL_Driver/Src/stm32f4xx_ll_usb.c ****   }
 288              		.loc 1 203 12 view .LVU78
 289 0004 0921     		movs	r1, #9
 290              	.LVL14:
ARM GAS  /tmp/ccfbcrWA.s 			page 33


 291              	.L20:
 210:Drivers/STM32F4xx_HAL_Driver/Src/stm32f4xx_ll_usb.c ****   USBx->GUSBCFG |= (uint32_t)((UsbTrd << 10) & USB_OTG_GUSBCFG_TRDT);
 292              		.loc 1 210 3 is_stmt 1 view .LVU79
 210:Drivers/STM32F4xx_HAL_Driver/Src/stm32f4xx_ll_usb.c ****   USBx->GUSBCFG |= (uint32_t)((UsbTrd << 10) & USB_OTG_GUSBCFG_TRDT);
 293              		.loc 1 210 17 is_stmt 0 view .LVU80
 294 0006 C268     		ldr	r2, [r0, #12]
 295 0008 22F47052 		bic	r2, r2, #15360
 296 000c C260     		str	r2, [r0, #12]
 211:Drivers/STM32F4xx_HAL_Driver/Src/stm32f4xx_ll_usb.c **** 
 297              		.loc 1 211 3 is_stmt 1 view .LVU81
 211:Drivers/STM32F4xx_HAL_Driver/Src/stm32f4xx_ll_usb.c **** 
 298              		.loc 1 211 17 is_stmt 0 view .LVU82
 299 000e C368     		ldr	r3, [r0, #12]
 300 0010 43EA8123 		orr	r3, r3, r1, lsl #10
 301 0014 C360     		str	r3, [r0, #12]
 213:Drivers/STM32F4xx_HAL_Driver/Src/stm32f4xx_ll_usb.c **** }
 302              		.loc 1 213 3 is_stmt 1 view .LVU83
 214:Drivers/STM32F4xx_HAL_Driver/Src/stm32f4xx_ll_usb.c **** 
 303              		.loc 1 214 1 is_stmt 0 view .LVU84
 304 0016 0020     		movs	r0, #0
 305              	.LVL15:
 214:Drivers/STM32F4xx_HAL_Driver/Src/stm32f4xx_ll_usb.c **** 
 306              		.loc 1 214 1 view .LVU85
 307 0018 7047     		bx	lr
 308              	.LVL16:
 309              	.L31:
 150:Drivers/STM32F4xx_HAL_Driver/Src/stm32f4xx_ll_usb.c ****     {
 310              		.loc 1 150 5 is_stmt 1 view .LVU86
 150:Drivers/STM32F4xx_HAL_Driver/Src/stm32f4xx_ll_usb.c ****     {
 311              		.loc 1 150 29 is_stmt 0 view .LVU87
 312 001a 234B     		ldr	r3, .L32
 313 001c 0B44     		add	r3, r3, r1
 150:Drivers/STM32F4xx_HAL_Driver/Src/stm32f4xx_ll_usb.c ****     {
 314              		.loc 1 150 8 view .LVU88
 315 001e 234A     		ldr	r2, .L32+4
 316              	.LVL17:
 150:Drivers/STM32F4xx_HAL_Driver/Src/stm32f4xx_ll_usb.c ****     {
 317              		.loc 1 150 8 view .LVU89
 318 0020 9342     		cmp	r3, r2
 319 0022 2FD9     		bls	.L22
 155:Drivers/STM32F4xx_HAL_Driver/Src/stm32f4xx_ll_usb.c ****     {
 320              		.loc 1 155 10 is_stmt 1 view .LVU90
 155:Drivers/STM32F4xx_HAL_Driver/Src/stm32f4xx_ll_usb.c ****     {
 321              		.loc 1 155 34 is_stmt 0 view .LVU91
 322 0024 224B     		ldr	r3, .L32+8
 323 0026 0B44     		add	r3, r3, r1
 155:Drivers/STM32F4xx_HAL_Driver/Src/stm32f4xx_ll_usb.c ****     {
 324              		.loc 1 155 13 view .LVU92
 325 0028 224A     		ldr	r2, .L32+12
 326 002a 9342     		cmp	r3, r2
 327 002c 2CD9     		bls	.L23
 160:Drivers/STM32F4xx_HAL_Driver/Src/stm32f4xx_ll_usb.c ****     {
 328              		.loc 1 160 10 is_stmt 1 view .LVU93
 160:Drivers/STM32F4xx_HAL_Driver/Src/stm32f4xx_ll_usb.c ****     {
 329              		.loc 1 160 34 is_stmt 0 view .LVU94
 330 002e A1F57403 		sub	r3, r1, #15990784
 331 0032 A3F51053 		sub	r3, r3, #9216
ARM GAS  /tmp/ccfbcrWA.s 			page 34


 160:Drivers/STM32F4xx_HAL_Driver/Src/stm32f4xx_ll_usb.c ****     {
 332              		.loc 1 160 13 view .LVU95
 333 0036 204A     		ldr	r2, .L32+16
 334 0038 9342     		cmp	r3, r2
 335 003a 27D9     		bls	.L24
 165:Drivers/STM32F4xx_HAL_Driver/Src/stm32f4xx_ll_usb.c ****     {
 336              		.loc 1 165 10 is_stmt 1 view .LVU96
 165:Drivers/STM32F4xx_HAL_Driver/Src/stm32f4xx_ll_usb.c ****     {
 337              		.loc 1 165 34 is_stmt 0 view .LVU97
 338 003c A1F18373 		sub	r3, r1, #17170432
 339 0040 A3F5E743 		sub	r3, r3, #29568
 165:Drivers/STM32F4xx_HAL_Driver/Src/stm32f4xx_ll_usb.c ****     {
 340              		.loc 1 165 13 view .LVU98
 341 0044 1D4A     		ldr	r2, .L32+20
 342 0046 9342     		cmp	r3, r2
 343 0048 22D3     		bcc	.L25
 170:Drivers/STM32F4xx_HAL_Driver/Src/stm32f4xx_ll_usb.c ****     {
 344              		.loc 1 170 10 is_stmt 1 view .LVU99
 170:Drivers/STM32F4xx_HAL_Driver/Src/stm32f4xx_ll_usb.c ****     {
 345              		.loc 1 170 34 is_stmt 0 view .LVU100
 346 004a 1D4B     		ldr	r3, .L32+24
 347 004c 0B44     		add	r3, r3, r1
 170:Drivers/STM32F4xx_HAL_Driver/Src/stm32f4xx_ll_usb.c ****     {
 348              		.loc 1 170 13 view .LVU101
 349 004e 1D4A     		ldr	r2, .L32+28
 350 0050 9342     		cmp	r3, r2
 351 0052 1FD9     		bls	.L26
 175:Drivers/STM32F4xx_HAL_Driver/Src/stm32f4xx_ll_usb.c ****     {
 352              		.loc 1 175 10 is_stmt 1 view .LVU102
 175:Drivers/STM32F4xx_HAL_Driver/Src/stm32f4xx_ll_usb.c ****     {
 353              		.loc 1 175 34 is_stmt 0 view .LVU103
 354 0054 1C4B     		ldr	r3, .L32+32
 355 0056 0B44     		add	r3, r3, r1
 175:Drivers/STM32F4xx_HAL_Driver/Src/stm32f4xx_ll_usb.c ****     {
 356              		.loc 1 175 13 view .LVU104
 357 0058 1C4A     		ldr	r2, .L32+36
 358 005a 9342     		cmp	r3, r2
 359 005c 1CD3     		bcc	.L27
 180:Drivers/STM32F4xx_HAL_Driver/Src/stm32f4xx_ll_usb.c ****     {
 360              		.loc 1 180 10 is_stmt 1 view .LVU105
 180:Drivers/STM32F4xx_HAL_Driver/Src/stm32f4xx_ll_usb.c ****     {
 361              		.loc 1 180 34 is_stmt 0 view .LVU106
 362 005e 1C4B     		ldr	r3, .L32+40
 363 0060 0B44     		add	r3, r3, r1
 180:Drivers/STM32F4xx_HAL_Driver/Src/stm32f4xx_ll_usb.c ****     {
 364              		.loc 1 180 13 view .LVU107
 365 0062 1C4A     		ldr	r2, .L32+44
 366 0064 9342     		cmp	r3, r2
 367 0066 19D3     		bcc	.L28
 185:Drivers/STM32F4xx_HAL_Driver/Src/stm32f4xx_ll_usb.c ****     {
 368              		.loc 1 185 10 is_stmt 1 view .LVU108
 185:Drivers/STM32F4xx_HAL_Driver/Src/stm32f4xx_ll_usb.c ****     {
 369              		.loc 1 185 34 is_stmt 0 view .LVU109
 370 0068 A1F1B773 		sub	r3, r1, #23986176
 371 006c A3F55853 		sub	r3, r3, #13824
 185:Drivers/STM32F4xx_HAL_Driver/Src/stm32f4xx_ll_usb.c ****     {
 372              		.loc 1 185 13 view .LVU110
ARM GAS  /tmp/ccfbcrWA.s 			page 35


 373 0070 194A     		ldr	r2, .L32+48
 374 0072 9342     		cmp	r3, r2
 375 0074 14D3     		bcc	.L29
 190:Drivers/STM32F4xx_HAL_Driver/Src/stm32f4xx_ll_usb.c ****     {
 376              		.loc 1 190 10 is_stmt 1 view .LVU111
 190:Drivers/STM32F4xx_HAL_Driver/Src/stm32f4xx_ll_usb.c ****     {
 377              		.loc 1 190 34 is_stmt 0 view .LVU112
 378 0076 194B     		ldr	r3, .L32+52
 379 0078 0B44     		add	r3, r3, r1
 190:Drivers/STM32F4xx_HAL_Driver/Src/stm32f4xx_ll_usb.c ****     {
 380              		.loc 1 190 13 view .LVU113
 381 007a 194A     		ldr	r2, .L32+56
 382 007c 9342     		cmp	r3, r2
 383 007e 11D2     		bcs	.L30
 193:Drivers/STM32F4xx_HAL_Driver/Src/stm32f4xx_ll_usb.c ****     }
 384              		.loc 1 193 14 view .LVU114
 385 0080 0721     		movs	r1, #7
 386              	.LVL18:
 193:Drivers/STM32F4xx_HAL_Driver/Src/stm32f4xx_ll_usb.c ****     }
 387              		.loc 1 193 14 view .LVU115
 388 0082 C0E7     		b	.L20
 389              	.LVL19:
 390              	.L22:
 153:Drivers/STM32F4xx_HAL_Driver/Src/stm32f4xx_ll_usb.c ****     }
 391              		.loc 1 153 14 view .LVU116
 392 0084 0F21     		movs	r1, #15
 393              	.LVL20:
 153:Drivers/STM32F4xx_HAL_Driver/Src/stm32f4xx_ll_usb.c ****     }
 394              		.loc 1 153 14 view .LVU117
 395 0086 BEE7     		b	.L20
 396              	.LVL21:
 397              	.L23:
 158:Drivers/STM32F4xx_HAL_Driver/Src/stm32f4xx_ll_usb.c ****     }
 398              		.loc 1 158 14 view .LVU118
 399 0088 0E21     		movs	r1, #14
 400              	.LVL22:
 158:Drivers/STM32F4xx_HAL_Driver/Src/stm32f4xx_ll_usb.c ****     }
 401              		.loc 1 158 14 view .LVU119
 402 008a BCE7     		b	.L20
 403              	.LVL23:
 404              	.L24:
 163:Drivers/STM32F4xx_HAL_Driver/Src/stm32f4xx_ll_usb.c ****     }
 405              		.loc 1 163 14 view .LVU120
 406 008c 0D21     		movs	r1, #13
 407              	.LVL24:
 163:Drivers/STM32F4xx_HAL_Driver/Src/stm32f4xx_ll_usb.c ****     }
 408              		.loc 1 163 14 view .LVU121
 409 008e BAE7     		b	.L20
 410              	.LVL25:
 411              	.L25:
 168:Drivers/STM32F4xx_HAL_Driver/Src/stm32f4xx_ll_usb.c ****     }
 412              		.loc 1 168 14 view .LVU122
 413 0090 0C21     		movs	r1, #12
 414              	.LVL26:
 168:Drivers/STM32F4xx_HAL_Driver/Src/stm32f4xx_ll_usb.c ****     }
 415              		.loc 1 168 14 view .LVU123
 416 0092 B8E7     		b	.L20
ARM GAS  /tmp/ccfbcrWA.s 			page 36


 417              	.LVL27:
 418              	.L26:
 173:Drivers/STM32F4xx_HAL_Driver/Src/stm32f4xx_ll_usb.c ****     }
 419              		.loc 1 173 14 view .LVU124
 420 0094 0B21     		movs	r1, #11
 421              	.LVL28:
 173:Drivers/STM32F4xx_HAL_Driver/Src/stm32f4xx_ll_usb.c ****     }
 422              		.loc 1 173 14 view .LVU125
 423 0096 B6E7     		b	.L20
 424              	.LVL29:
 425              	.L27:
 178:Drivers/STM32F4xx_HAL_Driver/Src/stm32f4xx_ll_usb.c ****     }
 426              		.loc 1 178 14 view .LVU126
 427 0098 0A21     		movs	r1, #10
 428              	.LVL30:
 178:Drivers/STM32F4xx_HAL_Driver/Src/stm32f4xx_ll_usb.c ****     }
 429              		.loc 1 178 14 view .LVU127
 430 009a B4E7     		b	.L20
 431              	.LVL31:
 432              	.L28:
 183:Drivers/STM32F4xx_HAL_Driver/Src/stm32f4xx_ll_usb.c ****     }
 433              		.loc 1 183 14 view .LVU128
 434 009c 0921     		movs	r1, #9
 435              	.LVL32:
 183:Drivers/STM32F4xx_HAL_Driver/Src/stm32f4xx_ll_usb.c ****     }
 436              		.loc 1 183 14 view .LVU129
 437 009e B2E7     		b	.L20
 438              	.LVL33:
 439              	.L29:
 188:Drivers/STM32F4xx_HAL_Driver/Src/stm32f4xx_ll_usb.c ****     }
 440              		.loc 1 188 14 view .LVU130
 441 00a0 0821     		movs	r1, #8
 442              	.LVL34:
 188:Drivers/STM32F4xx_HAL_Driver/Src/stm32f4xx_ll_usb.c ****     }
 443              		.loc 1 188 14 view .LVU131
 444 00a2 B0E7     		b	.L20
 445              	.LVL35:
 446              	.L30:
 198:Drivers/STM32F4xx_HAL_Driver/Src/stm32f4xx_ll_usb.c ****     }
 447              		.loc 1 198 14 view .LVU132
 448 00a4 0621     		movs	r1, #6
 449              	.LVL36:
 198:Drivers/STM32F4xx_HAL_Driver/Src/stm32f4xx_ll_usb.c ****     }
 450              		.loc 1 198 14 view .LVU133
 451 00a6 AEE7     		b	.L20
 452              	.L33:
 453              		.align	2
 454              	.L32:
 455 00a8 405327FF 		.word	-14200000
 456 00ac FF340C00 		.word	799999
 457 00b0 401E1BFF 		.word	-15000000
 458 00b4 3F420F00 		.word	999999
 459 00b8 7F4F1200 		.word	1199999
 460 00bc 20D61300 		.word	1300000
 461 00c0 60B6E5FE 		.word	-18500000
 462 00c4 5FE31600 		.word	1499999
 463 00c8 00D3CEFE 		.word	-20000000
ARM GAS  /tmp/ccfbcrWA.s 			page 37


 464 00cc 40771B00 		.word	1800000
 465 00d0 C05BB3FE 		.word	-21800000
 466 00d4 C0912100 		.word	2200000
 467 00d8 20753800 		.word	3700000
 468 00dc E05459FE 		.word	-27700000
 469 00e0 E09C4100 		.word	4300000
 470              		.cfi_endproc
 471              	.LFE131:
 473              		.section	.text.USB_EnableGlobalInt,"ax",%progbits
 474              		.align	1
 475              		.global	USB_EnableGlobalInt
 476              		.syntax unified
 477              		.thumb
 478              		.thumb_func
 479              		.fpu fpv4-sp-d16
 481              	USB_EnableGlobalInt:
 482              	.LVL37:
 483              	.LFB132:
 223:Drivers/STM32F4xx_HAL_Driver/Src/stm32f4xx_ll_usb.c ****   USBx->GAHBCFG |= USB_OTG_GAHBCFG_GINT;
 484              		.loc 1 223 1 is_stmt 1 view -0
 485              		.cfi_startproc
 486              		@ args = 0, pretend = 0, frame = 0
 487              		@ frame_needed = 0, uses_anonymous_args = 0
 488              		@ link register save eliminated.
 224:Drivers/STM32F4xx_HAL_Driver/Src/stm32f4xx_ll_usb.c ****   return HAL_OK;
 489              		.loc 1 224 3 view .LVU135
 224:Drivers/STM32F4xx_HAL_Driver/Src/stm32f4xx_ll_usb.c ****   return HAL_OK;
 490              		.loc 1 224 17 is_stmt 0 view .LVU136
 491 0000 8368     		ldr	r3, [r0, #8]
 492 0002 43F00103 		orr	r3, r3, #1
 493 0006 8360     		str	r3, [r0, #8]
 225:Drivers/STM32F4xx_HAL_Driver/Src/stm32f4xx_ll_usb.c **** }
 494              		.loc 1 225 3 is_stmt 1 view .LVU137
 226:Drivers/STM32F4xx_HAL_Driver/Src/stm32f4xx_ll_usb.c **** 
 495              		.loc 1 226 1 is_stmt 0 view .LVU138
 496 0008 0020     		movs	r0, #0
 497              	.LVL38:
 226:Drivers/STM32F4xx_HAL_Driver/Src/stm32f4xx_ll_usb.c **** 
 498              		.loc 1 226 1 view .LVU139
 499 000a 7047     		bx	lr
 500              		.cfi_endproc
 501              	.LFE132:
 503              		.section	.text.USB_DisableGlobalInt,"ax",%progbits
 504              		.align	1
 505              		.global	USB_DisableGlobalInt
 506              		.syntax unified
 507              		.thumb
 508              		.thumb_func
 509              		.fpu fpv4-sp-d16
 511              	USB_DisableGlobalInt:
 512              	.LVL39:
 513              	.LFB133:
 235:Drivers/STM32F4xx_HAL_Driver/Src/stm32f4xx_ll_usb.c ****   USBx->GAHBCFG &= ~USB_OTG_GAHBCFG_GINT;
 514              		.loc 1 235 1 is_stmt 1 view -0
 515              		.cfi_startproc
 516              		@ args = 0, pretend = 0, frame = 0
 517              		@ frame_needed = 0, uses_anonymous_args = 0
ARM GAS  /tmp/ccfbcrWA.s 			page 38


 518              		@ link register save eliminated.
 236:Drivers/STM32F4xx_HAL_Driver/Src/stm32f4xx_ll_usb.c ****   return HAL_OK;
 519              		.loc 1 236 3 view .LVU141
 236:Drivers/STM32F4xx_HAL_Driver/Src/stm32f4xx_ll_usb.c ****   return HAL_OK;
 520              		.loc 1 236 17 is_stmt 0 view .LVU142
 521 0000 8368     		ldr	r3, [r0, #8]
 522 0002 23F00103 		bic	r3, r3, #1
 523 0006 8360     		str	r3, [r0, #8]
 237:Drivers/STM32F4xx_HAL_Driver/Src/stm32f4xx_ll_usb.c **** }
 524              		.loc 1 237 3 is_stmt 1 view .LVU143
 238:Drivers/STM32F4xx_HAL_Driver/Src/stm32f4xx_ll_usb.c **** 
 525              		.loc 1 238 1 is_stmt 0 view .LVU144
 526 0008 0020     		movs	r0, #0
 527              	.LVL40:
 238:Drivers/STM32F4xx_HAL_Driver/Src/stm32f4xx_ll_usb.c **** 
 528              		.loc 1 238 1 view .LVU145
 529 000a 7047     		bx	lr
 530              		.cfi_endproc
 531              	.LFE133:
 533              		.section	.text.USB_FlushTxFifo,"ax",%progbits
 534              		.align	1
 535              		.global	USB_FlushTxFifo
 536              		.syntax unified
 537              		.thumb
 538              		.thumb_func
 539              		.fpu fpv4-sp-d16
 541              	USB_FlushTxFifo:
 542              	.LVL41:
 543              	.LFB136:
 473:Drivers/STM32F4xx_HAL_Driver/Src/stm32f4xx_ll_usb.c ****   __IO uint32_t count = 0U;
 544              		.loc 1 473 1 is_stmt 1 view -0
 545              		.cfi_startproc
 546              		@ args = 0, pretend = 0, frame = 8
 547              		@ frame_needed = 0, uses_anonymous_args = 0
 548              		@ link register save eliminated.
 473:Drivers/STM32F4xx_HAL_Driver/Src/stm32f4xx_ll_usb.c ****   __IO uint32_t count = 0U;
 549              		.loc 1 473 1 is_stmt 0 view .LVU147
 550 0000 82B0     		sub	sp, sp, #8
 551              	.LCFI8:
 552              		.cfi_def_cfa_offset 8
 474:Drivers/STM32F4xx_HAL_Driver/Src/stm32f4xx_ll_usb.c **** 
 553              		.loc 1 474 3 is_stmt 1 view .LVU148
 474:Drivers/STM32F4xx_HAL_Driver/Src/stm32f4xx_ll_usb.c **** 
 554              		.loc 1 474 17 is_stmt 0 view .LVU149
 555 0002 0023     		movs	r3, #0
 556 0004 0193     		str	r3, [sp, #4]
 557              	.L38:
 477:Drivers/STM32F4xx_HAL_Driver/Src/stm32f4xx_ll_usb.c ****   {
 558              		.loc 1 477 3 is_stmt 1 view .LVU150
 479:Drivers/STM32F4xx_HAL_Driver/Src/stm32f4xx_ll_usb.c **** 
 559              		.loc 1 479 5 view .LVU151
 479:Drivers/STM32F4xx_HAL_Driver/Src/stm32f4xx_ll_usb.c **** 
 560              		.loc 1 479 10 is_stmt 0 view .LVU152
 561 0006 019B     		ldr	r3, [sp, #4]
 562 0008 0133     		adds	r3, r3, #1
 563 000a 0193     		str	r3, [sp, #4]
 481:Drivers/STM32F4xx_HAL_Driver/Src/stm32f4xx_ll_usb.c ****     {
ARM GAS  /tmp/ccfbcrWA.s 			page 39


 564              		.loc 1 481 5 is_stmt 1 view .LVU153
 481:Drivers/STM32F4xx_HAL_Driver/Src/stm32f4xx_ll_usb.c ****     {
 565              		.loc 1 481 15 is_stmt 0 view .LVU154
 566 000c 019A     		ldr	r2, [sp, #4]
 481:Drivers/STM32F4xx_HAL_Driver/Src/stm32f4xx_ll_usb.c ****     {
 567              		.loc 1 481 8 view .LVU155
 568 000e 0F4B     		ldr	r3, .L43
 569 0010 9A42     		cmp	r2, r3
 570 0012 15D8     		bhi	.L40
 485:Drivers/STM32F4xx_HAL_Driver/Src/stm32f4xx_ll_usb.c **** 
 571              		.loc 1 485 11 is_stmt 1 view .LVU156
 485:Drivers/STM32F4xx_HAL_Driver/Src/stm32f4xx_ll_usb.c **** 
 572              		.loc 1 485 17 is_stmt 0 view .LVU157
 573 0014 0369     		ldr	r3, [r0, #16]
 485:Drivers/STM32F4xx_HAL_Driver/Src/stm32f4xx_ll_usb.c **** 
 574              		.loc 1 485 3 view .LVU158
 575 0016 002B     		cmp	r3, #0
 576 0018 F5DA     		bge	.L38
 488:Drivers/STM32F4xx_HAL_Driver/Src/stm32f4xx_ll_usb.c ****   USBx->GRSTCTL = (USB_OTG_GRSTCTL_TXFFLSH | (num << 6));
 577              		.loc 1 488 3 is_stmt 1 view .LVU159
 488:Drivers/STM32F4xx_HAL_Driver/Src/stm32f4xx_ll_usb.c ****   USBx->GRSTCTL = (USB_OTG_GRSTCTL_TXFFLSH | (num << 6));
 578              		.loc 1 488 9 is_stmt 0 view .LVU160
 579 001a 0023     		movs	r3, #0
 580 001c 0193     		str	r3, [sp, #4]
 489:Drivers/STM32F4xx_HAL_Driver/Src/stm32f4xx_ll_usb.c **** 
 581              		.loc 1 489 3 is_stmt 1 view .LVU161
 489:Drivers/STM32F4xx_HAL_Driver/Src/stm32f4xx_ll_usb.c **** 
 582              		.loc 1 489 51 is_stmt 0 view .LVU162
 583 001e 8901     		lsls	r1, r1, #6
 584              	.LVL42:
 489:Drivers/STM32F4xx_HAL_Driver/Src/stm32f4xx_ll_usb.c **** 
 585              		.loc 1 489 44 view .LVU163
 586 0020 41F02001 		orr	r1, r1, #32
 489:Drivers/STM32F4xx_HAL_Driver/Src/stm32f4xx_ll_usb.c **** 
 587              		.loc 1 489 17 view .LVU164
 588 0024 0161     		str	r1, [r0, #16]
 589              	.L39:
 491:Drivers/STM32F4xx_HAL_Driver/Src/stm32f4xx_ll_usb.c ****   {
 590              		.loc 1 491 3 is_stmt 1 view .LVU165
 493:Drivers/STM32F4xx_HAL_Driver/Src/stm32f4xx_ll_usb.c **** 
 591              		.loc 1 493 5 view .LVU166
 493:Drivers/STM32F4xx_HAL_Driver/Src/stm32f4xx_ll_usb.c **** 
 592              		.loc 1 493 10 is_stmt 0 view .LVU167
 593 0026 019B     		ldr	r3, [sp, #4]
 594 0028 0133     		adds	r3, r3, #1
 595 002a 0193     		str	r3, [sp, #4]
 495:Drivers/STM32F4xx_HAL_Driver/Src/stm32f4xx_ll_usb.c ****     {
 596              		.loc 1 495 5 is_stmt 1 view .LVU168
 495:Drivers/STM32F4xx_HAL_Driver/Src/stm32f4xx_ll_usb.c ****     {
 597              		.loc 1 495 15 is_stmt 0 view .LVU169
 598 002c 019A     		ldr	r2, [sp, #4]
 495:Drivers/STM32F4xx_HAL_Driver/Src/stm32f4xx_ll_usb.c ****     {
 599              		.loc 1 495 8 view .LVU170
 600 002e 074B     		ldr	r3, .L43
 601 0030 9A42     		cmp	r2, r3
 602 0032 08D8     		bhi	.L41
 499:Drivers/STM32F4xx_HAL_Driver/Src/stm32f4xx_ll_usb.c **** 
ARM GAS  /tmp/ccfbcrWA.s 			page 40


 603              		.loc 1 499 11 is_stmt 1 view .LVU171
 499:Drivers/STM32F4xx_HAL_Driver/Src/stm32f4xx_ll_usb.c **** 
 604              		.loc 1 499 17 is_stmt 0 view .LVU172
 605 0034 0369     		ldr	r3, [r0, #16]
 499:Drivers/STM32F4xx_HAL_Driver/Src/stm32f4xx_ll_usb.c **** 
 606              		.loc 1 499 3 view .LVU173
 607 0036 13F0200F 		tst	r3, #32
 608 003a F4D1     		bne	.L39
 501:Drivers/STM32F4xx_HAL_Driver/Src/stm32f4xx_ll_usb.c **** }
 609              		.loc 1 501 10 view .LVU174
 610 003c 0020     		movs	r0, #0
 611              	.LVL43:
 501:Drivers/STM32F4xx_HAL_Driver/Src/stm32f4xx_ll_usb.c **** }
 612              		.loc 1 501 10 view .LVU175
 613 003e 00E0     		b	.L37
 614              	.LVL44:
 615              	.L40:
 483:Drivers/STM32F4xx_HAL_Driver/Src/stm32f4xx_ll_usb.c ****     }
 616              		.loc 1 483 14 view .LVU176
 617 0040 0320     		movs	r0, #3
 618              	.LVL45:
 619              	.L37:
 502:Drivers/STM32F4xx_HAL_Driver/Src/stm32f4xx_ll_usb.c **** 
 620              		.loc 1 502 1 view .LVU177
 621 0042 02B0     		add	sp, sp, #8
 622              	.LCFI9:
 623              		.cfi_remember_state
 624              		.cfi_def_cfa_offset 0
 625              		@ sp needed
 626 0044 7047     		bx	lr
 627              	.LVL46:
 628              	.L41:
 629              	.LCFI10:
 630              		.cfi_restore_state
 497:Drivers/STM32F4xx_HAL_Driver/Src/stm32f4xx_ll_usb.c ****     }
 631              		.loc 1 497 14 view .LVU178
 632 0046 0320     		movs	r0, #3
 633              	.LVL47:
 497:Drivers/STM32F4xx_HAL_Driver/Src/stm32f4xx_ll_usb.c ****     }
 634              		.loc 1 497 14 view .LVU179
 635 0048 FBE7     		b	.L37
 636              	.L44:
 637 004a 00BF     		.align	2
 638              	.L43:
 639 004c 400D0300 		.word	200000
 640              		.cfi_endproc
 641              	.LFE136:
 643              		.section	.text.USB_FlushRxFifo,"ax",%progbits
 644              		.align	1
 645              		.global	USB_FlushRxFifo
 646              		.syntax unified
 647              		.thumb
 648              		.thumb_func
 649              		.fpu fpv4-sp-d16
 651              	USB_FlushRxFifo:
 652              	.LVL48:
 653              	.LFB137:
ARM GAS  /tmp/ccfbcrWA.s 			page 41


 510:Drivers/STM32F4xx_HAL_Driver/Src/stm32f4xx_ll_usb.c ****   __IO uint32_t count = 0U;
 654              		.loc 1 510 1 is_stmt 1 view -0
 655              		.cfi_startproc
 656              		@ args = 0, pretend = 0, frame = 8
 657              		@ frame_needed = 0, uses_anonymous_args = 0
 658              		@ link register save eliminated.
 510:Drivers/STM32F4xx_HAL_Driver/Src/stm32f4xx_ll_usb.c ****   __IO uint32_t count = 0U;
 659              		.loc 1 510 1 is_stmt 0 view .LVU181
 660 0000 82B0     		sub	sp, sp, #8
 661              	.LCFI11:
 662              		.cfi_def_cfa_offset 8
 511:Drivers/STM32F4xx_HAL_Driver/Src/stm32f4xx_ll_usb.c **** 
 663              		.loc 1 511 3 is_stmt 1 view .LVU182
 511:Drivers/STM32F4xx_HAL_Driver/Src/stm32f4xx_ll_usb.c **** 
 664              		.loc 1 511 17 is_stmt 0 view .LVU183
 665 0002 0023     		movs	r3, #0
 666 0004 0193     		str	r3, [sp, #4]
 667              	.L47:
 514:Drivers/STM32F4xx_HAL_Driver/Src/stm32f4xx_ll_usb.c ****   {
 668              		.loc 1 514 3 is_stmt 1 view .LVU184
 516:Drivers/STM32F4xx_HAL_Driver/Src/stm32f4xx_ll_usb.c **** 
 669              		.loc 1 516 5 view .LVU185
 516:Drivers/STM32F4xx_HAL_Driver/Src/stm32f4xx_ll_usb.c **** 
 670              		.loc 1 516 10 is_stmt 0 view .LVU186
 671 0006 019B     		ldr	r3, [sp, #4]
 672 0008 0133     		adds	r3, r3, #1
 673 000a 0193     		str	r3, [sp, #4]
 518:Drivers/STM32F4xx_HAL_Driver/Src/stm32f4xx_ll_usb.c ****     {
 674              		.loc 1 518 5 is_stmt 1 view .LVU187
 518:Drivers/STM32F4xx_HAL_Driver/Src/stm32f4xx_ll_usb.c ****     {
 675              		.loc 1 518 15 is_stmt 0 view .LVU188
 676 000c 019A     		ldr	r2, [sp, #4]
 518:Drivers/STM32F4xx_HAL_Driver/Src/stm32f4xx_ll_usb.c ****     {
 677              		.loc 1 518 8 view .LVU189
 678 000e 0E4B     		ldr	r3, .L52
 679 0010 9A42     		cmp	r2, r3
 680 0012 13D8     		bhi	.L49
 522:Drivers/STM32F4xx_HAL_Driver/Src/stm32f4xx_ll_usb.c **** 
 681              		.loc 1 522 11 is_stmt 1 view .LVU190
 522:Drivers/STM32F4xx_HAL_Driver/Src/stm32f4xx_ll_usb.c **** 
 682              		.loc 1 522 17 is_stmt 0 view .LVU191
 683 0014 0369     		ldr	r3, [r0, #16]
 522:Drivers/STM32F4xx_HAL_Driver/Src/stm32f4xx_ll_usb.c **** 
 684              		.loc 1 522 3 view .LVU192
 685 0016 002B     		cmp	r3, #0
 686 0018 F5DA     		bge	.L47
 525:Drivers/STM32F4xx_HAL_Driver/Src/stm32f4xx_ll_usb.c ****   USBx->GRSTCTL = USB_OTG_GRSTCTL_RXFFLSH;
 687              		.loc 1 525 3 is_stmt 1 view .LVU193
 525:Drivers/STM32F4xx_HAL_Driver/Src/stm32f4xx_ll_usb.c ****   USBx->GRSTCTL = USB_OTG_GRSTCTL_RXFFLSH;
 688              		.loc 1 525 9 is_stmt 0 view .LVU194
 689 001a 0023     		movs	r3, #0
 690 001c 0193     		str	r3, [sp, #4]
 526:Drivers/STM32F4xx_HAL_Driver/Src/stm32f4xx_ll_usb.c **** 
 691              		.loc 1 526 3 is_stmt 1 view .LVU195
 526:Drivers/STM32F4xx_HAL_Driver/Src/stm32f4xx_ll_usb.c **** 
 692              		.loc 1 526 17 is_stmt 0 view .LVU196
 693 001e 1023     		movs	r3, #16
ARM GAS  /tmp/ccfbcrWA.s 			page 42


 694 0020 0361     		str	r3, [r0, #16]
 695              	.L48:
 528:Drivers/STM32F4xx_HAL_Driver/Src/stm32f4xx_ll_usb.c ****   {
 696              		.loc 1 528 3 is_stmt 1 view .LVU197
 530:Drivers/STM32F4xx_HAL_Driver/Src/stm32f4xx_ll_usb.c **** 
 697              		.loc 1 530 5 view .LVU198
 530:Drivers/STM32F4xx_HAL_Driver/Src/stm32f4xx_ll_usb.c **** 
 698              		.loc 1 530 10 is_stmt 0 view .LVU199
 699 0022 019B     		ldr	r3, [sp, #4]
 700 0024 0133     		adds	r3, r3, #1
 701 0026 0193     		str	r3, [sp, #4]
 532:Drivers/STM32F4xx_HAL_Driver/Src/stm32f4xx_ll_usb.c ****     {
 702              		.loc 1 532 5 is_stmt 1 view .LVU200
 532:Drivers/STM32F4xx_HAL_Driver/Src/stm32f4xx_ll_usb.c ****     {
 703              		.loc 1 532 15 is_stmt 0 view .LVU201
 704 0028 019A     		ldr	r2, [sp, #4]
 532:Drivers/STM32F4xx_HAL_Driver/Src/stm32f4xx_ll_usb.c ****     {
 705              		.loc 1 532 8 view .LVU202
 706 002a 074B     		ldr	r3, .L52
 707 002c 9A42     		cmp	r2, r3
 708 002e 08D8     		bhi	.L50
 536:Drivers/STM32F4xx_HAL_Driver/Src/stm32f4xx_ll_usb.c **** 
 709              		.loc 1 536 11 is_stmt 1 view .LVU203
 536:Drivers/STM32F4xx_HAL_Driver/Src/stm32f4xx_ll_usb.c **** 
 710              		.loc 1 536 17 is_stmt 0 view .LVU204
 711 0030 0369     		ldr	r3, [r0, #16]
 536:Drivers/STM32F4xx_HAL_Driver/Src/stm32f4xx_ll_usb.c **** 
 712              		.loc 1 536 3 view .LVU205
 713 0032 13F0100F 		tst	r3, #16
 714 0036 F4D1     		bne	.L48
 538:Drivers/STM32F4xx_HAL_Driver/Src/stm32f4xx_ll_usb.c **** }
 715              		.loc 1 538 10 view .LVU206
 716 0038 0020     		movs	r0, #0
 717              	.LVL49:
 538:Drivers/STM32F4xx_HAL_Driver/Src/stm32f4xx_ll_usb.c **** }
 718              		.loc 1 538 10 view .LVU207
 719 003a 00E0     		b	.L46
 720              	.LVL50:
 721              	.L49:
 520:Drivers/STM32F4xx_HAL_Driver/Src/stm32f4xx_ll_usb.c ****     }
 722              		.loc 1 520 14 view .LVU208
 723 003c 0320     		movs	r0, #3
 724              	.LVL51:
 725              	.L46:
 539:Drivers/STM32F4xx_HAL_Driver/Src/stm32f4xx_ll_usb.c **** 
 726              		.loc 1 539 1 view .LVU209
 727 003e 02B0     		add	sp, sp, #8
 728              	.LCFI12:
 729              		.cfi_remember_state
 730              		.cfi_def_cfa_offset 0
 731              		@ sp needed
 732 0040 7047     		bx	lr
 733              	.LVL52:
 734              	.L50:
 735              	.LCFI13:
 736              		.cfi_restore_state
 534:Drivers/STM32F4xx_HAL_Driver/Src/stm32f4xx_ll_usb.c ****     }
ARM GAS  /tmp/ccfbcrWA.s 			page 43


 737              		.loc 1 534 14 view .LVU210
 738 0042 0320     		movs	r0, #3
 739              	.LVL53:
 534:Drivers/STM32F4xx_HAL_Driver/Src/stm32f4xx_ll_usb.c ****     }
 740              		.loc 1 534 14 view .LVU211
 741 0044 FBE7     		b	.L46
 742              	.L53:
 743 0046 00BF     		.align	2
 744              	.L52:
 745 0048 400D0300 		.word	200000
 746              		.cfi_endproc
 747              	.LFE137:
 749              		.section	.text.USB_SetDevSpeed,"ax",%progbits
 750              		.align	1
 751              		.global	USB_SetDevSpeed
 752              		.syntax unified
 753              		.thumb
 754              		.thumb_func
 755              		.fpu fpv4-sp-d16
 757              	USB_SetDevSpeed:
 758              	.LVL54:
 759              	.LFB138:
 553:Drivers/STM32F4xx_HAL_Driver/Src/stm32f4xx_ll_usb.c ****   uint32_t USBx_BASE = (uint32_t)USBx;
 760              		.loc 1 553 1 is_stmt 1 view -0
 761              		.cfi_startproc
 762              		@ args = 0, pretend = 0, frame = 0
 763              		@ frame_needed = 0, uses_anonymous_args = 0
 764              		@ link register save eliminated.
 554:Drivers/STM32F4xx_HAL_Driver/Src/stm32f4xx_ll_usb.c **** 
 765              		.loc 1 554 3 view .LVU213
 556:Drivers/STM32F4xx_HAL_Driver/Src/stm32f4xx_ll_usb.c ****   return HAL_OK;
 766              		.loc 1 556 3 view .LVU214
 556:Drivers/STM32F4xx_HAL_Driver/Src/stm32f4xx_ll_usb.c ****   return HAL_OK;
 767              		.loc 1 556 21 is_stmt 0 view .LVU215
 768 0000 D0F80038 		ldr	r3, [r0, #2048]
 769 0004 1943     		orrs	r1, r1, r3
 770              	.LVL55:
 556:Drivers/STM32F4xx_HAL_Driver/Src/stm32f4xx_ll_usb.c ****   return HAL_OK;
 771              		.loc 1 556 21 view .LVU216
 772 0006 C0F80018 		str	r1, [r0, #2048]
 557:Drivers/STM32F4xx_HAL_Driver/Src/stm32f4xx_ll_usb.c **** }
 773              		.loc 1 557 3 is_stmt 1 view .LVU217
 558:Drivers/STM32F4xx_HAL_Driver/Src/stm32f4xx_ll_usb.c **** 
 774              		.loc 1 558 1 is_stmt 0 view .LVU218
 775 000a 0020     		movs	r0, #0
 776              	.LVL56:
 558:Drivers/STM32F4xx_HAL_Driver/Src/stm32f4xx_ll_usb.c **** 
 777              		.loc 1 558 1 view .LVU219
 778 000c 7047     		bx	lr
 779              		.cfi_endproc
 780              	.LFE138:
 782              		.section	.text.USB_DevInit,"ax",%progbits
 783              		.align	1
 784              		.global	USB_DevInit
 785              		.syntax unified
 786              		.thumb
 787              		.thumb_func
ARM GAS  /tmp/ccfbcrWA.s 			page 44


 788              		.fpu fpv4-sp-d16
 790              	USB_DevInit:
 791              	.LVL57:
 792              	.LFB135:
 297:Drivers/STM32F4xx_HAL_Driver/Src/stm32f4xx_ll_usb.c ****   HAL_StatusTypeDef ret = HAL_OK;
 793              		.loc 1 297 1 is_stmt 1 view -0
 794              		.cfi_startproc
 795              		@ args = 56, pretend = 16, frame = 0
 796              		@ frame_needed = 0, uses_anonymous_args = 0
 297:Drivers/STM32F4xx_HAL_Driver/Src/stm32f4xx_ll_usb.c ****   HAL_StatusTypeDef ret = HAL_OK;
 797              		.loc 1 297 1 is_stmt 0 view .LVU221
 798 0000 84B0     		sub	sp, sp, #16
 799              	.LCFI14:
 800              		.cfi_def_cfa_offset 16
 801 0002 2DE9F041 		push	{r4, r5, r6, r7, r8, lr}
 802              	.LCFI15:
 803              		.cfi_def_cfa_offset 40
 804              		.cfi_offset 4, -40
 805              		.cfi_offset 5, -36
 806              		.cfi_offset 6, -32
 807              		.cfi_offset 7, -28
 808              		.cfi_offset 8, -24
 809              		.cfi_offset 14, -20
 810 0006 0446     		mov	r4, r0
 811 0008 07A8     		add	r0, sp, #28
 812 000a 80E80E00 		stm	r0, {r1, r2, r3}
 298:Drivers/STM32F4xx_HAL_Driver/Src/stm32f4xx_ll_usb.c ****   uint32_t USBx_BASE = (uint32_t)USBx;
 813              		.loc 1 298 3 is_stmt 1 view .LVU222
 814              	.LVL58:
 299:Drivers/STM32F4xx_HAL_Driver/Src/stm32f4xx_ll_usb.c ****   uint32_t i;
 815              		.loc 1 299 3 view .LVU223
 300:Drivers/STM32F4xx_HAL_Driver/Src/stm32f4xx_ll_usb.c **** 
 816              		.loc 1 300 3 view .LVU224
 302:Drivers/STM32F4xx_HAL_Driver/Src/stm32f4xx_ll_usb.c ****   {
 817              		.loc 1 302 3 view .LVU225
 302:Drivers/STM32F4xx_HAL_Driver/Src/stm32f4xx_ll_usb.c ****   {
 818              		.loc 1 302 10 is_stmt 0 view .LVU226
 819 000e 0023     		movs	r3, #0
 302:Drivers/STM32F4xx_HAL_Driver/Src/stm32f4xx_ll_usb.c ****   {
 820              		.loc 1 302 3 view .LVU227
 821 0010 06E0     		b	.L56
 822              	.LVL59:
 823              	.L57:
 304:Drivers/STM32F4xx_HAL_Driver/Src/stm32f4xx_ll_usb.c ****   }
 824              		.loc 1 304 5 is_stmt 1 discriminator 3 view .LVU228
 304:Drivers/STM32F4xx_HAL_Driver/Src/stm32f4xx_ll_usb.c ****   }
 825              		.loc 1 304 22 is_stmt 0 discriminator 3 view .LVU229
 826 0012 03F14002 		add	r2, r3, #64
 827 0016 04EB8202 		add	r2, r4, r2, lsl #2
 828 001a 0021     		movs	r1, #0
 829 001c 5160     		str	r1, [r2, #4]
 302:Drivers/STM32F4xx_HAL_Driver/Src/stm32f4xx_ll_usb.c ****   {
 830              		.loc 1 302 25 is_stmt 1 discriminator 3 view .LVU230
 302:Drivers/STM32F4xx_HAL_Driver/Src/stm32f4xx_ll_usb.c ****   {
 831              		.loc 1 302 26 is_stmt 0 discriminator 3 view .LVU231
 832 001e 0133     		adds	r3, r3, #1
 833              	.LVL60:
ARM GAS  /tmp/ccfbcrWA.s 			page 45


 834              	.L56:
 302:Drivers/STM32F4xx_HAL_Driver/Src/stm32f4xx_ll_usb.c ****   {
 835              		.loc 1 302 16 is_stmt 1 discriminator 1 view .LVU232
 302:Drivers/STM32F4xx_HAL_Driver/Src/stm32f4xx_ll_usb.c ****   {
 836              		.loc 1 302 3 is_stmt 0 discriminator 1 view .LVU233
 837 0020 0E2B     		cmp	r3, #14
 838 0022 F6D9     		bls	.L57
 327:Drivers/STM32F4xx_HAL_Driver/Src/stm32f4xx_ll_usb.c ****   {
 839              		.loc 1 327 3 is_stmt 1 view .LVU234
 327:Drivers/STM32F4xx_HAL_Driver/Src/stm32f4xx_ll_usb.c ****   {
 840              		.loc 1 327 10 is_stmt 0 view .LVU235
 841 0024 119F     		ldr	r7, [sp, #68]
 327:Drivers/STM32F4xx_HAL_Driver/Src/stm32f4xx_ll_usb.c ****   {
 842              		.loc 1 327 6 view .LVU236
 843 0026 27BB     		cbnz	r7, .L58
 333:Drivers/STM32F4xx_HAL_Driver/Src/stm32f4xx_ll_usb.c ****     USBx->GCCFG |= USB_OTG_GCCFG_NOVBUSSENS;
 844              		.loc 1 333 5 is_stmt 1 view .LVU237
 333:Drivers/STM32F4xx_HAL_Driver/Src/stm32f4xx_ll_usb.c ****     USBx->GCCFG |= USB_OTG_GCCFG_NOVBUSSENS;
 845              		.loc 1 333 23 is_stmt 0 view .LVU238
 846 0028 D4F80438 		ldr	r3, [r4, #2052]
 847              	.LVL61:
 333:Drivers/STM32F4xx_HAL_Driver/Src/stm32f4xx_ll_usb.c ****     USBx->GCCFG |= USB_OTG_GCCFG_NOVBUSSENS;
 848              		.loc 1 333 23 view .LVU239
 849 002c 43F00203 		orr	r3, r3, #2
 850 0030 C4F80438 		str	r3, [r4, #2052]
 334:Drivers/STM32F4xx_HAL_Driver/Src/stm32f4xx_ll_usb.c ****     USBx->GCCFG &= ~USB_OTG_GCCFG_VBUSBSEN;
 851              		.loc 1 334 5 is_stmt 1 view .LVU240
 334:Drivers/STM32F4xx_HAL_Driver/Src/stm32f4xx_ll_usb.c ****     USBx->GCCFG &= ~USB_OTG_GCCFG_VBUSBSEN;
 852              		.loc 1 334 17 is_stmt 0 view .LVU241
 853 0034 A36B     		ldr	r3, [r4, #56]
 854 0036 43F40013 		orr	r3, r3, #2097152
 855 003a A363     		str	r3, [r4, #56]
 335:Drivers/STM32F4xx_HAL_Driver/Src/stm32f4xx_ll_usb.c ****     USBx->GCCFG &= ~USB_OTG_GCCFG_VBUSASEN;
 856              		.loc 1 335 5 is_stmt 1 view .LVU242
 335:Drivers/STM32F4xx_HAL_Driver/Src/stm32f4xx_ll_usb.c ****     USBx->GCCFG &= ~USB_OTG_GCCFG_VBUSASEN;
 857              		.loc 1 335 17 is_stmt 0 view .LVU243
 858 003c A36B     		ldr	r3, [r4, #56]
 859 003e 23F40023 		bic	r3, r3, #524288
 860 0042 A363     		str	r3, [r4, #56]
 336:Drivers/STM32F4xx_HAL_Driver/Src/stm32f4xx_ll_usb.c ****   }
 861              		.loc 1 336 5 is_stmt 1 view .LVU244
 336:Drivers/STM32F4xx_HAL_Driver/Src/stm32f4xx_ll_usb.c ****   }
 862              		.loc 1 336 17 is_stmt 0 view .LVU245
 863 0044 A36B     		ldr	r3, [r4, #56]
 864 0046 23F48023 		bic	r3, r3, #262144
 865 004a A363     		str	r3, [r4, #56]
 866              	.L59:
 347:Drivers/STM32F4xx_HAL_Driver/Src/stm32f4xx_ll_usb.c **** 
 867              		.loc 1 347 3 is_stmt 1 view .LVU246
 347:Drivers/STM32F4xx_HAL_Driver/Src/stm32f4xx_ll_usb.c **** 
 868              		.loc 1 347 16 is_stmt 0 view .LVU247
 869 004c 0023     		movs	r3, #0
 870 004e C4F8003E 		str	r3, [r4, #3584]
 350:Drivers/STM32F4xx_HAL_Driver/Src/stm32f4xx_ll_usb.c **** 
 871              		.loc 1 350 3 is_stmt 1 view .LVU248
 350:Drivers/STM32F4xx_HAL_Driver/Src/stm32f4xx_ll_usb.c **** 
 872              		.loc 1 350 21 is_stmt 0 view .LVU249
ARM GAS  /tmp/ccfbcrWA.s 			page 46


 873 0052 04F50065 		add	r5, r4, #2048
 874 0056 D4F80038 		ldr	r3, [r4, #2048]
 875 005a C4F80038 		str	r3, [r4, #2048]
 352:Drivers/STM32F4xx_HAL_Driver/Src/stm32f4xx_ll_usb.c ****   {
 876              		.loc 1 352 3 is_stmt 1 view .LVU250
 352:Drivers/STM32F4xx_HAL_Driver/Src/stm32f4xx_ll_usb.c ****   {
 877              		.loc 1 352 10 is_stmt 0 view .LVU251
 878 005e 0C9B     		ldr	r3, [sp, #48]
 352:Drivers/STM32F4xx_HAL_Driver/Src/stm32f4xx_ll_usb.c ****   {
 879              		.loc 1 352 6 view .LVU252
 880 0060 012B     		cmp	r3, #1
 881 0062 14D1     		bne	.L60
 354:Drivers/STM32F4xx_HAL_Driver/Src/stm32f4xx_ll_usb.c ****     {
 882              		.loc 1 354 5 is_stmt 1 view .LVU253
 354:Drivers/STM32F4xx_HAL_Driver/Src/stm32f4xx_ll_usb.c ****     {
 883              		.loc 1 354 12 is_stmt 0 view .LVU254
 884 0064 099B     		ldr	r3, [sp, #36]
 354:Drivers/STM32F4xx_HAL_Driver/Src/stm32f4xx_ll_usb.c ****     {
 885              		.loc 1 354 8 view .LVU255
 886 0066 6BB9     		cbnz	r3, .L61
 357:Drivers/STM32F4xx_HAL_Driver/Src/stm32f4xx_ll_usb.c ****     }
 887              		.loc 1 357 7 is_stmt 1 view .LVU256
 357:Drivers/STM32F4xx_HAL_Driver/Src/stm32f4xx_ll_usb.c ****     }
 888              		.loc 1 357 13 is_stmt 0 view .LVU257
 889 0068 0021     		movs	r1, #0
 890 006a 2046     		mov	r0, r4
 891              	.LVL62:
 357:Drivers/STM32F4xx_HAL_Driver/Src/stm32f4xx_ll_usb.c ****     }
 892              		.loc 1 357 13 view .LVU258
 893 006c FFF7FEFF 		bl	USB_SetDevSpeed
 894              	.LVL63:
 895 0070 11E0     		b	.L62
 896              	.LVL64:
 897              	.L58:
 341:Drivers/STM32F4xx_HAL_Driver/Src/stm32f4xx_ll_usb.c ****     USBx->GCCFG |= USB_OTG_GCCFG_VBUSBSEN;
 898              		.loc 1 341 5 is_stmt 1 view .LVU259
 341:Drivers/STM32F4xx_HAL_Driver/Src/stm32f4xx_ll_usb.c ****     USBx->GCCFG |= USB_OTG_GCCFG_VBUSBSEN;
 899              		.loc 1 341 17 is_stmt 0 view .LVU260
 900 0072 A36B     		ldr	r3, [r4, #56]
 901              	.LVL65:
 341:Drivers/STM32F4xx_HAL_Driver/Src/stm32f4xx_ll_usb.c ****     USBx->GCCFG |= USB_OTG_GCCFG_VBUSBSEN;
 902              		.loc 1 341 17 view .LVU261
 903 0074 23F40013 		bic	r3, r3, #2097152
 904 0078 A363     		str	r3, [r4, #56]
 342:Drivers/STM32F4xx_HAL_Driver/Src/stm32f4xx_ll_usb.c ****   }
 905              		.loc 1 342 5 is_stmt 1 view .LVU262
 342:Drivers/STM32F4xx_HAL_Driver/Src/stm32f4xx_ll_usb.c ****   }
 906              		.loc 1 342 17 is_stmt 0 view .LVU263
 907 007a A36B     		ldr	r3, [r4, #56]
 908 007c 43F40023 		orr	r3, r3, #524288
 909 0080 A363     		str	r3, [r4, #56]
 910 0082 E3E7     		b	.L59
 911              	.L61:
 362:Drivers/STM32F4xx_HAL_Driver/Src/stm32f4xx_ll_usb.c ****     }
 912              		.loc 1 362 7 is_stmt 1 view .LVU264
 362:Drivers/STM32F4xx_HAL_Driver/Src/stm32f4xx_ll_usb.c ****     }
 913              		.loc 1 362 13 is_stmt 0 view .LVU265
ARM GAS  /tmp/ccfbcrWA.s 			page 47


 914 0084 0121     		movs	r1, #1
 915 0086 2046     		mov	r0, r4
 916              	.LVL66:
 362:Drivers/STM32F4xx_HAL_Driver/Src/stm32f4xx_ll_usb.c ****     }
 917              		.loc 1 362 13 view .LVU266
 918 0088 FFF7FEFF 		bl	USB_SetDevSpeed
 919              	.LVL67:
 920 008c 03E0     		b	.L62
 921              	.LVL68:
 922              	.L60:
 368:Drivers/STM32F4xx_HAL_Driver/Src/stm32f4xx_ll_usb.c ****   }
 923              		.loc 1 368 5 is_stmt 1 view .LVU267
 368:Drivers/STM32F4xx_HAL_Driver/Src/stm32f4xx_ll_usb.c ****   }
 924              		.loc 1 368 11 is_stmt 0 view .LVU268
 925 008e 0321     		movs	r1, #3
 926 0090 2046     		mov	r0, r4
 927              	.LVL69:
 368:Drivers/STM32F4xx_HAL_Driver/Src/stm32f4xx_ll_usb.c ****   }
 928              		.loc 1 368 11 view .LVU269
 929 0092 FFF7FEFF 		bl	USB_SetDevSpeed
 930              	.LVL70:
 931              	.L62:
 372:Drivers/STM32F4xx_HAL_Driver/Src/stm32f4xx_ll_usb.c ****   {
 932              		.loc 1 372 3 is_stmt 1 view .LVU270
 372:Drivers/STM32F4xx_HAL_Driver/Src/stm32f4xx_ll_usb.c ****   {
 933              		.loc 1 372 7 is_stmt 0 view .LVU271
 934 0096 1021     		movs	r1, #16
 935 0098 2046     		mov	r0, r4
 936 009a FFF7FEFF 		bl	USB_FlushTxFifo
 937              	.LVL71:
 372:Drivers/STM32F4xx_HAL_Driver/Src/stm32f4xx_ll_usb.c ****   {
 938              		.loc 1 372 6 view .LVU272
 939 009e 8046     		mov	r8, r0
 940 00a0 08B1     		cbz	r0, .L63
 374:Drivers/STM32F4xx_HAL_Driver/Src/stm32f4xx_ll_usb.c ****   }
 941              		.loc 1 374 9 view .LVU273
 942 00a2 4FF00108 		mov	r8, #1
 943              	.L63:
 944              	.LVL72:
 377:Drivers/STM32F4xx_HAL_Driver/Src/stm32f4xx_ll_usb.c ****   {
 945              		.loc 1 377 3 is_stmt 1 view .LVU274
 377:Drivers/STM32F4xx_HAL_Driver/Src/stm32f4xx_ll_usb.c ****   {
 946              		.loc 1 377 7 is_stmt 0 view .LVU275
 947 00a6 2046     		mov	r0, r4
 948 00a8 FFF7FEFF 		bl	USB_FlushRxFifo
 949              	.LVL73:
 377:Drivers/STM32F4xx_HAL_Driver/Src/stm32f4xx_ll_usb.c ****   {
 950              		.loc 1 377 6 view .LVU276
 951 00ac 08B1     		cbz	r0, .L64
 379:Drivers/STM32F4xx_HAL_Driver/Src/stm32f4xx_ll_usb.c ****   }
 952              		.loc 1 379 9 view .LVU277
 953 00ae 4FF00108 		mov	r8, #1
 954              	.LVL74:
 955              	.L64:
 383:Drivers/STM32F4xx_HAL_Driver/Src/stm32f4xx_ll_usb.c ****   USBx_DEVICE->DOEPMSK = 0U;
 956              		.loc 1 383 3 is_stmt 1 view .LVU278
 383:Drivers/STM32F4xx_HAL_Driver/Src/stm32f4xx_ll_usb.c ****   USBx_DEVICE->DOEPMSK = 0U;
ARM GAS  /tmp/ccfbcrWA.s 			page 48


 957              		.loc 1 383 24 is_stmt 0 view .LVU279
 958 00b2 0023     		movs	r3, #0
 959 00b4 2B61     		str	r3, [r5, #16]
 384:Drivers/STM32F4xx_HAL_Driver/Src/stm32f4xx_ll_usb.c ****   USBx_DEVICE->DAINTMSK = 0U;
 960              		.loc 1 384 3 is_stmt 1 view .LVU280
 384:Drivers/STM32F4xx_HAL_Driver/Src/stm32f4xx_ll_usb.c ****   USBx_DEVICE->DAINTMSK = 0U;
 961              		.loc 1 384 24 is_stmt 0 view .LVU281
 962 00b6 6B61     		str	r3, [r5, #20]
 385:Drivers/STM32F4xx_HAL_Driver/Src/stm32f4xx_ll_usb.c **** 
 963              		.loc 1 385 3 is_stmt 1 view .LVU282
 385:Drivers/STM32F4xx_HAL_Driver/Src/stm32f4xx_ll_usb.c **** 
 964              		.loc 1 385 25 is_stmt 0 view .LVU283
 965 00b8 EB61     		str	r3, [r5, #28]
 387:Drivers/STM32F4xx_HAL_Driver/Src/stm32f4xx_ll_usb.c ****   {
 966              		.loc 1 387 3 is_stmt 1 view .LVU284
 967              	.LVL75:
 387:Drivers/STM32F4xx_HAL_Driver/Src/stm32f4xx_ll_usb.c ****   {
 968              		.loc 1 387 3 is_stmt 0 view .LVU285
 969 00ba 0AE0     		b	.L65
 970              	.LVL76:
 971              	.L82:
 391:Drivers/STM32F4xx_HAL_Driver/Src/stm32f4xx_ll_usb.c ****       {
 972              		.loc 1 391 7 is_stmt 1 view .LVU286
 391:Drivers/STM32F4xx_HAL_Driver/Src/stm32f4xx_ll_usb.c ****       {
 973              		.loc 1 391 10 is_stmt 0 view .LVU287
 974 00bc C3B9     		cbnz	r3, .L67
 393:Drivers/STM32F4xx_HAL_Driver/Src/stm32f4xx_ll_usb.c ****       }
 975              		.loc 1 393 9 is_stmt 1 view .LVU288
 393:Drivers/STM32F4xx_HAL_Driver/Src/stm32f4xx_ll_usb.c ****       }
 976              		.loc 1 393 31 is_stmt 0 view .LVU289
 977 00be 4FF00060 		mov	r0, #134217728
 978 00c2 C2F80009 		str	r0, [r2, #2304]
 979              	.L68:
 405:Drivers/STM32F4xx_HAL_Driver/Src/stm32f4xx_ll_usb.c ****     USBx_INEP(i)->DIEPINT  = 0xFB7FU;
 980              		.loc 1 405 5 is_stmt 1 discriminator 2 view .LVU290
 405:Drivers/STM32F4xx_HAL_Driver/Src/stm32f4xx_ll_usb.c ****     USBx_INEP(i)->DIEPINT  = 0xFB7FU;
 981              		.loc 1 405 28 is_stmt 0 discriminator 2 view .LVU291
 982 00c6 0022     		movs	r2, #0
 983 00c8 0A61     		str	r2, [r1, #16]
 406:Drivers/STM32F4xx_HAL_Driver/Src/stm32f4xx_ll_usb.c ****   }
 984              		.loc 1 406 5 is_stmt 1 discriminator 2 view .LVU292
 406:Drivers/STM32F4xx_HAL_Driver/Src/stm32f4xx_ll_usb.c ****   }
 985              		.loc 1 406 28 is_stmt 0 discriminator 2 view .LVU293
 986 00ca 4FF67F32 		movw	r2, #64383
 987 00ce 8A60     		str	r2, [r1, #8]
 387:Drivers/STM32F4xx_HAL_Driver/Src/stm32f4xx_ll_usb.c ****   {
 988              		.loc 1 387 39 is_stmt 1 discriminator 2 view .LVU294
 387:Drivers/STM32F4xx_HAL_Driver/Src/stm32f4xx_ll_usb.c ****   {
 989              		.loc 1 387 40 is_stmt 0 discriminator 2 view .LVU295
 990 00d0 0133     		adds	r3, r3, #1
 991              	.LVL77:
 992              	.L65:
 387:Drivers/STM32F4xx_HAL_Driver/Src/stm32f4xx_ll_usb.c ****   {
 993              		.loc 1 387 16 is_stmt 1 discriminator 1 view .LVU296
 387:Drivers/STM32F4xx_HAL_Driver/Src/stm32f4xx_ll_usb.c ****   {
 994              		.loc 1 387 23 is_stmt 0 discriminator 1 view .LVU297
 995 00d2 0799     		ldr	r1, [sp, #28]
ARM GAS  /tmp/ccfbcrWA.s 			page 49


 387:Drivers/STM32F4xx_HAL_Driver/Src/stm32f4xx_ll_usb.c ****   {
 996              		.loc 1 387 3 discriminator 1 view .LVU298
 997 00d4 9942     		cmp	r1, r3
 998 00d6 10D9     		bls	.L81
 389:Drivers/STM32F4xx_HAL_Driver/Src/stm32f4xx_ll_usb.c ****     {
 999              		.loc 1 389 5 is_stmt 1 view .LVU299
 389:Drivers/STM32F4xx_HAL_Driver/Src/stm32f4xx_ll_usb.c ****     {
 1000              		.loc 1 389 10 is_stmt 0 view .LVU300
 1001 00d8 04EB4312 		add	r2, r4, r3, lsl #5
 1002 00dc 02F51061 		add	r1, r2, #2304
 389:Drivers/STM32F4xx_HAL_Driver/Src/stm32f4xx_ll_usb.c ****     {
 1003              		.loc 1 389 22 view .LVU301
 1004 00e0 D2F80009 		ldr	r0, [r2, #2304]
 389:Drivers/STM32F4xx_HAL_Driver/Src/stm32f4xx_ll_usb.c ****     {
 1005              		.loc 1 389 8 view .LVU302
 1006 00e4 0028     		cmp	r0, #0
 1007 00e6 E9DB     		blt	.L82
 402:Drivers/STM32F4xx_HAL_Driver/Src/stm32f4xx_ll_usb.c ****     }
 1008              		.loc 1 402 7 is_stmt 1 view .LVU303
 402:Drivers/STM32F4xx_HAL_Driver/Src/stm32f4xx_ll_usb.c ****     }
 1009              		.loc 1 402 29 is_stmt 0 view .LVU304
 1010 00e8 0020     		movs	r0, #0
 1011 00ea C2F80009 		str	r0, [r2, #2304]
 1012 00ee EAE7     		b	.L68
 1013              	.L67:
 397:Drivers/STM32F4xx_HAL_Driver/Src/stm32f4xx_ll_usb.c ****       }
 1014              		.loc 1 397 9 is_stmt 1 view .LVU305
 397:Drivers/STM32F4xx_HAL_Driver/Src/stm32f4xx_ll_usb.c ****       }
 1015              		.loc 1 397 31 is_stmt 0 view .LVU306
 1016 00f0 4FF09040 		mov	r0, #1207959552
 1017 00f4 C2F80009 		str	r0, [r2, #2304]
 1018 00f8 E5E7     		b	.L68
 1019              	.L81:
 409:Drivers/STM32F4xx_HAL_Driver/Src/stm32f4xx_ll_usb.c ****   {
 1020              		.loc 1 409 10 view .LVU307
 1021 00fa 0023     		movs	r3, #0
 1022              	.LVL78:
 409:Drivers/STM32F4xx_HAL_Driver/Src/stm32f4xx_ll_usb.c ****   {
 1023              		.loc 1 409 10 view .LVU308
 1024 00fc 0AE0     		b	.L70
 1025              	.LVL79:
 1026              	.L85:
 413:Drivers/STM32F4xx_HAL_Driver/Src/stm32f4xx_ll_usb.c ****       {
 1027              		.loc 1 413 7 is_stmt 1 view .LVU309
 413:Drivers/STM32F4xx_HAL_Driver/Src/stm32f4xx_ll_usb.c ****       {
 1028              		.loc 1 413 10 is_stmt 0 view .LVU310
 1029 00fe C3B1     		cbz	r3, .L83
 419:Drivers/STM32F4xx_HAL_Driver/Src/stm32f4xx_ll_usb.c ****       }
 1030              		.loc 1 419 9 is_stmt 1 view .LVU311
 419:Drivers/STM32F4xx_HAL_Driver/Src/stm32f4xx_ll_usb.c ****       }
 1031              		.loc 1 419 32 is_stmt 0 view .LVU312
 1032 0100 4FF0904C 		mov	ip, #1207959552
 1033 0104 C2F800CB 		str	ip, [r2, #2816]
 1034              	.L73:
 427:Drivers/STM32F4xx_HAL_Driver/Src/stm32f4xx_ll_usb.c ****     USBx_OUTEP(i)->DOEPINT  = 0xFB7FU;
 1035              		.loc 1 427 5 is_stmt 1 discriminator 2 view .LVU313
 427:Drivers/STM32F4xx_HAL_Driver/Src/stm32f4xx_ll_usb.c ****     USBx_OUTEP(i)->DOEPINT  = 0xFB7FU;
ARM GAS  /tmp/ccfbcrWA.s 			page 50


 1036              		.loc 1 427 29 is_stmt 0 discriminator 2 view .LVU314
 1037 0108 0022     		movs	r2, #0
 1038 010a 0261     		str	r2, [r0, #16]
 428:Drivers/STM32F4xx_HAL_Driver/Src/stm32f4xx_ll_usb.c ****   }
 1039              		.loc 1 428 5 is_stmt 1 discriminator 2 view .LVU315
 428:Drivers/STM32F4xx_HAL_Driver/Src/stm32f4xx_ll_usb.c ****   }
 1040              		.loc 1 428 29 is_stmt 0 discriminator 2 view .LVU316
 1041 010c 4FF67F32 		movw	r2, #64383
 1042 0110 8260     		str	r2, [r0, #8]
 409:Drivers/STM32F4xx_HAL_Driver/Src/stm32f4xx_ll_usb.c ****   {
 1043              		.loc 1 409 39 is_stmt 1 discriminator 2 view .LVU317
 409:Drivers/STM32F4xx_HAL_Driver/Src/stm32f4xx_ll_usb.c ****   {
 1044              		.loc 1 409 40 is_stmt 0 discriminator 2 view .LVU318
 1045 0112 0133     		adds	r3, r3, #1
 1046              	.LVL80:
 1047              	.L70:
 409:Drivers/STM32F4xx_HAL_Driver/Src/stm32f4xx_ll_usb.c ****   {
 1048              		.loc 1 409 16 is_stmt 1 discriminator 1 view .LVU319
 409:Drivers/STM32F4xx_HAL_Driver/Src/stm32f4xx_ll_usb.c ****   {
 1049              		.loc 1 409 3 is_stmt 0 discriminator 1 view .LVU320
 1050 0114 9942     		cmp	r1, r3
 1051 0116 11D9     		bls	.L84
 411:Drivers/STM32F4xx_HAL_Driver/Src/stm32f4xx_ll_usb.c ****     {
 1052              		.loc 1 411 5 is_stmt 1 view .LVU321
 411:Drivers/STM32F4xx_HAL_Driver/Src/stm32f4xx_ll_usb.c ****     {
 1053              		.loc 1 411 10 is_stmt 0 view .LVU322
 1054 0118 04EB4312 		add	r2, r4, r3, lsl #5
 1055 011c 02F53060 		add	r0, r2, #2816
 411:Drivers/STM32F4xx_HAL_Driver/Src/stm32f4xx_ll_usb.c ****     {
 1056              		.loc 1 411 23 view .LVU323
 1057 0120 D2F8006B 		ldr	r6, [r2, #2816]
 411:Drivers/STM32F4xx_HAL_Driver/Src/stm32f4xx_ll_usb.c ****     {
 1058              		.loc 1 411 8 view .LVU324
 1059 0124 002E     		cmp	r6, #0
 1060 0126 EADB     		blt	.L85
 424:Drivers/STM32F4xx_HAL_Driver/Src/stm32f4xx_ll_usb.c ****     }
 1061              		.loc 1 424 7 is_stmt 1 view .LVU325
 424:Drivers/STM32F4xx_HAL_Driver/Src/stm32f4xx_ll_usb.c ****     }
 1062              		.loc 1 424 30 is_stmt 0 view .LVU326
 1063 0128 4FF0000C 		mov	ip, #0
 1064 012c C2F800CB 		str	ip, [r2, #2816]
 1065 0130 EAE7     		b	.L73
 1066              	.L83:
 415:Drivers/STM32F4xx_HAL_Driver/Src/stm32f4xx_ll_usb.c ****       }
 1067              		.loc 1 415 9 is_stmt 1 view .LVU327
 415:Drivers/STM32F4xx_HAL_Driver/Src/stm32f4xx_ll_usb.c ****       }
 1068              		.loc 1 415 32 is_stmt 0 view .LVU328
 1069 0132 4FF0006C 		mov	ip, #134217728
 1070 0136 C2F800CB 		str	ip, [r2, #2816]
 1071 013a E5E7     		b	.L73
 1072              	.L84:
 431:Drivers/STM32F4xx_HAL_Driver/Src/stm32f4xx_ll_usb.c **** 
 1073              		.loc 1 431 3 is_stmt 1 view .LVU329
 431:Drivers/STM32F4xx_HAL_Driver/Src/stm32f4xx_ll_usb.c **** 
 1074              		.loc 1 431 24 is_stmt 0 view .LVU330
 1075 013c 2B69     		ldr	r3, [r5, #16]
 1076              	.LVL81:
ARM GAS  /tmp/ccfbcrWA.s 			page 51


 431:Drivers/STM32F4xx_HAL_Driver/Src/stm32f4xx_ll_usb.c **** 
 1077              		.loc 1 431 24 view .LVU331
 1078 013e 23F48073 		bic	r3, r3, #256
 1079 0142 2B61     		str	r3, [r5, #16]
 434:Drivers/STM32F4xx_HAL_Driver/Src/stm32f4xx_ll_usb.c **** 
 1080              		.loc 1 434 3 is_stmt 1 view .LVU332
 434:Drivers/STM32F4xx_HAL_Driver/Src/stm32f4xx_ll_usb.c **** 
 1081              		.loc 1 434 17 is_stmt 0 view .LVU333
 1082 0144 0023     		movs	r3, #0
 1083 0146 A361     		str	r3, [r4, #24]
 437:Drivers/STM32F4xx_HAL_Driver/Src/stm32f4xx_ll_usb.c **** 
 1084              		.loc 1 437 3 is_stmt 1 view .LVU334
 437:Drivers/STM32F4xx_HAL_Driver/Src/stm32f4xx_ll_usb.c **** 
 1085              		.loc 1 437 17 is_stmt 0 view .LVU335
 1086 0148 6FF08043 		mvn	r3, #1073741824
 1087 014c 6361     		str	r3, [r4, #20]
 440:Drivers/STM32F4xx_HAL_Driver/Src/stm32f4xx_ll_usb.c ****   {
 1088              		.loc 1 440 3 is_stmt 1 view .LVU336
 440:Drivers/STM32F4xx_HAL_Driver/Src/stm32f4xx_ll_usb.c ****   {
 1089              		.loc 1 440 10 is_stmt 0 view .LVU337
 1090 014e 0A9B     		ldr	r3, [sp, #40]
 440:Drivers/STM32F4xx_HAL_Driver/Src/stm32f4xx_ll_usb.c ****   {
 1091              		.loc 1 440 6 view .LVU338
 1092 0150 1BB9     		cbnz	r3, .L75
 442:Drivers/STM32F4xx_HAL_Driver/Src/stm32f4xx_ll_usb.c ****   }
 1093              		.loc 1 442 5 is_stmt 1 view .LVU339
 442:Drivers/STM32F4xx_HAL_Driver/Src/stm32f4xx_ll_usb.c ****   }
 1094              		.loc 1 442 19 is_stmt 0 view .LVU340
 1095 0152 A369     		ldr	r3, [r4, #24]
 1096 0154 43F01003 		orr	r3, r3, #16
 1097 0158 A361     		str	r3, [r4, #24]
 1098              	.L75:
 446:Drivers/STM32F4xx_HAL_Driver/Src/stm32f4xx_ll_usb.c ****                    USB_OTG_GINTMSK_ENUMDNEM | USB_OTG_GINTMSK_IEPINT |
 1099              		.loc 1 446 3 is_stmt 1 view .LVU341
 446:Drivers/STM32F4xx_HAL_Driver/Src/stm32f4xx_ll_usb.c ****                    USB_OTG_GINTMSK_ENUMDNEM | USB_OTG_GINTMSK_IEPINT |
 1100              		.loc 1 446 17 is_stmt 0 view .LVU342
 1101 015a A269     		ldr	r2, [r4, #24]
 1102 015c 0B4B     		ldr	r3, .L87
 1103 015e 1343     		orrs	r3, r3, r2
 1104 0160 A361     		str	r3, [r4, #24]
 451:Drivers/STM32F4xx_HAL_Driver/Src/stm32f4xx_ll_usb.c ****   {
 1105              		.loc 1 451 3 is_stmt 1 view .LVU343
 451:Drivers/STM32F4xx_HAL_Driver/Src/stm32f4xx_ll_usb.c ****   {
 1106              		.loc 1 451 10 is_stmt 0 view .LVU344
 1107 0162 0D9B     		ldr	r3, [sp, #52]
 451:Drivers/STM32F4xx_HAL_Driver/Src/stm32f4xx_ll_usb.c ****   {
 1108              		.loc 1 451 6 view .LVU345
 1109 0164 1BB1     		cbz	r3, .L76
 453:Drivers/STM32F4xx_HAL_Driver/Src/stm32f4xx_ll_usb.c ****   }
 1110              		.loc 1 453 5 is_stmt 1 view .LVU346
 453:Drivers/STM32F4xx_HAL_Driver/Src/stm32f4xx_ll_usb.c ****   }
 1111              		.loc 1 453 19 is_stmt 0 view .LVU347
 1112 0166 A369     		ldr	r3, [r4, #24]
 1113 0168 43F00803 		orr	r3, r3, #8
 1114 016c A361     		str	r3, [r4, #24]
 1115              	.L76:
 456:Drivers/STM32F4xx_HAL_Driver/Src/stm32f4xx_ll_usb.c ****   {
ARM GAS  /tmp/ccfbcrWA.s 			page 52


 1116              		.loc 1 456 3 is_stmt 1 view .LVU348
 456:Drivers/STM32F4xx_HAL_Driver/Src/stm32f4xx_ll_usb.c ****   {
 1117              		.loc 1 456 6 is_stmt 0 view .LVU349
 1118 016e 012F     		cmp	r7, #1
 1119 0170 04D0     		beq	.L86
 1120              	.L77:
 461:Drivers/STM32F4xx_HAL_Driver/Src/stm32f4xx_ll_usb.c **** }
 1121              		.loc 1 461 3 is_stmt 1 view .LVU350
 462:Drivers/STM32F4xx_HAL_Driver/Src/stm32f4xx_ll_usb.c **** 
 1122              		.loc 1 462 1 is_stmt 0 view .LVU351
 1123 0172 4046     		mov	r0, r8
 1124 0174 BDE8F041 		pop	{r4, r5, r6, r7, r8, lr}
 1125              	.LCFI16:
 1126              		.cfi_remember_state
 1127              		.cfi_restore 14
 1128              		.cfi_restore 8
 1129              		.cfi_restore 7
 1130              		.cfi_restore 6
 1131              		.cfi_restore 5
 1132              		.cfi_restore 4
 1133              		.cfi_def_cfa_offset 16
 1134              	.LVL82:
 462:Drivers/STM32F4xx_HAL_Driver/Src/stm32f4xx_ll_usb.c **** 
 1135              		.loc 1 462 1 view .LVU352
 1136 0178 04B0     		add	sp, sp, #16
 1137              	.LCFI17:
 1138              		.cfi_def_cfa_offset 0
 1139 017a 7047     		bx	lr
 1140              	.LVL83:
 1141              	.L86:
 1142              	.LCFI18:
 1143              		.cfi_restore_state
 458:Drivers/STM32F4xx_HAL_Driver/Src/stm32f4xx_ll_usb.c ****   }
 1144              		.loc 1 458 5 is_stmt 1 view .LVU353
 458:Drivers/STM32F4xx_HAL_Driver/Src/stm32f4xx_ll_usb.c ****   }
 1145              		.loc 1 458 19 is_stmt 0 view .LVU354
 1146 017c A369     		ldr	r3, [r4, #24]
 1147 017e 43F08043 		orr	r3, r3, #1073741824
 1148 0182 43F00403 		orr	r3, r3, #4
 1149 0186 A361     		str	r3, [r4, #24]
 1150 0188 F3E7     		b	.L77
 1151              	.L88:
 1152 018a 00BF     		.align	2
 1153              	.L87:
 1154 018c 00383C80 		.word	-2143537152
 1155              		.cfi_endproc
 1156              	.LFE135:
 1158              		.section	.text.USB_GetDevSpeed,"ax",%progbits
 1159              		.align	1
 1160              		.global	USB_GetDevSpeed
 1161              		.syntax unified
 1162              		.thumb
 1163              		.thumb_func
 1164              		.fpu fpv4-sp-d16
 1166              	USB_GetDevSpeed:
 1167              	.LVL84:
 1168              	.LFB139:
ARM GAS  /tmp/ccfbcrWA.s 			page 53


 569:Drivers/STM32F4xx_HAL_Driver/Src/stm32f4xx_ll_usb.c ****   uint32_t USBx_BASE = (uint32_t)USBx;
 1169              		.loc 1 569 1 is_stmt 1 view -0
 1170              		.cfi_startproc
 1171              		@ args = 0, pretend = 0, frame = 0
 1172              		@ frame_needed = 0, uses_anonymous_args = 0
 1173              		@ link register save eliminated.
 570:Drivers/STM32F4xx_HAL_Driver/Src/stm32f4xx_ll_usb.c ****   uint8_t speed;
 1174              		.loc 1 570 3 view .LVU356
 571:Drivers/STM32F4xx_HAL_Driver/Src/stm32f4xx_ll_usb.c ****   uint32_t DevEnumSpeed = USBx_DEVICE->DSTS & USB_OTG_DSTS_ENUMSPD;
 1175              		.loc 1 571 3 view .LVU357
 572:Drivers/STM32F4xx_HAL_Driver/Src/stm32f4xx_ll_usb.c **** 
 1176              		.loc 1 572 3 view .LVU358
 572:Drivers/STM32F4xx_HAL_Driver/Src/stm32f4xx_ll_usb.c **** 
 1177              		.loc 1 572 38 is_stmt 0 view .LVU359
 1178 0000 D0F80838 		ldr	r3, [r0, #2056]
 1179              	.LVL85:
 574:Drivers/STM32F4xx_HAL_Driver/Src/stm32f4xx_ll_usb.c ****   {
 1180              		.loc 1 574 3 is_stmt 1 view .LVU360
 574:Drivers/STM32F4xx_HAL_Driver/Src/stm32f4xx_ll_usb.c ****   {
 1181              		.loc 1 574 6 is_stmt 0 view .LVU361
 1182 0004 13F00603 		ands	r3, r3, #6
 1183              	.LVL86:
 574:Drivers/STM32F4xx_HAL_Driver/Src/stm32f4xx_ll_usb.c ****   {
 1184              		.loc 1 574 6 view .LVU362
 1185 0008 07D0     		beq	.L91
 578:Drivers/STM32F4xx_HAL_Driver/Src/stm32f4xx_ll_usb.c ****            (DevEnumSpeed == DSTS_ENUMSPD_FS_PHY_48MHZ))
 1186              		.loc 1 578 8 is_stmt 1 view .LVU363
 578:Drivers/STM32F4xx_HAL_Driver/Src/stm32f4xx_ll_usb.c ****            (DevEnumSpeed == DSTS_ENUMSPD_FS_PHY_48MHZ))
 1187              		.loc 1 578 11 is_stmt 0 view .LVU364
 1188 000a 022B     		cmp	r3, #2
 1189 000c 07D0     		beq	.L92
 578:Drivers/STM32F4xx_HAL_Driver/Src/stm32f4xx_ll_usb.c ****            (DevEnumSpeed == DSTS_ENUMSPD_FS_PHY_48MHZ))
 1190              		.loc 1 578 65 discriminator 1 view .LVU365
 1191 000e 062B     		cmp	r3, #6
 1192 0010 01D0     		beq	.L94
 585:Drivers/STM32F4xx_HAL_Driver/Src/stm32f4xx_ll_usb.c ****   }
 1193              		.loc 1 585 11 view .LVU366
 1194 0012 0F20     		movs	r0, #15
 1195              	.LVL87:
 588:Drivers/STM32F4xx_HAL_Driver/Src/stm32f4xx_ll_usb.c **** }
 1196              		.loc 1 588 3 is_stmt 1 view .LVU367
 589:Drivers/STM32F4xx_HAL_Driver/Src/stm32f4xx_ll_usb.c **** 
 1197              		.loc 1 589 1 is_stmt 0 view .LVU368
 1198 0014 7047     		bx	lr
 1199              	.LVL88:
 1200              	.L94:
 581:Drivers/STM32F4xx_HAL_Driver/Src/stm32f4xx_ll_usb.c ****   }
 1201              		.loc 1 581 11 view .LVU369
 1202 0016 0220     		movs	r0, #2
 1203              	.LVL89:
 581:Drivers/STM32F4xx_HAL_Driver/Src/stm32f4xx_ll_usb.c ****   }
 1204              		.loc 1 581 11 view .LVU370
 1205 0018 7047     		bx	lr
 1206              	.LVL90:
 1207              	.L91:
 576:Drivers/STM32F4xx_HAL_Driver/Src/stm32f4xx_ll_usb.c ****   }
 1208              		.loc 1 576 11 view .LVU371
ARM GAS  /tmp/ccfbcrWA.s 			page 54


 1209 001a 0020     		movs	r0, #0
 1210              	.LVL91:
 576:Drivers/STM32F4xx_HAL_Driver/Src/stm32f4xx_ll_usb.c ****   }
 1211              		.loc 1 576 11 view .LVU372
 1212 001c 7047     		bx	lr
 1213              	.LVL92:
 1214              	.L92:
 581:Drivers/STM32F4xx_HAL_Driver/Src/stm32f4xx_ll_usb.c ****   }
 1215              		.loc 1 581 11 view .LVU373
 1216 001e 0220     		movs	r0, #2
 1217              	.LVL93:
 581:Drivers/STM32F4xx_HAL_Driver/Src/stm32f4xx_ll_usb.c ****   }
 1218              		.loc 1 581 11 view .LVU374
 1219 0020 7047     		bx	lr
 1220              		.cfi_endproc
 1221              	.LFE139:
 1223              		.section	.text.USB_ActivateEndpoint,"ax",%progbits
 1224              		.align	1
 1225              		.global	USB_ActivateEndpoint
 1226              		.syntax unified
 1227              		.thumb
 1228              		.thumb_func
 1229              		.fpu fpv4-sp-d16
 1231              	USB_ActivateEndpoint:
 1232              	.LVL94:
 1233              	.LFB140:
 598:Drivers/STM32F4xx_HAL_Driver/Src/stm32f4xx_ll_usb.c ****   uint32_t USBx_BASE = (uint32_t)USBx;
 1234              		.loc 1 598 1 is_stmt 1 view -0
 1235              		.cfi_startproc
 1236              		@ args = 0, pretend = 0, frame = 0
 1237              		@ frame_needed = 0, uses_anonymous_args = 0
 598:Drivers/STM32F4xx_HAL_Driver/Src/stm32f4xx_ll_usb.c ****   uint32_t USBx_BASE = (uint32_t)USBx;
 1238              		.loc 1 598 1 is_stmt 0 view .LVU376
 1239 0000 10B5     		push	{r4, lr}
 1240              	.LCFI19:
 1241              		.cfi_def_cfa_offset 8
 1242              		.cfi_offset 4, -8
 1243              		.cfi_offset 14, -4
 599:Drivers/STM32F4xx_HAL_Driver/Src/stm32f4xx_ll_usb.c ****   uint32_t epnum = (uint32_t)ep->num;
 1244              		.loc 1 599 3 is_stmt 1 view .LVU377
 1245              	.LVL95:
 600:Drivers/STM32F4xx_HAL_Driver/Src/stm32f4xx_ll_usb.c **** 
 1246              		.loc 1 600 3 view .LVU378
 600:Drivers/STM32F4xx_HAL_Driver/Src/stm32f4xx_ll_usb.c **** 
 1247              		.loc 1 600 32 is_stmt 0 view .LVU379
 1248 0002 91F800C0 		ldrb	ip, [r1]	@ zero_extendqisi2
 1249              	.LVL96:
 602:Drivers/STM32F4xx_HAL_Driver/Src/stm32f4xx_ll_usb.c ****   {
 1250              		.loc 1 602 3 is_stmt 1 view .LVU380
 602:Drivers/STM32F4xx_HAL_Driver/Src/stm32f4xx_ll_usb.c ****   {
 1251              		.loc 1 602 9 is_stmt 0 view .LVU381
 1252 0006 4B78     		ldrb	r3, [r1, #1]	@ zero_extendqisi2
 602:Drivers/STM32F4xx_HAL_Driver/Src/stm32f4xx_ll_usb.c ****   {
 1253              		.loc 1 602 6 view .LVU382
 1254 0008 012B     		cmp	r3, #1
 1255 000a 23D0     		beq	.L99
 616:Drivers/STM32F4xx_HAL_Driver/Src/stm32f4xx_ll_usb.c **** 
ARM GAS  /tmp/ccfbcrWA.s 			page 55


 1256              		.loc 1 616 5 is_stmt 1 view .LVU383
 616:Drivers/STM32F4xx_HAL_Driver/Src/stm32f4xx_ll_usb.c **** 
 1257              		.loc 1 616 27 is_stmt 0 view .LVU384
 1258 000c 00F5006E 		add	lr, r0, #2048
 1259 0010 D0F81C38 		ldr	r3, [r0, #2076]
 616:Drivers/STM32F4xx_HAL_Driver/Src/stm32f4xx_ll_usb.c **** 
 1260              		.loc 1 616 82 view .LVU385
 1261 0014 0CF00F04 		and	r4, ip, #15
 616:Drivers/STM32F4xx_HAL_Driver/Src/stm32f4xx_ll_usb.c **** 
 1262              		.loc 1 616 55 view .LVU386
 1263 0018 0122     		movs	r2, #1
 1264 001a A240     		lsls	r2, r2, r4
 616:Drivers/STM32F4xx_HAL_Driver/Src/stm32f4xx_ll_usb.c **** 
 1265              		.loc 1 616 27 view .LVU387
 1266 001c 43EA0243 		orr	r3, r3, r2, lsl #16
 1267 0020 C0F81C38 		str	r3, [r0, #2076]
 618:Drivers/STM32F4xx_HAL_Driver/Src/stm32f4xx_ll_usb.c ****     {
 1268              		.loc 1 618 5 is_stmt 1 view .LVU388
 618:Drivers/STM32F4xx_HAL_Driver/Src/stm32f4xx_ll_usb.c ****     {
 1269              		.loc 1 618 11 is_stmt 0 view .LVU389
 1270 0024 00EB4C10 		add	r0, r0, ip, lsl #5
 1271              	.LVL97:
 618:Drivers/STM32F4xx_HAL_Driver/Src/stm32f4xx_ll_usb.c ****     {
 1272              		.loc 1 618 28 view .LVU390
 1273 0028 D0F8003B 		ldr	r3, [r0, #2816]
 618:Drivers/STM32F4xx_HAL_Driver/Src/stm32f4xx_ll_usb.c ****     {
 1274              		.loc 1 618 8 view .LVU391
 1275 002c 13F4004F 		tst	r3, #32768
 1276 0030 0ED1     		bne	.L97
 620:Drivers/STM32F4xx_HAL_Driver/Src/stm32f4xx_ll_usb.c ****                                     ((uint32_t)ep->type << 18) |
 1277              		.loc 1 620 7 is_stmt 1 view .LVU392
 620:Drivers/STM32F4xx_HAL_Driver/Src/stm32f4xx_ll_usb.c ****                                     ((uint32_t)ep->type << 18) |
 1278              		.loc 1 620 34 is_stmt 0 view .LVU393
 1279 0032 D0F8003B 		ldr	r3, [r0, #2816]
 620:Drivers/STM32F4xx_HAL_Driver/Src/stm32f4xx_ll_usb.c ****                                     ((uint32_t)ep->type << 18) |
 1280              		.loc 1 620 40 view .LVU394
 1281 0036 CA68     		ldr	r2, [r1, #12]
 620:Drivers/STM32F4xx_HAL_Driver/Src/stm32f4xx_ll_usb.c ****                                     ((uint32_t)ep->type << 18) |
 1282              		.loc 1 620 52 view .LVU395
 1283 0038 C2F30A02 		ubfx	r2, r2, #0, #11
 621:Drivers/STM32F4xx_HAL_Driver/Src/stm32f4xx_ll_usb.c ****                                     USB_OTG_DIEPCTL_SD0PID_SEVNFRM |
 1284              		.loc 1 621 50 view .LVU396
 1285 003c 0979     		ldrb	r1, [r1, #4]	@ zero_extendqisi2
 1286              	.LVL98:
 620:Drivers/STM32F4xx_HAL_Driver/Src/stm32f4xx_ll_usb.c ****                                     ((uint32_t)ep->type << 18) |
 1287              		.loc 1 620 77 view .LVU397
 1288 003e 42EA8142 		orr	r2, r2, r1, lsl #18
 620:Drivers/STM32F4xx_HAL_Driver/Src/stm32f4xx_ll_usb.c ****                                     ((uint32_t)ep->type << 18) |
 1289              		.loc 1 620 34 view .LVU398
 1290 0042 1343     		orrs	r3, r3, r2
 1291 0044 43F08053 		orr	r3, r3, #268435456
 1292 0048 43F40043 		orr	r3, r3, #32768
 1293 004c C0F8003B 		str	r3, [r0, #2816]
 1294              	.LVL99:
 1295              	.L97:
 626:Drivers/STM32F4xx_HAL_Driver/Src/stm32f4xx_ll_usb.c **** }
 1296              		.loc 1 626 3 is_stmt 1 view .LVU399
ARM GAS  /tmp/ccfbcrWA.s 			page 56


 627:Drivers/STM32F4xx_HAL_Driver/Src/stm32f4xx_ll_usb.c **** 
 1297              		.loc 1 627 1 is_stmt 0 view .LVU400
 1298 0050 0020     		movs	r0, #0
 1299 0052 10BD     		pop	{r4, pc}
 1300              	.LVL100:
 1301              	.L99:
 604:Drivers/STM32F4xx_HAL_Driver/Src/stm32f4xx_ll_usb.c **** 
 1302              		.loc 1 604 5 is_stmt 1 view .LVU401
 604:Drivers/STM32F4xx_HAL_Driver/Src/stm32f4xx_ll_usb.c **** 
 1303              		.loc 1 604 27 is_stmt 0 view .LVU402
 1304 0054 D0F81C28 		ldr	r2, [r0, #2076]
 604:Drivers/STM32F4xx_HAL_Driver/Src/stm32f4xx_ll_usb.c **** 
 1305              		.loc 1 604 81 view .LVU403
 1306 0058 0CF00F0E 		and	lr, ip, #15
 604:Drivers/STM32F4xx_HAL_Driver/Src/stm32f4xx_ll_usb.c **** 
 1307              		.loc 1 604 54 view .LVU404
 1308 005c 03FA0EF3 		lsl	r3, r3, lr
 604:Drivers/STM32F4xx_HAL_Driver/Src/stm32f4xx_ll_usb.c **** 
 1309              		.loc 1 604 52 view .LVU405
 1310 0060 9BB2     		uxth	r3, r3
 604:Drivers/STM32F4xx_HAL_Driver/Src/stm32f4xx_ll_usb.c **** 
 1311              		.loc 1 604 27 view .LVU406
 1312 0062 1343     		orrs	r3, r3, r2
 1313 0064 C0F81C38 		str	r3, [r0, #2076]
 606:Drivers/STM32F4xx_HAL_Driver/Src/stm32f4xx_ll_usb.c ****     {
 1314              		.loc 1 606 5 is_stmt 1 view .LVU407
 606:Drivers/STM32F4xx_HAL_Driver/Src/stm32f4xx_ll_usb.c ****     {
 1315              		.loc 1 606 10 is_stmt 0 view .LVU408
 1316 0068 00EB4C10 		add	r0, r0, ip, lsl #5
 1317              	.LVL101:
 606:Drivers/STM32F4xx_HAL_Driver/Src/stm32f4xx_ll_usb.c ****     {
 1318              		.loc 1 606 26 view .LVU409
 1319 006c D0F80039 		ldr	r3, [r0, #2304]
 606:Drivers/STM32F4xx_HAL_Driver/Src/stm32f4xx_ll_usb.c ****     {
 1320              		.loc 1 606 8 view .LVU410
 1321 0070 13F4004F 		tst	r3, #32768
 1322 0074 ECD1     		bne	.L97
 608:Drivers/STM32F4xx_HAL_Driver/Src/stm32f4xx_ll_usb.c ****                                    ((uint32_t)ep->type << 18) | (epnum << 22) |
 1323              		.loc 1 608 7 is_stmt 1 view .LVU411
 608:Drivers/STM32F4xx_HAL_Driver/Src/stm32f4xx_ll_usb.c ****                                    ((uint32_t)ep->type << 18) | (epnum << 22) |
 1324              		.loc 1 608 33 is_stmt 0 view .LVU412
 1325 0076 D0F80039 		ldr	r3, [r0, #2304]
 608:Drivers/STM32F4xx_HAL_Driver/Src/stm32f4xx_ll_usb.c ****                                    ((uint32_t)ep->type << 18) | (epnum << 22) |
 1326              		.loc 1 608 39 view .LVU413
 1327 007a CA68     		ldr	r2, [r1, #12]
 608:Drivers/STM32F4xx_HAL_Driver/Src/stm32f4xx_ll_usb.c ****                                    ((uint32_t)ep->type << 18) | (epnum << 22) |
 1328              		.loc 1 608 51 view .LVU414
 1329 007c C2F30A02 		ubfx	r2, r2, #0, #11
 609:Drivers/STM32F4xx_HAL_Driver/Src/stm32f4xx_ll_usb.c ****                                    USB_OTG_DIEPCTL_SD0PID_SEVNFRM |
 1330              		.loc 1 609 49 view .LVU415
 1331 0080 0979     		ldrb	r1, [r1, #4]	@ zero_extendqisi2
 1332              	.LVL102:
 608:Drivers/STM32F4xx_HAL_Driver/Src/stm32f4xx_ll_usb.c ****                                    ((uint32_t)ep->type << 18) | (epnum << 22) |
 1333              		.loc 1 608 76 view .LVU416
 1334 0082 42EA8142 		orr	r2, r2, r1, lsl #18
 609:Drivers/STM32F4xx_HAL_Driver/Src/stm32f4xx_ll_usb.c ****                                    USB_OTG_DIEPCTL_SD0PID_SEVNFRM |
 1335              		.loc 1 609 63 view .LVU417
ARM GAS  /tmp/ccfbcrWA.s 			page 57


 1336 0086 42EA8C5C 		orr	ip, r2, ip, lsl #22
 1337              	.LVL103:
 608:Drivers/STM32F4xx_HAL_Driver/Src/stm32f4xx_ll_usb.c ****                                    ((uint32_t)ep->type << 18) | (epnum << 22) |
 1338              		.loc 1 608 33 view .LVU418
 1339 008a 43EA0C03 		orr	r3, r3, ip
 1340 008e 43F08053 		orr	r3, r3, #268435456
 1341 0092 43F40043 		orr	r3, r3, #32768
 1342 0096 C0F80039 		str	r3, [r0, #2304]
 1343 009a D9E7     		b	.L97
 1344              		.cfi_endproc
 1345              	.LFE140:
 1347              		.section	.text.USB_ActivateDedicatedEndpoint,"ax",%progbits
 1348              		.align	1
 1349              		.global	USB_ActivateDedicatedEndpoint
 1350              		.syntax unified
 1351              		.thumb
 1352              		.thumb_func
 1353              		.fpu fpv4-sp-d16
 1355              	USB_ActivateDedicatedEndpoint:
 1356              	.LVL104:
 1357              	.LFB141:
 636:Drivers/STM32F4xx_HAL_Driver/Src/stm32f4xx_ll_usb.c ****   uint32_t USBx_BASE = (uint32_t)USBx;
 1358              		.loc 1 636 1 is_stmt 1 view -0
 1359              		.cfi_startproc
 1360              		@ args = 0, pretend = 0, frame = 0
 1361              		@ frame_needed = 0, uses_anonymous_args = 0
 636:Drivers/STM32F4xx_HAL_Driver/Src/stm32f4xx_ll_usb.c ****   uint32_t USBx_BASE = (uint32_t)USBx;
 1362              		.loc 1 636 1 is_stmt 0 view .LVU420
 1363 0000 10B5     		push	{r4, lr}
 1364              	.LCFI20:
 1365              		.cfi_def_cfa_offset 8
 1366              		.cfi_offset 4, -8
 1367              		.cfi_offset 14, -4
 637:Drivers/STM32F4xx_HAL_Driver/Src/stm32f4xx_ll_usb.c ****   uint32_t epnum = (uint32_t)ep->num;
 1368              		.loc 1 637 3 is_stmt 1 view .LVU421
 1369              	.LVL105:
 638:Drivers/STM32F4xx_HAL_Driver/Src/stm32f4xx_ll_usb.c **** 
 1370              		.loc 1 638 3 view .LVU422
 638:Drivers/STM32F4xx_HAL_Driver/Src/stm32f4xx_ll_usb.c **** 
 1371              		.loc 1 638 32 is_stmt 0 view .LVU423
 1372 0002 0A78     		ldrb	r2, [r1]	@ zero_extendqisi2
 1373              	.LVL106:
 641:Drivers/STM32F4xx_HAL_Driver/Src/stm32f4xx_ll_usb.c ****   {
 1374              		.loc 1 641 3 is_stmt 1 view .LVU424
 641:Drivers/STM32F4xx_HAL_Driver/Src/stm32f4xx_ll_usb.c ****   {
 1375              		.loc 1 641 9 is_stmt 0 view .LVU425
 1376 0004 4B78     		ldrb	r3, [r1, #1]	@ zero_extendqisi2
 641:Drivers/STM32F4xx_HAL_Driver/Src/stm32f4xx_ll_usb.c ****   {
 1377              		.loc 1 641 6 view .LVU426
 1378 0006 012B     		cmp	r3, #1
 1379 0008 23D0     		beq	.L106
 655:Drivers/STM32F4xx_HAL_Driver/Src/stm32f4xx_ll_usb.c ****     {
 1380              		.loc 1 655 5 is_stmt 1 view .LVU427
 655:Drivers/STM32F4xx_HAL_Driver/Src/stm32f4xx_ll_usb.c ****     {
 1381              		.loc 1 655 11 is_stmt 0 view .LVU428
 1382 000a 00EB421C 		add	ip, r0, r2, lsl #5
 655:Drivers/STM32F4xx_HAL_Driver/Src/stm32f4xx_ll_usb.c ****     {
ARM GAS  /tmp/ccfbcrWA.s 			page 58


 1383              		.loc 1 655 28 view .LVU429
 1384 000e DCF8003B 		ldr	r3, [ip, #2816]
 655:Drivers/STM32F4xx_HAL_Driver/Src/stm32f4xx_ll_usb.c ****     {
 1385              		.loc 1 655 8 view .LVU430
 1386 0012 13F4004F 		tst	r3, #32768
 1387 0016 0FD1     		bne	.L104
 657:Drivers/STM32F4xx_HAL_Driver/Src/stm32f4xx_ll_usb.c ****                                     ((uint32_t)ep->type << 18) | (epnum << 22) |
 1388              		.loc 1 657 7 is_stmt 1 view .LVU431
 657:Drivers/STM32F4xx_HAL_Driver/Src/stm32f4xx_ll_usb.c ****                                     ((uint32_t)ep->type << 18) | (epnum << 22) |
 1389              		.loc 1 657 34 is_stmt 0 view .LVU432
 1390 0018 DCF8004B 		ldr	r4, [ip, #2816]
 657:Drivers/STM32F4xx_HAL_Driver/Src/stm32f4xx_ll_usb.c ****                                     ((uint32_t)ep->type << 18) | (epnum << 22) |
 1391              		.loc 1 657 40 view .LVU433
 1392 001c CB68     		ldr	r3, [r1, #12]
 657:Drivers/STM32F4xx_HAL_Driver/Src/stm32f4xx_ll_usb.c ****                                     ((uint32_t)ep->type << 18) | (epnum << 22) |
 1393              		.loc 1 657 52 view .LVU434
 1394 001e C3F30A03 		ubfx	r3, r3, #0, #11
 658:Drivers/STM32F4xx_HAL_Driver/Src/stm32f4xx_ll_usb.c ****                                     USB_OTG_DOEPCTL_USBAEP;
 1395              		.loc 1 658 50 view .LVU435
 1396 0022 91F804E0 		ldrb	lr, [r1, #4]	@ zero_extendqisi2
 657:Drivers/STM32F4xx_HAL_Driver/Src/stm32f4xx_ll_usb.c ****                                     ((uint32_t)ep->type << 18) | (epnum << 22) |
 1397              		.loc 1 657 77 view .LVU436
 1398 0026 43EA8E43 		orr	r3, r3, lr, lsl #18
 658:Drivers/STM32F4xx_HAL_Driver/Src/stm32f4xx_ll_usb.c ****                                     USB_OTG_DOEPCTL_USBAEP;
 1399              		.loc 1 658 64 view .LVU437
 1400 002a 43EA8253 		orr	r3, r3, r2, lsl #22
 657:Drivers/STM32F4xx_HAL_Driver/Src/stm32f4xx_ll_usb.c ****                                     ((uint32_t)ep->type << 18) | (epnum << 22) |
 1401              		.loc 1 657 34 view .LVU438
 1402 002e 2343     		orrs	r3, r3, r4
 1403 0030 43F40043 		orr	r3, r3, #32768
 1404 0034 CCF8003B 		str	r3, [ip, #2816]
 1405              	.L104:
 662:Drivers/STM32F4xx_HAL_Driver/Src/stm32f4xx_ll_usb.c ****   }
 1406              		.loc 1 662 5 is_stmt 1 view .LVU439
 662:Drivers/STM32F4xx_HAL_Driver/Src/stm32f4xx_ll_usb.c ****   }
 1407              		.loc 1 662 27 is_stmt 0 view .LVU440
 1408 0038 D0F83C38 		ldr	r3, [r0, #2108]
 662:Drivers/STM32F4xx_HAL_Driver/Src/stm32f4xx_ll_usb.c ****   }
 1409              		.loc 1 662 76 view .LVU441
 1410 003c 0A78     		ldrb	r2, [r1]	@ zero_extendqisi2
 1411              	.LVL107:
 662:Drivers/STM32F4xx_HAL_Driver/Src/stm32f4xx_ll_usb.c ****   }
 1412              		.loc 1 662 82 view .LVU442
 1413 003e 02F00F01 		and	r1, r2, #15
 1414              	.LVL108:
 662:Drivers/STM32F4xx_HAL_Driver/Src/stm32f4xx_ll_usb.c ****   }
 1415              		.loc 1 662 55 view .LVU443
 1416 0042 0122     		movs	r2, #1
 1417 0044 8A40     		lsls	r2, r2, r1
 662:Drivers/STM32F4xx_HAL_Driver/Src/stm32f4xx_ll_usb.c ****   }
 1418              		.loc 1 662 27 view .LVU444
 1419 0046 43EA0243 		orr	r3, r3, r2, lsl #16
 1420 004a C0F83C38 		str	r3, [r0, #2108]
 1421              	.L103:
 665:Drivers/STM32F4xx_HAL_Driver/Src/stm32f4xx_ll_usb.c **** }
 1422              		.loc 1 665 3 is_stmt 1 view .LVU445
 666:Drivers/STM32F4xx_HAL_Driver/Src/stm32f4xx_ll_usb.c **** 
ARM GAS  /tmp/ccfbcrWA.s 			page 59


 1423              		.loc 1 666 1 is_stmt 0 view .LVU446
 1424 004e 0020     		movs	r0, #0
 1425              	.LVL109:
 666:Drivers/STM32F4xx_HAL_Driver/Src/stm32f4xx_ll_usb.c **** 
 1426              		.loc 1 666 1 view .LVU447
 1427 0050 10BD     		pop	{r4, pc}
 1428              	.LVL110:
 1429              	.L106:
 643:Drivers/STM32F4xx_HAL_Driver/Src/stm32f4xx_ll_usb.c ****     {
 1430              		.loc 1 643 5 is_stmt 1 view .LVU448
 643:Drivers/STM32F4xx_HAL_Driver/Src/stm32f4xx_ll_usb.c ****     {
 1431              		.loc 1 643 11 is_stmt 0 view .LVU449
 1432 0052 00EB421C 		add	ip, r0, r2, lsl #5
 643:Drivers/STM32F4xx_HAL_Driver/Src/stm32f4xx_ll_usb.c ****     {
 1433              		.loc 1 643 27 view .LVU450
 1434 0056 DCF80039 		ldr	r3, [ip, #2304]
 643:Drivers/STM32F4xx_HAL_Driver/Src/stm32f4xx_ll_usb.c ****     {
 1435              		.loc 1 643 8 view .LVU451
 1436 005a 13F4004F 		tst	r3, #32768
 1437 005e 11D1     		bne	.L102
 645:Drivers/STM32F4xx_HAL_Driver/Src/stm32f4xx_ll_usb.c ****                                    ((uint32_t)ep->type << 18) | (epnum << 22) |
 1438              		.loc 1 645 7 is_stmt 1 view .LVU452
 645:Drivers/STM32F4xx_HAL_Driver/Src/stm32f4xx_ll_usb.c ****                                    ((uint32_t)ep->type << 18) | (epnum << 22) |
 1439              		.loc 1 645 33 is_stmt 0 view .LVU453
 1440 0060 DCF80039 		ldr	r3, [ip, #2304]
 645:Drivers/STM32F4xx_HAL_Driver/Src/stm32f4xx_ll_usb.c ****                                    ((uint32_t)ep->type << 18) | (epnum << 22) |
 1441              		.loc 1 645 39 view .LVU454
 1442 0064 CC68     		ldr	r4, [r1, #12]
 645:Drivers/STM32F4xx_HAL_Driver/Src/stm32f4xx_ll_usb.c ****                                    ((uint32_t)ep->type << 18) | (epnum << 22) |
 1443              		.loc 1 645 51 view .LVU455
 1444 0066 C4F30A04 		ubfx	r4, r4, #0, #11
 646:Drivers/STM32F4xx_HAL_Driver/Src/stm32f4xx_ll_usb.c ****                                    USB_OTG_DIEPCTL_SD0PID_SEVNFRM |
 1445              		.loc 1 646 49 view .LVU456
 1446 006a 91F804E0 		ldrb	lr, [r1, #4]	@ zero_extendqisi2
 645:Drivers/STM32F4xx_HAL_Driver/Src/stm32f4xx_ll_usb.c ****                                    ((uint32_t)ep->type << 18) | (epnum << 22) |
 1447              		.loc 1 645 76 view .LVU457
 1448 006e 44EA8E44 		orr	r4, r4, lr, lsl #18
 646:Drivers/STM32F4xx_HAL_Driver/Src/stm32f4xx_ll_usb.c ****                                    USB_OTG_DIEPCTL_SD0PID_SEVNFRM |
 1449              		.loc 1 646 63 view .LVU458
 1450 0072 44EA8252 		orr	r2, r4, r2, lsl #22
 1451              	.LVL111:
 645:Drivers/STM32F4xx_HAL_Driver/Src/stm32f4xx_ll_usb.c ****                                    ((uint32_t)ep->type << 18) | (epnum << 22) |
 1452              		.loc 1 645 33 view .LVU459
 1453 0076 1343     		orrs	r3, r3, r2
 1454 0078 43F08053 		orr	r3, r3, #268435456
 1455 007c 43F40043 		orr	r3, r3, #32768
 1456 0080 CCF80039 		str	r3, [ip, #2304]
 1457              	.LVL112:
 1458              	.L102:
 651:Drivers/STM32F4xx_HAL_Driver/Src/stm32f4xx_ll_usb.c ****   }
 1459              		.loc 1 651 5 is_stmt 1 view .LVU460
 651:Drivers/STM32F4xx_HAL_Driver/Src/stm32f4xx_ll_usb.c ****   }
 1460              		.loc 1 651 27 is_stmt 0 view .LVU461
 1461 0084 D0F83C28 		ldr	r2, [r0, #2108]
 651:Drivers/STM32F4xx_HAL_Driver/Src/stm32f4xx_ll_usb.c ****   }
 1462              		.loc 1 651 75 view .LVU462
 1463 0088 0B78     		ldrb	r3, [r1]	@ zero_extendqisi2
ARM GAS  /tmp/ccfbcrWA.s 			page 60


 651:Drivers/STM32F4xx_HAL_Driver/Src/stm32f4xx_ll_usb.c ****   }
 1464              		.loc 1 651 81 view .LVU463
 1465 008a 03F00F01 		and	r1, r3, #15
 1466              	.LVL113:
 651:Drivers/STM32F4xx_HAL_Driver/Src/stm32f4xx_ll_usb.c ****   }
 1467              		.loc 1 651 54 view .LVU464
 1468 008e 0123     		movs	r3, #1
 1469 0090 8B40     		lsls	r3, r3, r1
 651:Drivers/STM32F4xx_HAL_Driver/Src/stm32f4xx_ll_usb.c ****   }
 1470              		.loc 1 651 52 view .LVU465
 1471 0092 9BB2     		uxth	r3, r3
 651:Drivers/STM32F4xx_HAL_Driver/Src/stm32f4xx_ll_usb.c ****   }
 1472              		.loc 1 651 27 view .LVU466
 1473 0094 1343     		orrs	r3, r3, r2
 1474 0096 C0F83C38 		str	r3, [r0, #2108]
 1475 009a D8E7     		b	.L103
 1476              		.cfi_endproc
 1477              	.LFE141:
 1479              		.section	.text.USB_DeactivateEndpoint,"ax",%progbits
 1480              		.align	1
 1481              		.global	USB_DeactivateEndpoint
 1482              		.syntax unified
 1483              		.thumb
 1484              		.thumb_func
 1485              		.fpu fpv4-sp-d16
 1487              	USB_DeactivateEndpoint:
 1488              	.LVL114:
 1489              	.LFB142:
 675:Drivers/STM32F4xx_HAL_Driver/Src/stm32f4xx_ll_usb.c ****   uint32_t USBx_BASE = (uint32_t)USBx;
 1490              		.loc 1 675 1 is_stmt 1 view -0
 1491              		.cfi_startproc
 1492              		@ args = 0, pretend = 0, frame = 0
 1493              		@ frame_needed = 0, uses_anonymous_args = 0
 1494              		@ link register save eliminated.
 675:Drivers/STM32F4xx_HAL_Driver/Src/stm32f4xx_ll_usb.c ****   uint32_t USBx_BASE = (uint32_t)USBx;
 1495              		.loc 1 675 1 is_stmt 0 view .LVU468
 1496 0000 30B4     		push	{r4, r5}
 1497              	.LCFI21:
 1498              		.cfi_def_cfa_offset 8
 1499              		.cfi_offset 4, -8
 1500              		.cfi_offset 5, -4
 676:Drivers/STM32F4xx_HAL_Driver/Src/stm32f4xx_ll_usb.c ****   uint32_t epnum = (uint32_t)ep->num;
 1501              		.loc 1 676 3 is_stmt 1 view .LVU469
 1502              	.LVL115:
 677:Drivers/STM32F4xx_HAL_Driver/Src/stm32f4xx_ll_usb.c **** 
 1503              		.loc 1 677 3 view .LVU470
 677:Drivers/STM32F4xx_HAL_Driver/Src/stm32f4xx_ll_usb.c **** 
 1504              		.loc 1 677 32 is_stmt 0 view .LVU471
 1505 0002 0B78     		ldrb	r3, [r1]	@ zero_extendqisi2
 1506              	.LVL116:
 680:Drivers/STM32F4xx_HAL_Driver/Src/stm32f4xx_ll_usb.c ****   {
 1507              		.loc 1 680 3 is_stmt 1 view .LVU472
 680:Drivers/STM32F4xx_HAL_Driver/Src/stm32f4xx_ll_usb.c ****   {
 1508              		.loc 1 680 9 is_stmt 0 view .LVU473
 1509 0004 4A78     		ldrb	r2, [r1, #1]	@ zero_extendqisi2
 680:Drivers/STM32F4xx_HAL_Driver/Src/stm32f4xx_ll_usb.c ****   {
 1510              		.loc 1 680 6 view .LVU474
ARM GAS  /tmp/ccfbcrWA.s 			page 61


 1511 0006 012A     		cmp	r2, #1
 1512 0008 26D0     		beq	.L113
 698:Drivers/STM32F4xx_HAL_Driver/Src/stm32f4xx_ll_usb.c ****     {
 1513              		.loc 1 698 5 is_stmt 1 view .LVU475
 698:Drivers/STM32F4xx_HAL_Driver/Src/stm32f4xx_ll_usb.c ****     {
 1514              		.loc 1 698 10 is_stmt 0 view .LVU476
 1515 000a 00EB4313 		add	r3, r0, r3, lsl #5
 1516              	.LVL117:
 698:Drivers/STM32F4xx_HAL_Driver/Src/stm32f4xx_ll_usb.c ****     {
 1517              		.loc 1 698 27 view .LVU477
 1518 000e D3F8002B 		ldr	r2, [r3, #2816]
 698:Drivers/STM32F4xx_HAL_Driver/Src/stm32f4xx_ll_usb.c ****     {
 1519              		.loc 1 698 8 view .LVU478
 1520 0012 002A     		cmp	r2, #0
 1521 0014 52DB     		blt	.L114
 1522              	.LVL118:
 1523              	.L111:
 704:Drivers/STM32F4xx_HAL_Driver/Src/stm32f4xx_ll_usb.c ****     USBx_DEVICE->DAINTMSK &= ~(USB_OTG_DAINTMSK_OEPM & ((uint32_t)(1UL << (ep->num & EP_ADDR_MSK)) 
 1524              		.loc 1 704 5 is_stmt 1 view .LVU479
 704:Drivers/STM32F4xx_HAL_Driver/Src/stm32f4xx_ll_usb.c ****     USBx_DEVICE->DAINTMSK &= ~(USB_OTG_DAINTMSK_OEPM & ((uint32_t)(1UL << (ep->num & EP_ADDR_MSK)) 
 1525              		.loc 1 704 27 is_stmt 0 view .LVU480
 1526 0016 D0F83C48 		ldr	r4, [r0, #2108]
 704:Drivers/STM32F4xx_HAL_Driver/Src/stm32f4xx_ll_usb.c ****     USBx_DEVICE->DAINTMSK &= ~(USB_OTG_DAINTMSK_OEPM & ((uint32_t)(1UL << (ep->num & EP_ADDR_MSK)) 
 1527              		.loc 1 704 78 view .LVU481
 1528 001a 0A78     		ldrb	r2, [r1]	@ zero_extendqisi2
 704:Drivers/STM32F4xx_HAL_Driver/Src/stm32f4xx_ll_usb.c ****     USBx_DEVICE->DAINTMSK &= ~(USB_OTG_DAINTMSK_OEPM & ((uint32_t)(1UL << (ep->num & EP_ADDR_MSK)) 
 1529              		.loc 1 704 84 view .LVU482
 1530 001c 02F00F02 		and	r2, r2, #15
 704:Drivers/STM32F4xx_HAL_Driver/Src/stm32f4xx_ll_usb.c ****     USBx_DEVICE->DAINTMSK &= ~(USB_OTG_DAINTMSK_OEPM & ((uint32_t)(1UL << (ep->num & EP_ADDR_MSK)) 
 1531              		.loc 1 704 57 view .LVU483
 1532 0020 4FF0010C 		mov	ip, #1
 1533 0024 0CFA02F2 		lsl	r2, ip, r2
 704:Drivers/STM32F4xx_HAL_Driver/Src/stm32f4xx_ll_usb.c ****     USBx_DEVICE->DAINTMSK &= ~(USB_OTG_DAINTMSK_OEPM & ((uint32_t)(1UL << (ep->num & EP_ADDR_MSK)) 
 1534              		.loc 1 704 27 view .LVU484
 1535 0028 24EA0242 		bic	r2, r4, r2, lsl #16
 1536 002c C0F83C28 		str	r2, [r0, #2108]
 705:Drivers/STM32F4xx_HAL_Driver/Src/stm32f4xx_ll_usb.c ****     USBx_OUTEP(epnum)->DOEPCTL &= ~(USB_OTG_DOEPCTL_USBAEP |
 1537              		.loc 1 705 5 is_stmt 1 view .LVU485
 705:Drivers/STM32F4xx_HAL_Driver/Src/stm32f4xx_ll_usb.c ****     USBx_OUTEP(epnum)->DOEPCTL &= ~(USB_OTG_DOEPCTL_USBAEP |
 1538              		.loc 1 705 27 is_stmt 0 view .LVU486
 1539 0030 D0F81C28 		ldr	r2, [r0, #2076]
 705:Drivers/STM32F4xx_HAL_Driver/Src/stm32f4xx_ll_usb.c ****     USBx_OUTEP(epnum)->DOEPCTL &= ~(USB_OTG_DOEPCTL_USBAEP |
 1540              		.loc 1 705 78 view .LVU487
 1541 0034 0978     		ldrb	r1, [r1]	@ zero_extendqisi2
 1542              	.LVL119:
 705:Drivers/STM32F4xx_HAL_Driver/Src/stm32f4xx_ll_usb.c ****     USBx_OUTEP(epnum)->DOEPCTL &= ~(USB_OTG_DOEPCTL_USBAEP |
 1543              		.loc 1 705 84 view .LVU488
 1544 0036 01F00F01 		and	r1, r1, #15
 705:Drivers/STM32F4xx_HAL_Driver/Src/stm32f4xx_ll_usb.c ****     USBx_OUTEP(epnum)->DOEPCTL &= ~(USB_OTG_DOEPCTL_USBAEP |
 1545              		.loc 1 705 57 view .LVU489
 1546 003a 0CFA01FC 		lsl	ip, ip, r1
 705:Drivers/STM32F4xx_HAL_Driver/Src/stm32f4xx_ll_usb.c ****     USBx_OUTEP(epnum)->DOEPCTL &= ~(USB_OTG_DOEPCTL_USBAEP |
 1547              		.loc 1 705 27 view .LVU490
 1548 003e 22EA0C42 		bic	r2, r2, ip, lsl #16
 1549 0042 C0F81C28 		str	r2, [r0, #2076]
 706:Drivers/STM32F4xx_HAL_Driver/Src/stm32f4xx_ll_usb.c ****                                     USB_OTG_DOEPCTL_MPSIZ |
 1550              		.loc 1 706 5 is_stmt 1 view .LVU491
ARM GAS  /tmp/ccfbcrWA.s 			page 62


 706:Drivers/STM32F4xx_HAL_Driver/Src/stm32f4xx_ll_usb.c ****                                     USB_OTG_DOEPCTL_MPSIZ |
 1551              		.loc 1 706 32 is_stmt 0 view .LVU492
 1552 0046 D3F8001B 		ldr	r1, [r3, #2816]
 1553 004a 234A     		ldr	r2, .L116
 1554 004c 0A40     		ands	r2, r2, r1
 1555 004e C3F8002B 		str	r2, [r3, #2816]
 1556              	.L110:
 712:Drivers/STM32F4xx_HAL_Driver/Src/stm32f4xx_ll_usb.c **** }
 1557              		.loc 1 712 3 is_stmt 1 view .LVU493
 713:Drivers/STM32F4xx_HAL_Driver/Src/stm32f4xx_ll_usb.c **** 
 1558              		.loc 1 713 1 is_stmt 0 view .LVU494
 1559 0052 0020     		movs	r0, #0
 1560              	.LVL120:
 713:Drivers/STM32F4xx_HAL_Driver/Src/stm32f4xx_ll_usb.c **** 
 1561              		.loc 1 713 1 view .LVU495
 1562 0054 30BC     		pop	{r4, r5}
 1563              	.LCFI22:
 1564              		.cfi_remember_state
 1565              		.cfi_restore 5
 1566              		.cfi_restore 4
 1567              		.cfi_def_cfa_offset 0
 1568 0056 7047     		bx	lr
 1569              	.LVL121:
 1570              	.L113:
 1571              	.LCFI23:
 1572              		.cfi_restore_state
 682:Drivers/STM32F4xx_HAL_Driver/Src/stm32f4xx_ll_usb.c ****     {
 1573              		.loc 1 682 5 is_stmt 1 view .LVU496
 682:Drivers/STM32F4xx_HAL_Driver/Src/stm32f4xx_ll_usb.c ****     {
 1574              		.loc 1 682 10 is_stmt 0 view .LVU497
 1575 0058 00EB4313 		add	r3, r0, r3, lsl #5
 1576              	.LVL122:
 682:Drivers/STM32F4xx_HAL_Driver/Src/stm32f4xx_ll_usb.c ****     {
 1577              		.loc 1 682 26 view .LVU498
 1578 005c D3F80029 		ldr	r2, [r3, #2304]
 682:Drivers/STM32F4xx_HAL_Driver/Src/stm32f4xx_ll_usb.c ****     {
 1579              		.loc 1 682 8 view .LVU499
 1580 0060 002A     		cmp	r2, #0
 1581 0062 1EDB     		blt	.L115
 1582              	.LVL123:
 1583              	.L109:
 688:Drivers/STM32F4xx_HAL_Driver/Src/stm32f4xx_ll_usb.c ****     USBx_DEVICE->DAINTMSK &= ~(USB_OTG_DAINTMSK_IEPM & (uint32_t)(1UL << (ep->num & EP_ADDR_MSK)));
 1584              		.loc 1 688 5 is_stmt 1 view .LVU500
 688:Drivers/STM32F4xx_HAL_Driver/Src/stm32f4xx_ll_usb.c ****     USBx_DEVICE->DAINTMSK &= ~(USB_OTG_DAINTMSK_IEPM & (uint32_t)(1UL << (ep->num & EP_ADDR_MSK)));
 1585              		.loc 1 688 27 is_stmt 0 view .LVU501
 1586 0064 D0F83C58 		ldr	r5, [r0, #2108]
 688:Drivers/STM32F4xx_HAL_Driver/Src/stm32f4xx_ll_usb.c ****     USBx_DEVICE->DAINTMSK &= ~(USB_OTG_DAINTMSK_IEPM & (uint32_t)(1UL << (ep->num & EP_ADDR_MSK)));
 1587              		.loc 1 688 77 view .LVU502
 1588 0068 0A78     		ldrb	r2, [r1]	@ zero_extendqisi2
 688:Drivers/STM32F4xx_HAL_Driver/Src/stm32f4xx_ll_usb.c ****     USBx_DEVICE->DAINTMSK &= ~(USB_OTG_DAINTMSK_IEPM & (uint32_t)(1UL << (ep->num & EP_ADDR_MSK)));
 1589              		.loc 1 688 83 view .LVU503
 1590 006a 02F00F02 		and	r2, r2, #15
 688:Drivers/STM32F4xx_HAL_Driver/Src/stm32f4xx_ll_usb.c ****     USBx_DEVICE->DAINTMSK &= ~(USB_OTG_DAINTMSK_IEPM & (uint32_t)(1UL << (ep->num & EP_ADDR_MSK)));
 1591              		.loc 1 688 56 view .LVU504
 1592 006e 0124     		movs	r4, #1
 1593 0070 04FA02F2 		lsl	r2, r4, r2
 688:Drivers/STM32F4xx_HAL_Driver/Src/stm32f4xx_ll_usb.c ****     USBx_DEVICE->DAINTMSK &= ~(USB_OTG_DAINTMSK_IEPM & (uint32_t)(1UL << (ep->num & EP_ADDR_MSK)));
ARM GAS  /tmp/ccfbcrWA.s 			page 63


 1594              		.loc 1 688 54 view .LVU505
 1595 0074 92B2     		uxth	r2, r2
 688:Drivers/STM32F4xx_HAL_Driver/Src/stm32f4xx_ll_usb.c ****     USBx_DEVICE->DAINTMSK &= ~(USB_OTG_DAINTMSK_IEPM & (uint32_t)(1UL << (ep->num & EP_ADDR_MSK)));
 1596              		.loc 1 688 27 view .LVU506
 1597 0076 25EA0202 		bic	r2, r5, r2
 1598 007a C0F83C28 		str	r2, [r0, #2108]
 689:Drivers/STM32F4xx_HAL_Driver/Src/stm32f4xx_ll_usb.c ****     USBx_INEP(epnum)->DIEPCTL &= ~(USB_OTG_DIEPCTL_USBAEP |
 1599              		.loc 1 689 5 is_stmt 1 view .LVU507
 689:Drivers/STM32F4xx_HAL_Driver/Src/stm32f4xx_ll_usb.c ****     USBx_INEP(epnum)->DIEPCTL &= ~(USB_OTG_DIEPCTL_USBAEP |
 1600              		.loc 1 689 27 is_stmt 0 view .LVU508
 1601 007e D0F81C28 		ldr	r2, [r0, #2076]
 689:Drivers/STM32F4xx_HAL_Driver/Src/stm32f4xx_ll_usb.c ****     USBx_INEP(epnum)->DIEPCTL &= ~(USB_OTG_DIEPCTL_USBAEP |
 1602              		.loc 1 689 77 view .LVU509
 1603 0082 0978     		ldrb	r1, [r1]	@ zero_extendqisi2
 1604              	.LVL124:
 689:Drivers/STM32F4xx_HAL_Driver/Src/stm32f4xx_ll_usb.c ****     USBx_INEP(epnum)->DIEPCTL &= ~(USB_OTG_DIEPCTL_USBAEP |
 1605              		.loc 1 689 83 view .LVU510
 1606 0084 01F00F01 		and	r1, r1, #15
 689:Drivers/STM32F4xx_HAL_Driver/Src/stm32f4xx_ll_usb.c ****     USBx_INEP(epnum)->DIEPCTL &= ~(USB_OTG_DIEPCTL_USBAEP |
 1607              		.loc 1 689 56 view .LVU511
 1608 0088 8C40     		lsls	r4, r4, r1
 689:Drivers/STM32F4xx_HAL_Driver/Src/stm32f4xx_ll_usb.c ****     USBx_INEP(epnum)->DIEPCTL &= ~(USB_OTG_DIEPCTL_USBAEP |
 1609              		.loc 1 689 54 view .LVU512
 1610 008a A4B2     		uxth	r4, r4
 689:Drivers/STM32F4xx_HAL_Driver/Src/stm32f4xx_ll_usb.c ****     USBx_INEP(epnum)->DIEPCTL &= ~(USB_OTG_DIEPCTL_USBAEP |
 1611              		.loc 1 689 27 view .LVU513
 1612 008c 22EA0404 		bic	r4, r2, r4
 1613 0090 C0F81C48 		str	r4, [r0, #2076]
 690:Drivers/STM32F4xx_HAL_Driver/Src/stm32f4xx_ll_usb.c ****                                    USB_OTG_DIEPCTL_MPSIZ |
 1614              		.loc 1 690 5 is_stmt 1 view .LVU514
 690:Drivers/STM32F4xx_HAL_Driver/Src/stm32f4xx_ll_usb.c ****                                    USB_OTG_DIEPCTL_MPSIZ |
 1615              		.loc 1 690 31 is_stmt 0 view .LVU515
 1616 0094 D3F80019 		ldr	r1, [r3, #2304]
 1617 0098 104A     		ldr	r2, .L116+4
 1618 009a 0A40     		ands	r2, r2, r1
 1619 009c C3F80029 		str	r2, [r3, #2304]
 1620 00a0 D7E7     		b	.L110
 1621              	.LVL125:
 1622              	.L115:
 684:Drivers/STM32F4xx_HAL_Driver/Src/stm32f4xx_ll_usb.c ****       USBx_INEP(epnum)->DIEPCTL |= USB_OTG_DIEPCTL_EPDIS;
 1623              		.loc 1 684 7 is_stmt 1 view .LVU516
 684:Drivers/STM32F4xx_HAL_Driver/Src/stm32f4xx_ll_usb.c ****       USBx_INEP(epnum)->DIEPCTL |= USB_OTG_DIEPCTL_EPDIS;
 1624              		.loc 1 684 33 is_stmt 0 view .LVU517
 1625 00a2 D3F80029 		ldr	r2, [r3, #2304]
 1626 00a6 42F00062 		orr	r2, r2, #134217728
 1627 00aa C3F80029 		str	r2, [r3, #2304]
 1628              	.LVL126:
 685:Drivers/STM32F4xx_HAL_Driver/Src/stm32f4xx_ll_usb.c ****     }
 1629              		.loc 1 685 7 is_stmt 1 view .LVU518
 685:Drivers/STM32F4xx_HAL_Driver/Src/stm32f4xx_ll_usb.c ****     }
 1630              		.loc 1 685 33 is_stmt 0 view .LVU519
 1631 00ae D3F80029 		ldr	r2, [r3, #2304]
 1632 00b2 42F08042 		orr	r2, r2, #1073741824
 1633 00b6 C3F80029 		str	r2, [r3, #2304]
 1634 00ba D3E7     		b	.L109
 1635              	.LVL127:
 1636              	.L114:
ARM GAS  /tmp/ccfbcrWA.s 			page 64


 700:Drivers/STM32F4xx_HAL_Driver/Src/stm32f4xx_ll_usb.c ****       USBx_OUTEP(epnum)->DOEPCTL |= USB_OTG_DOEPCTL_EPDIS;
 1637              		.loc 1 700 7 is_stmt 1 view .LVU520
 700:Drivers/STM32F4xx_HAL_Driver/Src/stm32f4xx_ll_usb.c ****       USBx_OUTEP(epnum)->DOEPCTL |= USB_OTG_DOEPCTL_EPDIS;
 1638              		.loc 1 700 34 is_stmt 0 view .LVU521
 1639 00bc D3F8002B 		ldr	r2, [r3, #2816]
 1640 00c0 42F00062 		orr	r2, r2, #134217728
 1641 00c4 C3F8002B 		str	r2, [r3, #2816]
 1642              	.LVL128:
 701:Drivers/STM32F4xx_HAL_Driver/Src/stm32f4xx_ll_usb.c ****     }
 1643              		.loc 1 701 7 is_stmt 1 view .LVU522
 701:Drivers/STM32F4xx_HAL_Driver/Src/stm32f4xx_ll_usb.c ****     }
 1644              		.loc 1 701 34 is_stmt 0 view .LVU523
 1645 00c8 D3F8002B 		ldr	r2, [r3, #2816]
 1646 00cc 42F08042 		orr	r2, r2, #1073741824
 1647 00d0 C3F8002B 		str	r2, [r3, #2816]
 1648 00d4 9FE7     		b	.L111
 1649              	.L117:
 1650 00d6 00BF     		.align	2
 1651              	.L116:
 1652 00d8 0078F3EF 		.word	-269256704
 1653 00dc 007833EC 		.word	-332171264
 1654              		.cfi_endproc
 1655              	.LFE142:
 1657              		.section	.text.USB_DeactivateDedicatedEndpoint,"ax",%progbits
 1658              		.align	1
 1659              		.global	USB_DeactivateDedicatedEndpoint
 1660              		.syntax unified
 1661              		.thumb
 1662              		.thumb_func
 1663              		.fpu fpv4-sp-d16
 1665              	USB_DeactivateDedicatedEndpoint:
 1666              	.LVL129:
 1667              	.LFB143:
 722:Drivers/STM32F4xx_HAL_Driver/Src/stm32f4xx_ll_usb.c ****   uint32_t USBx_BASE = (uint32_t)USBx;
 1668              		.loc 1 722 1 is_stmt 1 view -0
 1669              		.cfi_startproc
 1670              		@ args = 0, pretend = 0, frame = 0
 1671              		@ frame_needed = 0, uses_anonymous_args = 0
 1672              		@ link register save eliminated.
 723:Drivers/STM32F4xx_HAL_Driver/Src/stm32f4xx_ll_usb.c ****   uint32_t epnum = (uint32_t)ep->num;
 1673              		.loc 1 723 3 view .LVU525
 724:Drivers/STM32F4xx_HAL_Driver/Src/stm32f4xx_ll_usb.c **** 
 1674              		.loc 1 724 3 view .LVU526
 724:Drivers/STM32F4xx_HAL_Driver/Src/stm32f4xx_ll_usb.c **** 
 1675              		.loc 1 724 32 is_stmt 0 view .LVU527
 1676 0000 0B78     		ldrb	r3, [r1]	@ zero_extendqisi2
 1677              	.LVL130:
 727:Drivers/STM32F4xx_HAL_Driver/Src/stm32f4xx_ll_usb.c ****   {
 1678              		.loc 1 727 3 is_stmt 1 view .LVU528
 727:Drivers/STM32F4xx_HAL_Driver/Src/stm32f4xx_ll_usb.c ****   {
 1679              		.loc 1 727 9 is_stmt 0 view .LVU529
 1680 0002 4A78     		ldrb	r2, [r1, #1]	@ zero_extendqisi2
 727:Drivers/STM32F4xx_HAL_Driver/Src/stm32f4xx_ll_usb.c ****   {
 1681              		.loc 1 727 6 view .LVU530
 1682 0004 012A     		cmp	r2, #1
 1683 0006 18D0     		beq	.L123
 740:Drivers/STM32F4xx_HAL_Driver/Src/stm32f4xx_ll_usb.c ****     {
ARM GAS  /tmp/ccfbcrWA.s 			page 65


 1684              		.loc 1 740 5 is_stmt 1 view .LVU531
 740:Drivers/STM32F4xx_HAL_Driver/Src/stm32f4xx_ll_usb.c ****     {
 1685              		.loc 1 740 10 is_stmt 0 view .LVU532
 1686 0008 00EB4313 		add	r3, r0, r3, lsl #5
 1687              	.LVL131:
 740:Drivers/STM32F4xx_HAL_Driver/Src/stm32f4xx_ll_usb.c ****     {
 1688              		.loc 1 740 27 view .LVU533
 1689 000c D3F8002B 		ldr	r2, [r3, #2816]
 740:Drivers/STM32F4xx_HAL_Driver/Src/stm32f4xx_ll_usb.c ****     {
 1690              		.loc 1 740 8 view .LVU534
 1691 0010 002A     		cmp	r2, #0
 1692 0012 38DB     		blt	.L124
 1693              	.LVL132:
 1694              	.L122:
 746:Drivers/STM32F4xx_HAL_Driver/Src/stm32f4xx_ll_usb.c ****     USBx_DEVICE->DAINTMSK &= ~(USB_OTG_DAINTMSK_OEPM & ((uint32_t)(1UL << (ep->num & EP_ADDR_MSK)) 
 1695              		.loc 1 746 5 is_stmt 1 view .LVU535
 746:Drivers/STM32F4xx_HAL_Driver/Src/stm32f4xx_ll_usb.c ****     USBx_DEVICE->DAINTMSK &= ~(USB_OTG_DAINTMSK_OEPM & ((uint32_t)(1UL << (ep->num & EP_ADDR_MSK)) 
 1696              		.loc 1 746 32 is_stmt 0 view .LVU536
 1697 0014 D3F8002B 		ldr	r2, [r3, #2816]
 1698 0018 22F40042 		bic	r2, r2, #32768
 1699 001c C3F8002B 		str	r2, [r3, #2816]
 747:Drivers/STM32F4xx_HAL_Driver/Src/stm32f4xx_ll_usb.c ****   }
 1700              		.loc 1 747 5 is_stmt 1 view .LVU537
 747:Drivers/STM32F4xx_HAL_Driver/Src/stm32f4xx_ll_usb.c ****   }
 1701              		.loc 1 747 27 is_stmt 0 view .LVU538
 1702 0020 D0F81C38 		ldr	r3, [r0, #2076]
 747:Drivers/STM32F4xx_HAL_Driver/Src/stm32f4xx_ll_usb.c ****   }
 1703              		.loc 1 747 78 view .LVU539
 1704 0024 0A78     		ldrb	r2, [r1]	@ zero_extendqisi2
 747:Drivers/STM32F4xx_HAL_Driver/Src/stm32f4xx_ll_usb.c ****   }
 1705              		.loc 1 747 84 view .LVU540
 1706 0026 02F00F01 		and	r1, r2, #15
 1707              	.LVL133:
 747:Drivers/STM32F4xx_HAL_Driver/Src/stm32f4xx_ll_usb.c ****   }
 1708              		.loc 1 747 57 view .LVU541
 1709 002a 0122     		movs	r2, #1
 1710 002c 8A40     		lsls	r2, r2, r1
 747:Drivers/STM32F4xx_HAL_Driver/Src/stm32f4xx_ll_usb.c ****   }
 1711              		.loc 1 747 27 view .LVU542
 1712 002e 23EA0243 		bic	r3, r3, r2, lsl #16
 1713 0032 C0F81C38 		str	r3, [r0, #2076]
 1714              	.L121:
 750:Drivers/STM32F4xx_HAL_Driver/Src/stm32f4xx_ll_usb.c **** }
 1715              		.loc 1 750 3 is_stmt 1 view .LVU543
 751:Drivers/STM32F4xx_HAL_Driver/Src/stm32f4xx_ll_usb.c **** 
 1716              		.loc 1 751 1 is_stmt 0 view .LVU544
 1717 0036 0020     		movs	r0, #0
 1718              	.LVL134:
 751:Drivers/STM32F4xx_HAL_Driver/Src/stm32f4xx_ll_usb.c **** 
 1719              		.loc 1 751 1 view .LVU545
 1720 0038 7047     		bx	lr
 1721              	.LVL135:
 1722              	.L123:
 729:Drivers/STM32F4xx_HAL_Driver/Src/stm32f4xx_ll_usb.c ****     {
 1723              		.loc 1 729 5 is_stmt 1 view .LVU546
 729:Drivers/STM32F4xx_HAL_Driver/Src/stm32f4xx_ll_usb.c ****     {
 1724              		.loc 1 729 10 is_stmt 0 view .LVU547
ARM GAS  /tmp/ccfbcrWA.s 			page 66


 1725 003a 00EB4313 		add	r3, r0, r3, lsl #5
 1726              	.LVL136:
 729:Drivers/STM32F4xx_HAL_Driver/Src/stm32f4xx_ll_usb.c ****     {
 1727              		.loc 1 729 26 view .LVU548
 1728 003e D3F80029 		ldr	r2, [r3, #2304]
 729:Drivers/STM32F4xx_HAL_Driver/Src/stm32f4xx_ll_usb.c ****     {
 1729              		.loc 1 729 8 view .LVU549
 1730 0042 002A     		cmp	r2, #0
 1731 0044 12DB     		blt	.L125
 1732              	.LVL137:
 1733              	.L120:
 735:Drivers/STM32F4xx_HAL_Driver/Src/stm32f4xx_ll_usb.c ****     USBx_DEVICE->DAINTMSK &= ~(USB_OTG_DAINTMSK_IEPM & (uint32_t)(1UL << (ep->num & EP_ADDR_MSK)));
 1734              		.loc 1 735 5 is_stmt 1 view .LVU550
 735:Drivers/STM32F4xx_HAL_Driver/Src/stm32f4xx_ll_usb.c ****     USBx_DEVICE->DAINTMSK &= ~(USB_OTG_DAINTMSK_IEPM & (uint32_t)(1UL << (ep->num & EP_ADDR_MSK)));
 1735              		.loc 1 735 31 is_stmt 0 view .LVU551
 1736 0046 D3F80029 		ldr	r2, [r3, #2304]
 1737 004a 22F40042 		bic	r2, r2, #32768
 1738 004e C3F80029 		str	r2, [r3, #2304]
 736:Drivers/STM32F4xx_HAL_Driver/Src/stm32f4xx_ll_usb.c ****   }
 1739              		.loc 1 736 5 is_stmt 1 view .LVU552
 736:Drivers/STM32F4xx_HAL_Driver/Src/stm32f4xx_ll_usb.c ****   }
 1740              		.loc 1 736 27 is_stmt 0 view .LVU553
 1741 0052 D0F81C28 		ldr	r2, [r0, #2076]
 736:Drivers/STM32F4xx_HAL_Driver/Src/stm32f4xx_ll_usb.c ****   }
 1742              		.loc 1 736 77 view .LVU554
 1743 0056 0B78     		ldrb	r3, [r1]	@ zero_extendqisi2
 736:Drivers/STM32F4xx_HAL_Driver/Src/stm32f4xx_ll_usb.c ****   }
 1744              		.loc 1 736 83 view .LVU555
 1745 0058 03F00F01 		and	r1, r3, #15
 1746              	.LVL138:
 736:Drivers/STM32F4xx_HAL_Driver/Src/stm32f4xx_ll_usb.c ****   }
 1747              		.loc 1 736 56 view .LVU556
 1748 005c 0123     		movs	r3, #1
 1749 005e 8B40     		lsls	r3, r3, r1
 736:Drivers/STM32F4xx_HAL_Driver/Src/stm32f4xx_ll_usb.c ****   }
 1750              		.loc 1 736 54 view .LVU557
 1751 0060 9BB2     		uxth	r3, r3
 736:Drivers/STM32F4xx_HAL_Driver/Src/stm32f4xx_ll_usb.c ****   }
 1752              		.loc 1 736 27 view .LVU558
 1753 0062 22EA0303 		bic	r3, r2, r3
 1754 0066 C0F81C38 		str	r3, [r0, #2076]
 1755 006a E4E7     		b	.L121
 1756              	.LVL139:
 1757              	.L125:
 731:Drivers/STM32F4xx_HAL_Driver/Src/stm32f4xx_ll_usb.c ****       USBx_INEP(epnum)->DIEPCTL  |= USB_OTG_DIEPCTL_EPDIS;
 1758              		.loc 1 731 7 is_stmt 1 view .LVU559
 731:Drivers/STM32F4xx_HAL_Driver/Src/stm32f4xx_ll_usb.c ****       USBx_INEP(epnum)->DIEPCTL  |= USB_OTG_DIEPCTL_EPDIS;
 1759              		.loc 1 731 34 is_stmt 0 view .LVU560
 1760 006c D3F80029 		ldr	r2, [r3, #2304]
 1761 0070 42F00062 		orr	r2, r2, #134217728
 1762 0074 C3F80029 		str	r2, [r3, #2304]
 1763              	.LVL140:
 732:Drivers/STM32F4xx_HAL_Driver/Src/stm32f4xx_ll_usb.c ****     }
 1764              		.loc 1 732 7 is_stmt 1 view .LVU561
 732:Drivers/STM32F4xx_HAL_Driver/Src/stm32f4xx_ll_usb.c ****     }
 1765              		.loc 1 732 34 is_stmt 0 view .LVU562
 1766 0078 D3F80029 		ldr	r2, [r3, #2304]
ARM GAS  /tmp/ccfbcrWA.s 			page 67


 1767 007c 42F08042 		orr	r2, r2, #1073741824
 1768 0080 C3F80029 		str	r2, [r3, #2304]
 1769 0084 DFE7     		b	.L120
 1770              	.LVL141:
 1771              	.L124:
 742:Drivers/STM32F4xx_HAL_Driver/Src/stm32f4xx_ll_usb.c ****       USBx_OUTEP(epnum)->DOEPCTL  |= USB_OTG_DOEPCTL_EPDIS;
 1772              		.loc 1 742 7 is_stmt 1 view .LVU563
 742:Drivers/STM32F4xx_HAL_Driver/Src/stm32f4xx_ll_usb.c ****       USBx_OUTEP(epnum)->DOEPCTL  |= USB_OTG_DOEPCTL_EPDIS;
 1773              		.loc 1 742 35 is_stmt 0 view .LVU564
 1774 0086 D3F8002B 		ldr	r2, [r3, #2816]
 1775 008a 42F00062 		orr	r2, r2, #134217728
 1776 008e C3F8002B 		str	r2, [r3, #2816]
 1777              	.LVL142:
 743:Drivers/STM32F4xx_HAL_Driver/Src/stm32f4xx_ll_usb.c ****     }
 1778              		.loc 1 743 7 is_stmt 1 view .LVU565
 743:Drivers/STM32F4xx_HAL_Driver/Src/stm32f4xx_ll_usb.c ****     }
 1779              		.loc 1 743 35 is_stmt 0 view .LVU566
 1780 0092 D3F8002B 		ldr	r2, [r3, #2816]
 1781 0096 42F08042 		orr	r2, r2, #1073741824
 1782 009a C3F8002B 		str	r2, [r3, #2816]
 1783 009e B9E7     		b	.L122
 1784              		.cfi_endproc
 1785              	.LFE143:
 1787              		.section	.text.USB_EP0StartXfer,"ax",%progbits
 1788              		.align	1
 1789              		.global	USB_EP0StartXfer
 1790              		.syntax unified
 1791              		.thumb
 1792              		.thumb_func
 1793              		.fpu fpv4-sp-d16
 1795              	USB_EP0StartXfer:
 1796              	.LVL143:
 1797              	.LFB145:
 910:Drivers/STM32F4xx_HAL_Driver/Src/stm32f4xx_ll_usb.c ****   uint32_t USBx_BASE = (uint32_t)USBx;
 1798              		.loc 1 910 1 is_stmt 1 view -0
 1799              		.cfi_startproc
 1800              		@ args = 0, pretend = 0, frame = 0
 1801              		@ frame_needed = 0, uses_anonymous_args = 0
 1802              		@ link register save eliminated.
 910:Drivers/STM32F4xx_HAL_Driver/Src/stm32f4xx_ll_usb.c ****   uint32_t USBx_BASE = (uint32_t)USBx;
 1803              		.loc 1 910 1 is_stmt 0 view .LVU568
 1804 0000 70B4     		push	{r4, r5, r6}
 1805              	.LCFI24:
 1806              		.cfi_def_cfa_offset 12
 1807              		.cfi_offset 4, -12
 1808              		.cfi_offset 5, -8
 1809              		.cfi_offset 6, -4
 911:Drivers/STM32F4xx_HAL_Driver/Src/stm32f4xx_ll_usb.c ****   uint32_t epnum = (uint32_t)ep->num;
 1810              		.loc 1 911 3 is_stmt 1 view .LVU569
 1811              	.LVL144:
 912:Drivers/STM32F4xx_HAL_Driver/Src/stm32f4xx_ll_usb.c **** 
 1812              		.loc 1 912 3 view .LVU570
 912:Drivers/STM32F4xx_HAL_Driver/Src/stm32f4xx_ll_usb.c **** 
 1813              		.loc 1 912 32 is_stmt 0 view .LVU571
 1814 0002 0B78     		ldrb	r3, [r1]	@ zero_extendqisi2
 1815              	.LVL145:
 915:Drivers/STM32F4xx_HAL_Driver/Src/stm32f4xx_ll_usb.c ****   {
ARM GAS  /tmp/ccfbcrWA.s 			page 68


 1816              		.loc 1 915 3 is_stmt 1 view .LVU572
 915:Drivers/STM32F4xx_HAL_Driver/Src/stm32f4xx_ll_usb.c ****   {
 1817              		.loc 1 915 9 is_stmt 0 view .LVU573
 1818 0004 4C78     		ldrb	r4, [r1, #1]	@ zero_extendqisi2
 915:Drivers/STM32F4xx_HAL_Driver/Src/stm32f4xx_ll_usb.c ****   {
 1819              		.loc 1 915 6 view .LVU574
 1820 0006 012C     		cmp	r4, #1
 1821 0008 29D0     		beq	.L137
 970:Drivers/STM32F4xx_HAL_Driver/Src/stm32f4xx_ll_usb.c ****     USBx_OUTEP(epnum)->DOEPTSIZ &= ~(USB_OTG_DOEPTSIZ_PKTCNT);
 1822              		.loc 1 970 5 is_stmt 1 view .LVU575
 970:Drivers/STM32F4xx_HAL_Driver/Src/stm32f4xx_ll_usb.c ****     USBx_OUTEP(epnum)->DOEPTSIZ &= ~(USB_OTG_DOEPTSIZ_PKTCNT);
 1823              		.loc 1 970 33 is_stmt 0 view .LVU576
 1824 000a 00EB4310 		add	r0, r0, r3, lsl #5
 1825              	.LVL146:
 970:Drivers/STM32F4xx_HAL_Driver/Src/stm32f4xx_ll_usb.c ****     USBx_OUTEP(epnum)->DOEPTSIZ &= ~(USB_OTG_DOEPTSIZ_PKTCNT);
 1826              		.loc 1 970 33 view .LVU577
 1827 000e 00F53063 		add	r3, r0, #2816
 1828              	.LVL147:
 970:Drivers/STM32F4xx_HAL_Driver/Src/stm32f4xx_ll_usb.c ****     USBx_OUTEP(epnum)->DOEPTSIZ &= ~(USB_OTG_DOEPTSIZ_PKTCNT);
 1829              		.loc 1 970 33 view .LVU578
 1830 0012 1C69     		ldr	r4, [r3, #16]
 1831 0014 E40C     		lsrs	r4, r4, #19
 1832 0016 E404     		lsls	r4, r4, #19
 1833 0018 1C61     		str	r4, [r3, #16]
 1834              	.LVL148:
 971:Drivers/STM32F4xx_HAL_Driver/Src/stm32f4xx_ll_usb.c **** 
 1835              		.loc 1 971 5 is_stmt 1 view .LVU579
 971:Drivers/STM32F4xx_HAL_Driver/Src/stm32f4xx_ll_usb.c **** 
 1836              		.loc 1 971 33 is_stmt 0 view .LVU580
 1837 001a 1C69     		ldr	r4, [r3, #16]
 1838 001c 24F0FF54 		bic	r4, r4, #534773760
 1839 0020 24F4C014 		bic	r4, r4, #1572864
 1840 0024 1C61     		str	r4, [r3, #16]
 973:Drivers/STM32F4xx_HAL_Driver/Src/stm32f4xx_ll_usb.c ****     {
 1841              		.loc 1 973 5 is_stmt 1 view .LVU581
 973:Drivers/STM32F4xx_HAL_Driver/Src/stm32f4xx_ll_usb.c ****     {
 1842              		.loc 1 973 11 is_stmt 0 view .LVU582
 1843 0026 8C69     		ldr	r4, [r1, #24]
 973:Drivers/STM32F4xx_HAL_Driver/Src/stm32f4xx_ll_usb.c ****     {
 1844              		.loc 1 973 8 view .LVU583
 1845 0028 0CB1     		cbz	r4, .L134
 975:Drivers/STM32F4xx_HAL_Driver/Src/stm32f4xx_ll_usb.c ****     }
 1846              		.loc 1 975 7 is_stmt 1 view .LVU584
 975:Drivers/STM32F4xx_HAL_Driver/Src/stm32f4xx_ll_usb.c ****     }
 1847              		.loc 1 975 24 is_stmt 0 view .LVU585
 1848 002a CC68     		ldr	r4, [r1, #12]
 975:Drivers/STM32F4xx_HAL_Driver/Src/stm32f4xx_ll_usb.c ****     }
 1849              		.loc 1 975 20 view .LVU586
 1850 002c 8C61     		str	r4, [r1, #24]
 1851              	.L134:
 979:Drivers/STM32F4xx_HAL_Driver/Src/stm32f4xx_ll_usb.c **** 
 1852              		.loc 1 979 5 is_stmt 1 view .LVU587
 979:Drivers/STM32F4xx_HAL_Driver/Src/stm32f4xx_ll_usb.c **** 
 1853              		.loc 1 979 23 is_stmt 0 view .LVU588
 1854 002e CC68     		ldr	r4, [r1, #12]
 979:Drivers/STM32F4xx_HAL_Driver/Src/stm32f4xx_ll_usb.c **** 
 1855              		.loc 1 979 19 view .LVU589
ARM GAS  /tmp/ccfbcrWA.s 			page 69


 1856 0030 CC61     		str	r4, [r1, #28]
 981:Drivers/STM32F4xx_HAL_Driver/Src/stm32f4xx_ll_usb.c ****     USBx_OUTEP(epnum)->DOEPTSIZ |= (USB_OTG_DOEPTSIZ_XFRSIZ & ep->xfer_size);
 1857              		.loc 1 981 5 is_stmt 1 view .LVU590
 981:Drivers/STM32F4xx_HAL_Driver/Src/stm32f4xx_ll_usb.c ****     USBx_OUTEP(epnum)->DOEPTSIZ |= (USB_OTG_DOEPTSIZ_XFRSIZ & ep->xfer_size);
 1858              		.loc 1 981 33 is_stmt 0 view .LVU591
 1859 0032 1C69     		ldr	r4, [r3, #16]
 1860 0034 44F40024 		orr	r4, r4, #524288
 1861 0038 1C61     		str	r4, [r3, #16]
 982:Drivers/STM32F4xx_HAL_Driver/Src/stm32f4xx_ll_usb.c **** 
 1862              		.loc 1 982 5 is_stmt 1 view .LVU592
 982:Drivers/STM32F4xx_HAL_Driver/Src/stm32f4xx_ll_usb.c **** 
 1863              		.loc 1 982 33 is_stmt 0 view .LVU593
 1864 003a 1C69     		ldr	r4, [r3, #16]
 982:Drivers/STM32F4xx_HAL_Driver/Src/stm32f4xx_ll_usb.c **** 
 1865              		.loc 1 982 61 view .LVU594
 1866 003c CD69     		ldr	r5, [r1, #28]
 1867 003e C5F3120C 		ubfx	ip, r5, #0, #19
 982:Drivers/STM32F4xx_HAL_Driver/Src/stm32f4xx_ll_usb.c **** 
 1868              		.loc 1 982 33 view .LVU595
 1869 0042 44EA0C04 		orr	r4, r4, ip
 1870 0046 1C61     		str	r4, [r3, #16]
 984:Drivers/STM32F4xx_HAL_Driver/Src/stm32f4xx_ll_usb.c ****     {
 1871              		.loc 1 984 5 is_stmt 1 view .LVU596
 984:Drivers/STM32F4xx_HAL_Driver/Src/stm32f4xx_ll_usb.c ****     {
 1872              		.loc 1 984 8 is_stmt 0 view .LVU597
 1873 0048 012A     		cmp	r2, #1
 1874 004a 66D0     		beq	.L138
 1875              	.LVL149:
 1876              	.L135:
 993:Drivers/STM32F4xx_HAL_Driver/Src/stm32f4xx_ll_usb.c ****   }
 1877              		.loc 1 993 5 is_stmt 1 view .LVU598
 993:Drivers/STM32F4xx_HAL_Driver/Src/stm32f4xx_ll_usb.c ****   }
 1878              		.loc 1 993 32 is_stmt 0 view .LVU599
 1879 004c D0F8003B 		ldr	r3, [r0, #2816]
 1880 0050 43F00443 		orr	r3, r3, #-2080374784
 1881 0054 C0F8003B 		str	r3, [r0, #2816]
 1882              	.LVL150:
 1883              	.L133:
 996:Drivers/STM32F4xx_HAL_Driver/Src/stm32f4xx_ll_usb.c **** }
 1884              		.loc 1 996 3 is_stmt 1 view .LVU600
 997:Drivers/STM32F4xx_HAL_Driver/Src/stm32f4xx_ll_usb.c **** 
 1885              		.loc 1 997 1 is_stmt 0 view .LVU601
 1886 0058 0020     		movs	r0, #0
 1887 005a 70BC     		pop	{r4, r5, r6}
 1888              	.LCFI25:
 1889              		.cfi_remember_state
 1890              		.cfi_restore 6
 1891              		.cfi_restore 5
 1892              		.cfi_restore 4
 1893              		.cfi_def_cfa_offset 0
 1894 005c 7047     		bx	lr
 1895              	.LVL151:
 1896              	.L137:
 1897              	.LCFI26:
 1898              		.cfi_restore_state
 918:Drivers/STM32F4xx_HAL_Driver/Src/stm32f4xx_ll_usb.c ****     {
 1899              		.loc 1 918 5 is_stmt 1 view .LVU602
ARM GAS  /tmp/ccfbcrWA.s 			page 70


 918:Drivers/STM32F4xx_HAL_Driver/Src/stm32f4xx_ll_usb.c ****     {
 1900              		.loc 1 918 11 is_stmt 0 view .LVU603
 1901 005e 8C69     		ldr	r4, [r1, #24]
 918:Drivers/STM32F4xx_HAL_Driver/Src/stm32f4xx_ll_usb.c ****     {
 1902              		.loc 1 918 8 view .LVU604
 1903 0060 6CBB     		cbnz	r4, .L128
 920:Drivers/STM32F4xx_HAL_Driver/Src/stm32f4xx_ll_usb.c ****       USBx_INEP(epnum)->DIEPTSIZ |= (USB_OTG_DIEPTSIZ_PKTCNT & (1U << 19));
 1904              		.loc 1 920 7 is_stmt 1 view .LVU605
 920:Drivers/STM32F4xx_HAL_Driver/Src/stm32f4xx_ll_usb.c ****       USBx_INEP(epnum)->DIEPTSIZ |= (USB_OTG_DIEPTSIZ_PKTCNT & (1U << 19));
 1905              		.loc 1 920 34 is_stmt 0 view .LVU606
 1906 0062 00EB4314 		add	r4, r0, r3, lsl #5
 1907 0066 D4F81059 		ldr	r5, [r4, #2320]
 1908 006a 25F0FF55 		bic	r5, r5, #534773760
 1909 006e 25F4C015 		bic	r5, r5, #1572864
 1910 0072 C4F81059 		str	r5, [r4, #2320]
 921:Drivers/STM32F4xx_HAL_Driver/Src/stm32f4xx_ll_usb.c ****       USBx_INEP(epnum)->DIEPTSIZ &= ~(USB_OTG_DIEPTSIZ_XFRSIZ);
 1911              		.loc 1 921 7 is_stmt 1 view .LVU607
 921:Drivers/STM32F4xx_HAL_Driver/Src/stm32f4xx_ll_usb.c ****       USBx_INEP(epnum)->DIEPTSIZ &= ~(USB_OTG_DIEPTSIZ_XFRSIZ);
 1912              		.loc 1 921 34 is_stmt 0 view .LVU608
 1913 0076 D4F81059 		ldr	r5, [r4, #2320]
 1914 007a 45F40025 		orr	r5, r5, #524288
 1915 007e C4F81059 		str	r5, [r4, #2320]
 922:Drivers/STM32F4xx_HAL_Driver/Src/stm32f4xx_ll_usb.c ****     }
 1916              		.loc 1 922 7 is_stmt 1 view .LVU609
 922:Drivers/STM32F4xx_HAL_Driver/Src/stm32f4xx_ll_usb.c ****     }
 1917              		.loc 1 922 34 is_stmt 0 view .LVU610
 1918 0082 D4F81059 		ldr	r5, [r4, #2320]
 1919 0086 ED0C     		lsrs	r5, r5, #19
 1920 0088 ED04     		lsls	r5, r5, #19
 1921 008a C4F81059 		str	r5, [r4, #2320]
 1922              	.L129:
 942:Drivers/STM32F4xx_HAL_Driver/Src/stm32f4xx_ll_usb.c ****     {
 1923              		.loc 1 942 5 is_stmt 1 view .LVU611
 942:Drivers/STM32F4xx_HAL_Driver/Src/stm32f4xx_ll_usb.c ****     {
 1924              		.loc 1 942 8 is_stmt 0 view .LVU612
 1925 008e 012A     		cmp	r2, #1
 1926 0090 34D0     		beq	.L139
 955:Drivers/STM32F4xx_HAL_Driver/Src/stm32f4xx_ll_usb.c **** 
 1927              		.loc 1 955 7 is_stmt 1 view .LVU613
 955:Drivers/STM32F4xx_HAL_Driver/Src/stm32f4xx_ll_usb.c **** 
 1928              		.loc 1 955 33 is_stmt 0 view .LVU614
 1929 0092 00EB4313 		add	r3, r0, r3, lsl #5
 1930              	.LVL152:
 955:Drivers/STM32F4xx_HAL_Driver/Src/stm32f4xx_ll_usb.c **** 
 1931              		.loc 1 955 33 view .LVU615
 1932 0096 D3F80029 		ldr	r2, [r3, #2304]
 1933              	.LVL153:
 955:Drivers/STM32F4xx_HAL_Driver/Src/stm32f4xx_ll_usb.c **** 
 1934              		.loc 1 955 33 view .LVU616
 1935 009a 42F00442 		orr	r2, r2, #-2080374784
 1936 009e C3F80029 		str	r2, [r3, #2304]
 958:Drivers/STM32F4xx_HAL_Driver/Src/stm32f4xx_ll_usb.c ****       {
 1937              		.loc 1 958 7 is_stmt 1 view .LVU617
 958:Drivers/STM32F4xx_HAL_Driver/Src/stm32f4xx_ll_usb.c ****       {
 1938              		.loc 1 958 13 is_stmt 0 view .LVU618
 1939 00a2 8B69     		ldr	r3, [r1, #24]
 958:Drivers/STM32F4xx_HAL_Driver/Src/stm32f4xx_ll_usb.c ****       {
ARM GAS  /tmp/ccfbcrWA.s 			page 71


 1940              		.loc 1 958 10 view .LVU619
 1941 00a4 002B     		cmp	r3, #0
 1942 00a6 D7D0     		beq	.L133
 960:Drivers/STM32F4xx_HAL_Driver/Src/stm32f4xx_ll_usb.c ****       }
 1943              		.loc 1 960 9 is_stmt 1 view .LVU620
 960:Drivers/STM32F4xx_HAL_Driver/Src/stm32f4xx_ll_usb.c ****       }
 1944              		.loc 1 960 33 is_stmt 0 view .LVU621
 1945 00a8 D0F83438 		ldr	r3, [r0, #2100]
 960:Drivers/STM32F4xx_HAL_Driver/Src/stm32f4xx_ll_usb.c ****       }
 1946              		.loc 1 960 46 view .LVU622
 1947 00ac 0A78     		ldrb	r2, [r1]	@ zero_extendqisi2
 960:Drivers/STM32F4xx_HAL_Driver/Src/stm32f4xx_ll_usb.c ****       }
 1948              		.loc 1 960 52 view .LVU623
 1949 00ae 02F00F01 		and	r1, r2, #15
 1950              	.LVL154:
 960:Drivers/STM32F4xx_HAL_Driver/Src/stm32f4xx_ll_usb.c ****       }
 1951              		.loc 1 960 40 view .LVU624
 1952 00b2 0122     		movs	r2, #1
 1953 00b4 8A40     		lsls	r2, r2, r1
 960:Drivers/STM32F4xx_HAL_Driver/Src/stm32f4xx_ll_usb.c ****       }
 1954              		.loc 1 960 33 view .LVU625
 1955 00b6 1343     		orrs	r3, r3, r2
 1956 00b8 C0F83438 		str	r3, [r0, #2100]
 1957 00bc CCE7     		b	.L133
 1958              	.LVL155:
 1959              	.L128:
 931:Drivers/STM32F4xx_HAL_Driver/Src/stm32f4xx_ll_usb.c ****       USBx_INEP(epnum)->DIEPTSIZ &= ~(USB_OTG_DIEPTSIZ_PKTCNT);
 1960              		.loc 1 931 7 is_stmt 1 view .LVU626
 931:Drivers/STM32F4xx_HAL_Driver/Src/stm32f4xx_ll_usb.c ****       USBx_INEP(epnum)->DIEPTSIZ &= ~(USB_OTG_DIEPTSIZ_PKTCNT);
 1961              		.loc 1 931 34 is_stmt 0 view .LVU627
 1962 00be 00EB4314 		add	r4, r0, r3, lsl #5
 1963 00c2 04F51064 		add	r4, r4, #2304
 1964 00c6 2569     		ldr	r5, [r4, #16]
 1965 00c8 ED0C     		lsrs	r5, r5, #19
 1966 00ca ED04     		lsls	r5, r5, #19
 1967 00cc 2561     		str	r5, [r4, #16]
 932:Drivers/STM32F4xx_HAL_Driver/Src/stm32f4xx_ll_usb.c **** 
 1968              		.loc 1 932 7 is_stmt 1 view .LVU628
 932:Drivers/STM32F4xx_HAL_Driver/Src/stm32f4xx_ll_usb.c **** 
 1969              		.loc 1 932 34 is_stmt 0 view .LVU629
 1970 00ce 2569     		ldr	r5, [r4, #16]
 1971 00d0 25F0FF55 		bic	r5, r5, #534773760
 1972 00d4 25F4C015 		bic	r5, r5, #1572864
 1973 00d8 2561     		str	r5, [r4, #16]
 934:Drivers/STM32F4xx_HAL_Driver/Src/stm32f4xx_ll_usb.c ****       {
 1974              		.loc 1 934 7 is_stmt 1 view .LVU630
 934:Drivers/STM32F4xx_HAL_Driver/Src/stm32f4xx_ll_usb.c ****       {
 1975              		.loc 1 934 28 is_stmt 0 view .LVU631
 1976 00da CD68     		ldr	r5, [r1, #12]
 934:Drivers/STM32F4xx_HAL_Driver/Src/stm32f4xx_ll_usb.c ****       {
 1977              		.loc 1 934 10 view .LVU632
 1978 00dc 8E69     		ldr	r6, [r1, #24]
 1979 00de AE42     		cmp	r6, r5
 1980 00e0 00D9     		bls	.L130
 936:Drivers/STM32F4xx_HAL_Driver/Src/stm32f4xx_ll_usb.c ****       }
 1981              		.loc 1 936 9 is_stmt 1 view .LVU633
 936:Drivers/STM32F4xx_HAL_Driver/Src/stm32f4xx_ll_usb.c ****       }
ARM GAS  /tmp/ccfbcrWA.s 			page 72


 1982              		.loc 1 936 22 is_stmt 0 view .LVU634
 1983 00e2 8D61     		str	r5, [r1, #24]
 1984              	.L130:
 938:Drivers/STM32F4xx_HAL_Driver/Src/stm32f4xx_ll_usb.c ****       USBx_INEP(epnum)->DIEPTSIZ |= (USB_OTG_DIEPTSIZ_XFRSIZ & ep->xfer_len);
 1985              		.loc 1 938 7 is_stmt 1 view .LVU635
 938:Drivers/STM32F4xx_HAL_Driver/Src/stm32f4xx_ll_usb.c ****       USBx_INEP(epnum)->DIEPTSIZ |= (USB_OTG_DIEPTSIZ_XFRSIZ & ep->xfer_len);
 1986              		.loc 1 938 34 is_stmt 0 view .LVU636
 1987 00e4 2569     		ldr	r5, [r4, #16]
 1988 00e6 45F40025 		orr	r5, r5, #524288
 1989 00ea 2561     		str	r5, [r4, #16]
 939:Drivers/STM32F4xx_HAL_Driver/Src/stm32f4xx_ll_usb.c ****     }
 1990              		.loc 1 939 7 is_stmt 1 view .LVU637
 939:Drivers/STM32F4xx_HAL_Driver/Src/stm32f4xx_ll_usb.c ****     }
 1991              		.loc 1 939 34 is_stmt 0 view .LVU638
 1992 00ec 2569     		ldr	r5, [r4, #16]
 939:Drivers/STM32F4xx_HAL_Driver/Src/stm32f4xx_ll_usb.c ****     }
 1993              		.loc 1 939 62 view .LVU639
 1994 00ee 8E69     		ldr	r6, [r1, #24]
 1995 00f0 C6F3120C 		ubfx	ip, r6, #0, #19
 939:Drivers/STM32F4xx_HAL_Driver/Src/stm32f4xx_ll_usb.c ****     }
 1996              		.loc 1 939 34 view .LVU640
 1997 00f4 45EA0C05 		orr	r5, r5, ip
 1998 00f8 2561     		str	r5, [r4, #16]
 1999 00fa C8E7     		b	.L129
 2000              	.L139:
 944:Drivers/STM32F4xx_HAL_Driver/Src/stm32f4xx_ll_usb.c ****       {
 2001              		.loc 1 944 7 is_stmt 1 view .LVU641
 944:Drivers/STM32F4xx_HAL_Driver/Src/stm32f4xx_ll_usb.c ****       {
 2002              		.loc 1 944 23 is_stmt 0 view .LVU642
 2003 00fc 4A69     		ldr	r2, [r1, #20]
 2004              	.LVL156:
 944:Drivers/STM32F4xx_HAL_Driver/Src/stm32f4xx_ll_usb.c ****       {
 2005              		.loc 1 944 10 view .LVU643
 2006 00fe 1AB1     		cbz	r2, .L132
 946:Drivers/STM32F4xx_HAL_Driver/Src/stm32f4xx_ll_usb.c ****       }
 2007              		.loc 1 946 9 is_stmt 1 view .LVU644
 2008 0100 00EB4311 		add	r1, r0, r3, lsl #5
 2009              	.LVL157:
 946:Drivers/STM32F4xx_HAL_Driver/Src/stm32f4xx_ll_usb.c ****       }
 2010              		.loc 1 946 35 is_stmt 0 view .LVU645
 2011 0104 C1F81429 		str	r2, [r1, #2324]
 2012              	.L132:
 950:Drivers/STM32F4xx_HAL_Driver/Src/stm32f4xx_ll_usb.c ****     }
 2013              		.loc 1 950 7 is_stmt 1 view .LVU646
 950:Drivers/STM32F4xx_HAL_Driver/Src/stm32f4xx_ll_usb.c ****     }
 2014              		.loc 1 950 33 is_stmt 0 view .LVU647
 2015 0108 00EB4310 		add	r0, r0, r3, lsl #5
 2016              	.LVL158:
 950:Drivers/STM32F4xx_HAL_Driver/Src/stm32f4xx_ll_usb.c ****     }
 2017              		.loc 1 950 33 view .LVU648
 2018 010c D0F80029 		ldr	r2, [r0, #2304]
 2019 0110 42F00442 		orr	r2, r2, #-2080374784
 2020 0114 C0F80029 		str	r2, [r0, #2304]
 2021 0118 9EE7     		b	.L133
 2022              	.LVL159:
 2023              	.L138:
 986:Drivers/STM32F4xx_HAL_Driver/Src/stm32f4xx_ll_usb.c ****       {
ARM GAS  /tmp/ccfbcrWA.s 			page 73


 2024              		.loc 1 986 7 is_stmt 1 view .LVU649
 986:Drivers/STM32F4xx_HAL_Driver/Src/stm32f4xx_ll_usb.c ****       {
 2025              		.loc 1 986 23 is_stmt 0 view .LVU650
 2026 011a 0A69     		ldr	r2, [r1, #16]
 2027              	.LVL160:
 986:Drivers/STM32F4xx_HAL_Driver/Src/stm32f4xx_ll_usb.c ****       {
 2028              		.loc 1 986 10 view .LVU651
 2029 011c 002A     		cmp	r2, #0
 2030 011e 95D0     		beq	.L135
 988:Drivers/STM32F4xx_HAL_Driver/Src/stm32f4xx_ll_usb.c ****       }
 2031              		.loc 1 988 9 is_stmt 1 view .LVU652
 988:Drivers/STM32F4xx_HAL_Driver/Src/stm32f4xx_ll_usb.c ****       }
 2032              		.loc 1 988 36 is_stmt 0 view .LVU653
 2033 0120 5A61     		str	r2, [r3, #20]
 2034 0122 93E7     		b	.L135
 2035              		.cfi_endproc
 2036              	.LFE145:
 2038              		.section	.text.USB_EPStopXfer,"ax",%progbits
 2039              		.align	1
 2040              		.global	USB_EPStopXfer
 2041              		.syntax unified
 2042              		.thumb
 2043              		.thumb_func
 2044              		.fpu fpv4-sp-d16
 2046              	USB_EPStopXfer:
 2047              	.LVL161:
 2048              	.LFB146:
1007:Drivers/STM32F4xx_HAL_Driver/Src/stm32f4xx_ll_usb.c ****   __IO uint32_t count = 0U;
 2049              		.loc 1 1007 1 is_stmt 1 view -0
 2050              		.cfi_startproc
 2051              		@ args = 0, pretend = 0, frame = 8
 2052              		@ frame_needed = 0, uses_anonymous_args = 0
 2053              		@ link register save eliminated.
1007:Drivers/STM32F4xx_HAL_Driver/Src/stm32f4xx_ll_usb.c ****   __IO uint32_t count = 0U;
 2054              		.loc 1 1007 1 is_stmt 0 view .LVU655
 2055 0000 10B4     		push	{r4}
 2056              	.LCFI27:
 2057              		.cfi_def_cfa_offset 4
 2058              		.cfi_offset 4, -4
 2059 0002 83B0     		sub	sp, sp, #12
 2060              	.LCFI28:
 2061              		.cfi_def_cfa_offset 16
 2062 0004 0246     		mov	r2, r0
1008:Drivers/STM32F4xx_HAL_Driver/Src/stm32f4xx_ll_usb.c ****   HAL_StatusTypeDef ret = HAL_OK;
 2063              		.loc 1 1008 3 is_stmt 1 view .LVU656
1008:Drivers/STM32F4xx_HAL_Driver/Src/stm32f4xx_ll_usb.c ****   HAL_StatusTypeDef ret = HAL_OK;
 2064              		.loc 1 1008 17 is_stmt 0 view .LVU657
 2065 0006 0023     		movs	r3, #0
 2066 0008 0193     		str	r3, [sp, #4]
1009:Drivers/STM32F4xx_HAL_Driver/Src/stm32f4xx_ll_usb.c ****   uint32_t USBx_BASE = (uint32_t)USBx;
 2067              		.loc 1 1009 3 is_stmt 1 view .LVU658
 2068              	.LVL162:
1010:Drivers/STM32F4xx_HAL_Driver/Src/stm32f4xx_ll_usb.c **** 
 2069              		.loc 1 1010 3 view .LVU659
1013:Drivers/STM32F4xx_HAL_Driver/Src/stm32f4xx_ll_usb.c ****   {
 2070              		.loc 1 1013 3 view .LVU660
1013:Drivers/STM32F4xx_HAL_Driver/Src/stm32f4xx_ll_usb.c ****   {
ARM GAS  /tmp/ccfbcrWA.s 			page 74


 2071              		.loc 1 1013 9 is_stmt 0 view .LVU661
 2072 000a 4878     		ldrb	r0, [r1, #1]	@ zero_extendqisi2
 2073              	.LVL163:
1013:Drivers/STM32F4xx_HAL_Driver/Src/stm32f4xx_ll_usb.c ****   {
 2074              		.loc 1 1013 6 view .LVU662
 2075 000c 0128     		cmp	r0, #1
 2076 000e 0BD0     		beq	.L149
1035:Drivers/STM32F4xx_HAL_Driver/Src/stm32f4xx_ll_usb.c ****     {
 2077              		.loc 1 1035 5 is_stmt 1 view .LVU663
1035:Drivers/STM32F4xx_HAL_Driver/Src/stm32f4xx_ll_usb.c ****     {
 2078              		.loc 1 1035 11 is_stmt 0 view .LVU664
 2079 0010 0B78     		ldrb	r3, [r1]	@ zero_extendqisi2
 2080 0012 02EB4313 		add	r3, r2, r3, lsl #5
1035:Drivers/STM32F4xx_HAL_Driver/Src/stm32f4xx_ll_usb.c ****     {
 2081              		.loc 1 1035 30 view .LVU665
 2082 0016 D3F8000B 		ldr	r0, [r3, #2816]
1035:Drivers/STM32F4xx_HAL_Driver/Src/stm32f4xx_ll_usb.c ****     {
 2083              		.loc 1 1035 8 view .LVU666
 2084 001a 0028     		cmp	r0, #0
 2085 001c 2DDB     		blt	.L150
1009:Drivers/STM32F4xx_HAL_Driver/Src/stm32f4xx_ll_usb.c ****   uint32_t USBx_BASE = (uint32_t)USBx;
 2086              		.loc 1 1009 21 view .LVU667
 2087 001e 0020     		movs	r0, #0
 2088              	.L142:
 2089              	.LVL164:
1053:Drivers/STM32F4xx_HAL_Driver/Src/stm32f4xx_ll_usb.c **** }
 2090              		.loc 1 1053 3 is_stmt 1 view .LVU668
1054:Drivers/STM32F4xx_HAL_Driver/Src/stm32f4xx_ll_usb.c **** 
 2091              		.loc 1 1054 1 is_stmt 0 view .LVU669
 2092 0020 03B0     		add	sp, sp, #12
 2093              	.LCFI29:
 2094              		.cfi_remember_state
 2095              		.cfi_def_cfa_offset 4
 2096              		@ sp needed
 2097 0022 5DF8044B 		ldr	r4, [sp], #4
 2098              	.LCFI30:
 2099              		.cfi_restore 4
 2100              		.cfi_def_cfa_offset 0
 2101 0026 7047     		bx	lr
 2102              	.LVL165:
 2103              	.L149:
 2104              	.LCFI31:
 2105              		.cfi_restore_state
1016:Drivers/STM32F4xx_HAL_Driver/Src/stm32f4xx_ll_usb.c ****     {
 2106              		.loc 1 1016 5 is_stmt 1 view .LVU670
1016:Drivers/STM32F4xx_HAL_Driver/Src/stm32f4xx_ll_usb.c ****     {
 2107              		.loc 1 1016 11 is_stmt 0 view .LVU671
 2108 0028 0B78     		ldrb	r3, [r1]	@ zero_extendqisi2
 2109 002a 02EB4313 		add	r3, r2, r3, lsl #5
1016:Drivers/STM32F4xx_HAL_Driver/Src/stm32f4xx_ll_usb.c ****     {
 2110              		.loc 1 1016 29 view .LVU672
 2111 002e D3F80049 		ldr	r4, [r3, #2304]
1016:Drivers/STM32F4xx_HAL_Driver/Src/stm32f4xx_ll_usb.c ****     {
 2112              		.loc 1 1016 8 view .LVU673
 2113 0032 002C     		cmp	r4, #0
 2114 0034 01DB     		blt	.L151
1009:Drivers/STM32F4xx_HAL_Driver/Src/stm32f4xx_ll_usb.c ****   uint32_t USBx_BASE = (uint32_t)USBx;
ARM GAS  /tmp/ccfbcrWA.s 			page 75


 2115              		.loc 1 1009 21 view .LVU674
 2116 0036 0020     		movs	r0, #0
 2117 0038 F2E7     		b	.L142
 2118              	.L151:
1018:Drivers/STM32F4xx_HAL_Driver/Src/stm32f4xx_ll_usb.c ****       USBx_INEP(ep->num)->DIEPCTL |= (USB_OTG_DIEPCTL_EPDIS);
 2119              		.loc 1 1018 7 is_stmt 1 view .LVU675
1018:Drivers/STM32F4xx_HAL_Driver/Src/stm32f4xx_ll_usb.c ****       USBx_INEP(ep->num)->DIEPCTL |= (USB_OTG_DIEPCTL_EPDIS);
 2120              		.loc 1 1018 35 is_stmt 0 view .LVU676
 2121 003a D3F80049 		ldr	r4, [r3, #2304]
 2122 003e 44F00064 		orr	r4, r4, #134217728
 2123 0042 C3F80049 		str	r4, [r3, #2304]
1019:Drivers/STM32F4xx_HAL_Driver/Src/stm32f4xx_ll_usb.c **** 
 2124              		.loc 1 1019 7 is_stmt 1 view .LVU677
 2125 0046 0B78     		ldrb	r3, [r1]	@ zero_extendqisi2
1019:Drivers/STM32F4xx_HAL_Driver/Src/stm32f4xx_ll_usb.c **** 
 2126              		.loc 1 1019 35 is_stmt 0 view .LVU678
 2127 0048 02EB4313 		add	r3, r2, r3, lsl #5
 2128 004c D3F80049 		ldr	r4, [r3, #2304]
 2129 0050 44F08044 		orr	r4, r4, #1073741824
 2130 0054 C3F80049 		str	r4, [r3, #2304]
 2131              	.L143:
1021:Drivers/STM32F4xx_HAL_Driver/Src/stm32f4xx_ll_usb.c ****       {
 2132              		.loc 1 1021 7 is_stmt 1 view .LVU679
1023:Drivers/STM32F4xx_HAL_Driver/Src/stm32f4xx_ll_usb.c **** 
 2133              		.loc 1 1023 9 view .LVU680
1023:Drivers/STM32F4xx_HAL_Driver/Src/stm32f4xx_ll_usb.c **** 
 2134              		.loc 1 1023 14 is_stmt 0 view .LVU681
 2135 0058 019B     		ldr	r3, [sp, #4]
 2136 005a 0133     		adds	r3, r3, #1
 2137 005c 0193     		str	r3, [sp, #4]
1025:Drivers/STM32F4xx_HAL_Driver/Src/stm32f4xx_ll_usb.c ****         {
 2138              		.loc 1 1025 9 is_stmt 1 view .LVU682
1025:Drivers/STM32F4xx_HAL_Driver/Src/stm32f4xx_ll_usb.c ****         {
 2139              		.loc 1 1025 19 is_stmt 0 view .LVU683
 2140 005e 019C     		ldr	r4, [sp, #4]
1025:Drivers/STM32F4xx_HAL_Driver/Src/stm32f4xx_ll_usb.c ****         {
 2141              		.loc 1 1025 12 view .LVU684
 2142 0060 42F21073 		movw	r3, #10000
 2143 0064 9C42     		cmp	r4, r3
 2144 0066 DBD8     		bhi	.L142
1030:Drivers/STM32F4xx_HAL_Driver/Src/stm32f4xx_ll_usb.c ****     }
 2145              		.loc 1 1030 15 is_stmt 1 view .LVU685
1030:Drivers/STM32F4xx_HAL_Driver/Src/stm32f4xx_ll_usb.c ****     }
 2146              		.loc 1 1030 18 is_stmt 0 view .LVU686
 2147 0068 0B78     		ldrb	r3, [r1]	@ zero_extendqisi2
 2148 006a 02EB4313 		add	r3, r2, r3, lsl #5
1030:Drivers/STM32F4xx_HAL_Driver/Src/stm32f4xx_ll_usb.c ****     }
 2149              		.loc 1 1030 36 view .LVU687
 2150 006e D3F80039 		ldr	r3, [r3, #2304]
1030:Drivers/STM32F4xx_HAL_Driver/Src/stm32f4xx_ll_usb.c ****     }
 2151              		.loc 1 1030 7 view .LVU688
 2152 0072 002B     		cmp	r3, #0
 2153 0074 F0DB     		blt	.L143
1009:Drivers/STM32F4xx_HAL_Driver/Src/stm32f4xx_ll_usb.c ****   uint32_t USBx_BASE = (uint32_t)USBx;
 2154              		.loc 1 1009 21 view .LVU689
 2155 0076 0020     		movs	r0, #0
 2156 0078 D2E7     		b	.L142
ARM GAS  /tmp/ccfbcrWA.s 			page 76


 2157              	.L150:
1037:Drivers/STM32F4xx_HAL_Driver/Src/stm32f4xx_ll_usb.c ****       USBx_OUTEP(ep->num)->DOEPCTL |= (USB_OTG_DOEPCTL_EPDIS);
 2158              		.loc 1 1037 7 is_stmt 1 view .LVU690
1037:Drivers/STM32F4xx_HAL_Driver/Src/stm32f4xx_ll_usb.c ****       USBx_OUTEP(ep->num)->DOEPCTL |= (USB_OTG_DOEPCTL_EPDIS);
 2159              		.loc 1 1037 36 is_stmt 0 view .LVU691
 2160 007a D3F8000B 		ldr	r0, [r3, #2816]
 2161 007e 40F00060 		orr	r0, r0, #134217728
 2162 0082 C3F8000B 		str	r0, [r3, #2816]
1038:Drivers/STM32F4xx_HAL_Driver/Src/stm32f4xx_ll_usb.c **** 
 2163              		.loc 1 1038 7 is_stmt 1 view .LVU692
 2164 0086 0B78     		ldrb	r3, [r1]	@ zero_extendqisi2
1038:Drivers/STM32F4xx_HAL_Driver/Src/stm32f4xx_ll_usb.c **** 
 2165              		.loc 1 1038 36 is_stmt 0 view .LVU693
 2166 0088 02EB4313 		add	r3, r2, r3, lsl #5
 2167 008c D3F8000B 		ldr	r0, [r3, #2816]
 2168 0090 40F08040 		orr	r0, r0, #1073741824
 2169 0094 C3F8000B 		str	r0, [r3, #2816]
 2170              	.L144:
1040:Drivers/STM32F4xx_HAL_Driver/Src/stm32f4xx_ll_usb.c ****       {
 2171              		.loc 1 1040 7 is_stmt 1 view .LVU694
1042:Drivers/STM32F4xx_HAL_Driver/Src/stm32f4xx_ll_usb.c **** 
 2172              		.loc 1 1042 9 view .LVU695
1042:Drivers/STM32F4xx_HAL_Driver/Src/stm32f4xx_ll_usb.c **** 
 2173              		.loc 1 1042 14 is_stmt 0 view .LVU696
 2174 0098 019B     		ldr	r3, [sp, #4]
 2175 009a 0133     		adds	r3, r3, #1
 2176 009c 0193     		str	r3, [sp, #4]
1044:Drivers/STM32F4xx_HAL_Driver/Src/stm32f4xx_ll_usb.c ****         {
 2177              		.loc 1 1044 9 is_stmt 1 view .LVU697
1044:Drivers/STM32F4xx_HAL_Driver/Src/stm32f4xx_ll_usb.c ****         {
 2178              		.loc 1 1044 19 is_stmt 0 view .LVU698
 2179 009e 0198     		ldr	r0, [sp, #4]
1044:Drivers/STM32F4xx_HAL_Driver/Src/stm32f4xx_ll_usb.c ****         {
 2180              		.loc 1 1044 12 view .LVU699
 2181 00a0 42F21073 		movw	r3, #10000
 2182 00a4 9842     		cmp	r0, r3
 2183 00a6 08D8     		bhi	.L147
1049:Drivers/STM32F4xx_HAL_Driver/Src/stm32f4xx_ll_usb.c ****     }
 2184              		.loc 1 1049 15 is_stmt 1 view .LVU700
1049:Drivers/STM32F4xx_HAL_Driver/Src/stm32f4xx_ll_usb.c ****     }
 2185              		.loc 1 1049 18 is_stmt 0 view .LVU701
 2186 00a8 0B78     		ldrb	r3, [r1]	@ zero_extendqisi2
 2187 00aa 02EB4313 		add	r3, r2, r3, lsl #5
1049:Drivers/STM32F4xx_HAL_Driver/Src/stm32f4xx_ll_usb.c ****     }
 2188              		.loc 1 1049 37 view .LVU702
 2189 00ae D3F8003B 		ldr	r3, [r3, #2816]
1049:Drivers/STM32F4xx_HAL_Driver/Src/stm32f4xx_ll_usb.c ****     }
 2190              		.loc 1 1049 7 view .LVU703
 2191 00b2 002B     		cmp	r3, #0
 2192 00b4 F0DB     		blt	.L144
1009:Drivers/STM32F4xx_HAL_Driver/Src/stm32f4xx_ll_usb.c ****   uint32_t USBx_BASE = (uint32_t)USBx;
 2193              		.loc 1 1009 21 view .LVU704
 2194 00b6 0020     		movs	r0, #0
 2195 00b8 B2E7     		b	.L142
 2196              	.L147:
1046:Drivers/STM32F4xx_HAL_Driver/Src/stm32f4xx_ll_usb.c ****           break;
 2197              		.loc 1 1046 15 view .LVU705
ARM GAS  /tmp/ccfbcrWA.s 			page 77


 2198 00ba 0120     		movs	r0, #1
 2199 00bc B0E7     		b	.L142
 2200              		.cfi_endproc
 2201              	.LFE146:
 2203              		.section	.text.USB_WritePacket,"ax",%progbits
 2204              		.align	1
 2205              		.global	USB_WritePacket
 2206              		.syntax unified
 2207              		.thumb
 2208              		.thumb_func
 2209              		.fpu fpv4-sp-d16
 2211              	USB_WritePacket:
 2212              	.LVL166:
 2213              	.LFB147:
1072:Drivers/STM32F4xx_HAL_Driver/Src/stm32f4xx_ll_usb.c ****   uint32_t USBx_BASE = (uint32_t)USBx;
 2214              		.loc 1 1072 1 is_stmt 1 view -0
 2215              		.cfi_startproc
 2216              		@ args = 4, pretend = 0, frame = 0
 2217              		@ frame_needed = 0, uses_anonymous_args = 0
1072:Drivers/STM32F4xx_HAL_Driver/Src/stm32f4xx_ll_usb.c ****   uint32_t USBx_BASE = (uint32_t)USBx;
 2218              		.loc 1 1072 1 is_stmt 0 view .LVU707
 2219 0000 10B5     		push	{r4, lr}
 2220              	.LCFI32:
 2221              		.cfi_def_cfa_offset 8
 2222              		.cfi_offset 4, -8
 2223              		.cfi_offset 14, -4
 2224 0002 9DF80840 		ldrb	r4, [sp, #8]	@ zero_extendqisi2
1073:Drivers/STM32F4xx_HAL_Driver/Src/stm32f4xx_ll_usb.c ****   uint8_t *pSrc = src;
 2225              		.loc 1 1073 3 is_stmt 1 view .LVU708
 2226              	.LVL167:
1074:Drivers/STM32F4xx_HAL_Driver/Src/stm32f4xx_ll_usb.c ****   uint32_t count32b;
 2227              		.loc 1 1074 3 view .LVU709
1075:Drivers/STM32F4xx_HAL_Driver/Src/stm32f4xx_ll_usb.c ****   uint32_t i;
 2228              		.loc 1 1075 3 view .LVU710
1076:Drivers/STM32F4xx_HAL_Driver/Src/stm32f4xx_ll_usb.c **** 
 2229              		.loc 1 1076 3 view .LVU711
1078:Drivers/STM32F4xx_HAL_Driver/Src/stm32f4xx_ll_usb.c ****   {
 2230              		.loc 1 1078 3 view .LVU712
1078:Drivers/STM32F4xx_HAL_Driver/Src/stm32f4xx_ll_usb.c ****   {
 2231              		.loc 1 1078 6 is_stmt 0 view .LVU713
 2232 0006 84B9     		cbnz	r4, .L153
1080:Drivers/STM32F4xx_HAL_Driver/Src/stm32f4xx_ll_usb.c ****     for (i = 0U; i < count32b; i++)
 2233              		.loc 1 1080 5 is_stmt 1 view .LVU714
1080:Drivers/STM32F4xx_HAL_Driver/Src/stm32f4xx_ll_usb.c ****     for (i = 0U; i < count32b; i++)
 2234              		.loc 1 1080 31 is_stmt 0 view .LVU715
 2235 0008 0333     		adds	r3, r3, #3
 2236              	.LVL168:
1080:Drivers/STM32F4xx_HAL_Driver/Src/stm32f4xx_ll_usb.c ****     for (i = 0U; i < count32b; i++)
 2237              		.loc 1 1080 14 view .LVU716
 2238 000a 4FEA930E 		lsr	lr, r3, #2
 2239              	.LVL169:
1081:Drivers/STM32F4xx_HAL_Driver/Src/stm32f4xx_ll_usb.c ****     {
 2240              		.loc 1 1081 5 is_stmt 1 view .LVU717
1081:Drivers/STM32F4xx_HAL_Driver/Src/stm32f4xx_ll_usb.c ****     {
 2241              		.loc 1 1081 12 is_stmt 0 view .LVU718
 2242 000e 4FF0000C 		mov	ip, #0
1081:Drivers/STM32F4xx_HAL_Driver/Src/stm32f4xx_ll_usb.c ****     {
ARM GAS  /tmp/ccfbcrWA.s 			page 78


 2243              		.loc 1 1081 5 view .LVU719
 2244 0012 08E0     		b	.L154
 2245              	.LVL170:
 2246              	.L155:
1083:Drivers/STM32F4xx_HAL_Driver/Src/stm32f4xx_ll_usb.c ****       pSrc++;
 2247              		.loc 1 1083 7 is_stmt 1 discriminator 3 view .LVU720
 2248 0014 00EB0233 		add	r3, r0, r2, lsl #12
 2249 0018 03F58053 		add	r3, r3, #4096
1083:Drivers/STM32F4xx_HAL_Driver/Src/stm32f4xx_ll_usb.c ****       pSrc++;
 2250              		.loc 1 1083 41 is_stmt 0 discriminator 3 view .LVU721
 2251 001c 51F8044B 		ldr	r4, [r1], #4	@ unaligned
 2252              	.LVL171:
1083:Drivers/STM32F4xx_HAL_Driver/Src/stm32f4xx_ll_usb.c ****       pSrc++;
 2253              		.loc 1 1083 39 discriminator 3 view .LVU722
 2254 0020 1C60     		str	r4, [r3]
1084:Drivers/STM32F4xx_HAL_Driver/Src/stm32f4xx_ll_usb.c ****       pSrc++;
 2255              		.loc 1 1084 7 is_stmt 1 discriminator 3 view .LVU723
 2256              	.LVL172:
1085:Drivers/STM32F4xx_HAL_Driver/Src/stm32f4xx_ll_usb.c ****       pSrc++;
 2257              		.loc 1 1085 7 discriminator 3 view .LVU724
1086:Drivers/STM32F4xx_HAL_Driver/Src/stm32f4xx_ll_usb.c ****       pSrc++;
 2258              		.loc 1 1086 7 discriminator 3 view .LVU725
1087:Drivers/STM32F4xx_HAL_Driver/Src/stm32f4xx_ll_usb.c ****     }
 2259              		.loc 1 1087 7 discriminator 3 view .LVU726
1081:Drivers/STM32F4xx_HAL_Driver/Src/stm32f4xx_ll_usb.c ****     {
 2260              		.loc 1 1081 32 discriminator 3 view .LVU727
1081:Drivers/STM32F4xx_HAL_Driver/Src/stm32f4xx_ll_usb.c ****     {
 2261              		.loc 1 1081 33 is_stmt 0 discriminator 3 view .LVU728
 2262 0022 0CF1010C 		add	ip, ip, #1
 2263              	.LVL173:
 2264              	.L154:
1081:Drivers/STM32F4xx_HAL_Driver/Src/stm32f4xx_ll_usb.c ****     {
 2265              		.loc 1 1081 18 is_stmt 1 discriminator 1 view .LVU729
1081:Drivers/STM32F4xx_HAL_Driver/Src/stm32f4xx_ll_usb.c ****     {
 2266              		.loc 1 1081 5 is_stmt 0 discriminator 1 view .LVU730
 2267 0026 F445     		cmp	ip, lr
 2268 0028 F4D3     		bcc	.L155
 2269              	.LVL174:
 2270              	.L153:
1091:Drivers/STM32F4xx_HAL_Driver/Src/stm32f4xx_ll_usb.c **** }
 2271              		.loc 1 1091 3 is_stmt 1 view .LVU731
1092:Drivers/STM32F4xx_HAL_Driver/Src/stm32f4xx_ll_usb.c **** 
 2272              		.loc 1 1092 1 is_stmt 0 view .LVU732
 2273 002a 0020     		movs	r0, #0
 2274              	.LVL175:
1092:Drivers/STM32F4xx_HAL_Driver/Src/stm32f4xx_ll_usb.c **** 
 2275              		.loc 1 1092 1 view .LVU733
 2276 002c 10BD     		pop	{r4, pc}
1092:Drivers/STM32F4xx_HAL_Driver/Src/stm32f4xx_ll_usb.c **** 
 2277              		.loc 1 1092 1 view .LVU734
 2278              		.cfi_endproc
 2279              	.LFE147:
 2281              		.section	.text.USB_EPStartXfer,"ax",%progbits
 2282              		.align	1
 2283              		.global	USB_EPStartXfer
 2284              		.syntax unified
 2285              		.thumb
ARM GAS  /tmp/ccfbcrWA.s 			page 79


 2286              		.thumb_func
 2287              		.fpu fpv4-sp-d16
 2289              	USB_EPStartXfer:
 2290              	.LVL176:
 2291              	.LFB144:
 764:Drivers/STM32F4xx_HAL_Driver/Src/stm32f4xx_ll_usb.c ****   uint32_t USBx_BASE = (uint32_t)USBx;
 2292              		.loc 1 764 1 is_stmt 1 view -0
 2293              		.cfi_startproc
 2294              		@ args = 0, pretend = 0, frame = 0
 2295              		@ frame_needed = 0, uses_anonymous_args = 0
 764:Drivers/STM32F4xx_HAL_Driver/Src/stm32f4xx_ll_usb.c ****   uint32_t USBx_BASE = (uint32_t)USBx;
 2296              		.loc 1 764 1 is_stmt 0 view .LVU736
 2297 0000 F0B5     		push	{r4, r5, r6, r7, lr}
 2298              	.LCFI33:
 2299              		.cfi_def_cfa_offset 20
 2300              		.cfi_offset 4, -20
 2301              		.cfi_offset 5, -16
 2302              		.cfi_offset 6, -12
 2303              		.cfi_offset 7, -8
 2304              		.cfi_offset 14, -4
 2305 0002 83B0     		sub	sp, sp, #12
 2306              	.LCFI34:
 2307              		.cfi_def_cfa_offset 32
 765:Drivers/STM32F4xx_HAL_Driver/Src/stm32f4xx_ll_usb.c ****   uint32_t epnum = (uint32_t)ep->num;
 2308              		.loc 1 765 3 is_stmt 1 view .LVU737
 2309              	.LVL177:
 766:Drivers/STM32F4xx_HAL_Driver/Src/stm32f4xx_ll_usb.c ****   uint16_t pktcnt;
 2310              		.loc 1 766 3 view .LVU738
 766:Drivers/STM32F4xx_HAL_Driver/Src/stm32f4xx_ll_usb.c ****   uint16_t pktcnt;
 2311              		.loc 1 766 32 is_stmt 0 view .LVU739
 2312 0004 0B78     		ldrb	r3, [r1]	@ zero_extendqisi2
 2313              	.LVL178:
 767:Drivers/STM32F4xx_HAL_Driver/Src/stm32f4xx_ll_usb.c **** 
 2314              		.loc 1 767 3 is_stmt 1 view .LVU740
 770:Drivers/STM32F4xx_HAL_Driver/Src/stm32f4xx_ll_usb.c ****   {
 2315              		.loc 1 770 3 view .LVU741
 770:Drivers/STM32F4xx_HAL_Driver/Src/stm32f4xx_ll_usb.c ****   {
 2316              		.loc 1 770 9 is_stmt 0 view .LVU742
 2317 0006 4C78     		ldrb	r4, [r1, #1]	@ zero_extendqisi2
 770:Drivers/STM32F4xx_HAL_Driver/Src/stm32f4xx_ll_usb.c ****   {
 2318              		.loc 1 770 6 view .LVU743
 2319 0008 012C     		cmp	r4, #1
 2320 000a 33D0     		beq	.L175
 856:Drivers/STM32F4xx_HAL_Driver/Src/stm32f4xx_ll_usb.c ****     USBx_OUTEP(epnum)->DOEPTSIZ &= ~(USB_OTG_DOEPTSIZ_PKTCNT);
 2321              		.loc 1 856 5 is_stmt 1 view .LVU744
 856:Drivers/STM32F4xx_HAL_Driver/Src/stm32f4xx_ll_usb.c ****     USBx_OUTEP(epnum)->DOEPTSIZ &= ~(USB_OTG_DOEPTSIZ_PKTCNT);
 2322              		.loc 1 856 33 is_stmt 0 view .LVU745
 2323 000c 00EB4313 		add	r3, r0, r3, lsl #5
 2324              	.LVL179:
 856:Drivers/STM32F4xx_HAL_Driver/Src/stm32f4xx_ll_usb.c ****     USBx_OUTEP(epnum)->DOEPTSIZ &= ~(USB_OTG_DOEPTSIZ_PKTCNT);
 2325              		.loc 1 856 33 view .LVU746
 2326 0010 03F5306C 		add	ip, r3, #2816
 2327 0014 DCF81040 		ldr	r4, [ip, #16]
 2328 0018 E40C     		lsrs	r4, r4, #19
 2329 001a E404     		lsls	r4, r4, #19
 2330 001c CCF81040 		str	r4, [ip, #16]
 2331              	.LVL180:
ARM GAS  /tmp/ccfbcrWA.s 			page 80


 857:Drivers/STM32F4xx_HAL_Driver/Src/stm32f4xx_ll_usb.c **** 
 2332              		.loc 1 857 5 is_stmt 1 view .LVU747
 857:Drivers/STM32F4xx_HAL_Driver/Src/stm32f4xx_ll_usb.c **** 
 2333              		.loc 1 857 33 is_stmt 0 view .LVU748
 2334 0020 DCF81040 		ldr	r4, [ip, #16]
 2335 0024 24F0FF54 		bic	r4, r4, #534773760
 2336 0028 24F4C014 		bic	r4, r4, #1572864
 2337 002c CCF81040 		str	r4, [ip, #16]
 859:Drivers/STM32F4xx_HAL_Driver/Src/stm32f4xx_ll_usb.c ****     {
 2338              		.loc 1 859 5 is_stmt 1 view .LVU749
 859:Drivers/STM32F4xx_HAL_Driver/Src/stm32f4xx_ll_usb.c ****     {
 2339              		.loc 1 859 11 is_stmt 0 view .LVU750
 2340 0030 8C69     		ldr	r4, [r1, #24]
 859:Drivers/STM32F4xx_HAL_Driver/Src/stm32f4xx_ll_usb.c ****     {
 2341              		.loc 1 859 8 view .LVU751
 2342 0032 002C     		cmp	r4, #0
 2343 0034 40F0C780 		bne	.L169
 861:Drivers/STM32F4xx_HAL_Driver/Src/stm32f4xx_ll_usb.c ****       USBx_OUTEP(epnum)->DOEPTSIZ |= (USB_OTG_DOEPTSIZ_PKTCNT & (1U << 19));
 2344              		.loc 1 861 7 is_stmt 1 view .LVU752
 861:Drivers/STM32F4xx_HAL_Driver/Src/stm32f4xx_ll_usb.c ****       USBx_OUTEP(epnum)->DOEPTSIZ |= (USB_OTG_DOEPTSIZ_PKTCNT & (1U << 19));
 2345              		.loc 1 861 35 is_stmt 0 view .LVU753
 2346 0038 DCF81040 		ldr	r4, [ip, #16]
 861:Drivers/STM32F4xx_HAL_Driver/Src/stm32f4xx_ll_usb.c ****       USBx_OUTEP(epnum)->DOEPTSIZ |= (USB_OTG_DOEPTSIZ_PKTCNT & (1U << 19));
 2347              		.loc 1 861 67 view .LVU754
 2348 003c CD68     		ldr	r5, [r1, #12]
 861:Drivers/STM32F4xx_HAL_Driver/Src/stm32f4xx_ll_usb.c ****       USBx_OUTEP(epnum)->DOEPTSIZ |= (USB_OTG_DOEPTSIZ_PKTCNT & (1U << 19));
 2349              		.loc 1 861 63 view .LVU755
 2350 003e C5F31205 		ubfx	r5, r5, #0, #19
 861:Drivers/STM32F4xx_HAL_Driver/Src/stm32f4xx_ll_usb.c ****       USBx_OUTEP(epnum)->DOEPTSIZ |= (USB_OTG_DOEPTSIZ_PKTCNT & (1U << 19));
 2351              		.loc 1 861 35 view .LVU756
 2352 0042 2C43     		orrs	r4, r4, r5
 2353 0044 CCF81040 		str	r4, [ip, #16]
 862:Drivers/STM32F4xx_HAL_Driver/Src/stm32f4xx_ll_usb.c ****     }
 2354              		.loc 1 862 7 is_stmt 1 view .LVU757
 862:Drivers/STM32F4xx_HAL_Driver/Src/stm32f4xx_ll_usb.c ****     }
 2355              		.loc 1 862 35 is_stmt 0 view .LVU758
 2356 0048 DCF81040 		ldr	r4, [ip, #16]
 2357 004c 44F40024 		orr	r4, r4, #524288
 2358 0050 CCF81040 		str	r4, [ip, #16]
 2359              	.L170:
 873:Drivers/STM32F4xx_HAL_Driver/Src/stm32f4xx_ll_usb.c ****     {
 2360              		.loc 1 873 5 is_stmt 1 view .LVU759
 873:Drivers/STM32F4xx_HAL_Driver/Src/stm32f4xx_ll_usb.c ****     {
 2361              		.loc 1 873 8 is_stmt 0 view .LVU760
 2362 0054 012A     		cmp	r2, #1
 2363 0056 00F0D080 		beq	.L176
 2364              	.LVL181:
 2365              	.L171:
 881:Drivers/STM32F4xx_HAL_Driver/Src/stm32f4xx_ll_usb.c ****     {
 2366              		.loc 1 881 5 is_stmt 1 view .LVU761
 881:Drivers/STM32F4xx_HAL_Driver/Src/stm32f4xx_ll_usb.c ****     {
 2367              		.loc 1 881 11 is_stmt 0 view .LVU762
 2368 005a 0A79     		ldrb	r2, [r1, #4]	@ zero_extendqisi2
 881:Drivers/STM32F4xx_HAL_Driver/Src/stm32f4xx_ll_usb.c ****     {
 2369              		.loc 1 881 8 view .LVU763
 2370 005c 012A     		cmp	r2, #1
 2371 005e 00F0D380 		beq	.L177
ARM GAS  /tmp/ccfbcrWA.s 			page 81


 2372              	.L172:
 893:Drivers/STM32F4xx_HAL_Driver/Src/stm32f4xx_ll_usb.c ****   }
 2373              		.loc 1 893 5 is_stmt 1 view .LVU764
 893:Drivers/STM32F4xx_HAL_Driver/Src/stm32f4xx_ll_usb.c ****   }
 2374              		.loc 1 893 32 is_stmt 0 view .LVU765
 2375 0062 D3F8002B 		ldr	r2, [r3, #2816]
 2376 0066 42F00442 		orr	r2, r2, #-2080374784
 2377 006a C3F8002B 		str	r2, [r3, #2816]
 2378              	.LVL182:
 2379              	.L165:
 896:Drivers/STM32F4xx_HAL_Driver/Src/stm32f4xx_ll_usb.c **** }
 2380              		.loc 1 896 3 is_stmt 1 view .LVU766
 897:Drivers/STM32F4xx_HAL_Driver/Src/stm32f4xx_ll_usb.c **** 
 2381              		.loc 1 897 1 is_stmt 0 view .LVU767
 2382 006e 0020     		movs	r0, #0
 2383 0070 03B0     		add	sp, sp, #12
 2384              	.LCFI35:
 2385              		.cfi_remember_state
 2386              		.cfi_def_cfa_offset 20
 2387              		@ sp needed
 2388 0072 F0BD     		pop	{r4, r5, r6, r7, pc}
 2389              	.LVL183:
 2390              	.L175:
 2391              	.LCFI36:
 2392              		.cfi_restore_state
 773:Drivers/STM32F4xx_HAL_Driver/Src/stm32f4xx_ll_usb.c ****     {
 2393              		.loc 1 773 5 is_stmt 1 view .LVU768
 773:Drivers/STM32F4xx_HAL_Driver/Src/stm32f4xx_ll_usb.c ****     {
 2394              		.loc 1 773 11 is_stmt 0 view .LVU769
 2395 0074 8C69     		ldr	r4, [r1, #24]
 773:Drivers/STM32F4xx_HAL_Driver/Src/stm32f4xx_ll_usb.c ****     {
 2396              		.loc 1 773 8 view .LVU770
 2397 0076 84BB     		cbnz	r4, .L159
 775:Drivers/STM32F4xx_HAL_Driver/Src/stm32f4xx_ll_usb.c ****       USBx_INEP(epnum)->DIEPTSIZ |= (USB_OTG_DIEPTSIZ_PKTCNT & (1U << 19));
 2398              		.loc 1 775 7 is_stmt 1 view .LVU771
 775:Drivers/STM32F4xx_HAL_Driver/Src/stm32f4xx_ll_usb.c ****       USBx_INEP(epnum)->DIEPTSIZ |= (USB_OTG_DIEPTSIZ_PKTCNT & (1U << 19));
 2399              		.loc 1 775 34 is_stmt 0 view .LVU772
 2400 0078 00EB4314 		add	r4, r0, r3, lsl #5
 2401 007c D4F81059 		ldr	r5, [r4, #2320]
 2402 0080 25F0FF55 		bic	r5, r5, #534773760
 2403 0084 25F4C015 		bic	r5, r5, #1572864
 2404 0088 C4F81059 		str	r5, [r4, #2320]
 776:Drivers/STM32F4xx_HAL_Driver/Src/stm32f4xx_ll_usb.c ****       USBx_INEP(epnum)->DIEPTSIZ &= ~(USB_OTG_DIEPTSIZ_XFRSIZ);
 2405              		.loc 1 776 7 is_stmt 1 view .LVU773
 776:Drivers/STM32F4xx_HAL_Driver/Src/stm32f4xx_ll_usb.c ****       USBx_INEP(epnum)->DIEPTSIZ &= ~(USB_OTG_DIEPTSIZ_XFRSIZ);
 2406              		.loc 1 776 34 is_stmt 0 view .LVU774
 2407 008c D4F81059 		ldr	r5, [r4, #2320]
 2408 0090 45F40025 		orr	r5, r5, #524288
 2409 0094 C4F81059 		str	r5, [r4, #2320]
 777:Drivers/STM32F4xx_HAL_Driver/Src/stm32f4xx_ll_usb.c ****     }
 2410              		.loc 1 777 7 is_stmt 1 view .LVU775
 777:Drivers/STM32F4xx_HAL_Driver/Src/stm32f4xx_ll_usb.c ****     }
 2411              		.loc 1 777 34 is_stmt 0 view .LVU776
 2412 0098 D4F81059 		ldr	r5, [r4, #2320]
 2413 009c ED0C     		lsrs	r5, r5, #19
 2414 009e ED04     		lsls	r5, r5, #19
 2415 00a0 C4F81059 		str	r5, [r4, #2320]
ARM GAS  /tmp/ccfbcrWA.s 			page 82


 2416              	.L160:
 800:Drivers/STM32F4xx_HAL_Driver/Src/stm32f4xx_ll_usb.c ****     {
 2417              		.loc 1 800 5 is_stmt 1 view .LVU777
 800:Drivers/STM32F4xx_HAL_Driver/Src/stm32f4xx_ll_usb.c ****     {
 2418              		.loc 1 800 8 is_stmt 0 view .LVU778
 2419 00a4 012A     		cmp	r2, #1
 2420 00a6 4CD0     		beq	.L178
 825:Drivers/STM32F4xx_HAL_Driver/Src/stm32f4xx_ll_usb.c **** 
 2421              		.loc 1 825 7 is_stmt 1 view .LVU779
 825:Drivers/STM32F4xx_HAL_Driver/Src/stm32f4xx_ll_usb.c **** 
 2422              		.loc 1 825 33 is_stmt 0 view .LVU780
 2423 00a8 00EB4313 		add	r3, r0, r3, lsl #5
 2424              	.LVL184:
 825:Drivers/STM32F4xx_HAL_Driver/Src/stm32f4xx_ll_usb.c **** 
 2425              		.loc 1 825 33 view .LVU781
 2426 00ac D3F80049 		ldr	r4, [r3, #2304]
 2427 00b0 44F00444 		orr	r4, r4, #-2080374784
 2428 00b4 C3F80049 		str	r4, [r3, #2304]
 827:Drivers/STM32F4xx_HAL_Driver/Src/stm32f4xx_ll_usb.c ****       {
 2429              		.loc 1 827 7 is_stmt 1 view .LVU782
 827:Drivers/STM32F4xx_HAL_Driver/Src/stm32f4xx_ll_usb.c ****       {
 2430              		.loc 1 827 13 is_stmt 0 view .LVU783
 2431 00b8 0C79     		ldrb	r4, [r1, #4]	@ zero_extendqisi2
 827:Drivers/STM32F4xx_HAL_Driver/Src/stm32f4xx_ll_usb.c ****       {
 2432              		.loc 1 827 10 view .LVU784
 2433 00ba 012C     		cmp	r4, #1
 2434 00bc 6AD0     		beq	.L166
 830:Drivers/STM32F4xx_HAL_Driver/Src/stm32f4xx_ll_usb.c ****         {
 2435              		.loc 1 830 9 is_stmt 1 view .LVU785
 830:Drivers/STM32F4xx_HAL_Driver/Src/stm32f4xx_ll_usb.c ****         {
 2436              		.loc 1 830 15 is_stmt 0 view .LVU786
 2437 00be 8B69     		ldr	r3, [r1, #24]
 830:Drivers/STM32F4xx_HAL_Driver/Src/stm32f4xx_ll_usb.c ****         {
 2438              		.loc 1 830 12 view .LVU787
 2439 00c0 002B     		cmp	r3, #0
 2440 00c2 D4D0     		beq	.L165
 832:Drivers/STM32F4xx_HAL_Driver/Src/stm32f4xx_ll_usb.c ****         }
 2441              		.loc 1 832 11 is_stmt 1 view .LVU788
 832:Drivers/STM32F4xx_HAL_Driver/Src/stm32f4xx_ll_usb.c ****         }
 2442              		.loc 1 832 35 is_stmt 0 view .LVU789
 2443 00c4 D0F83438 		ldr	r3, [r0, #2100]
 832:Drivers/STM32F4xx_HAL_Driver/Src/stm32f4xx_ll_usb.c ****         }
 2444              		.loc 1 832 48 view .LVU790
 2445 00c8 0A78     		ldrb	r2, [r1]	@ zero_extendqisi2
 2446              	.LVL185:
 832:Drivers/STM32F4xx_HAL_Driver/Src/stm32f4xx_ll_usb.c ****         }
 2447              		.loc 1 832 54 view .LVU791
 2448 00ca 02F00F01 		and	r1, r2, #15
 2449              	.LVL186:
 832:Drivers/STM32F4xx_HAL_Driver/Src/stm32f4xx_ll_usb.c ****         }
 2450              		.loc 1 832 42 view .LVU792
 2451 00ce 0122     		movs	r2, #1
 2452 00d0 8A40     		lsls	r2, r2, r1
 832:Drivers/STM32F4xx_HAL_Driver/Src/stm32f4xx_ll_usb.c ****         }
 2453              		.loc 1 832 35 view .LVU793
 2454 00d2 1343     		orrs	r3, r3, r2
 2455 00d4 C0F83438 		str	r3, [r0, #2100]
ARM GAS  /tmp/ccfbcrWA.s 			page 83


 2456 00d8 C9E7     		b	.L165
 2457              	.LVL187:
 2458              	.L159:
 786:Drivers/STM32F4xx_HAL_Driver/Src/stm32f4xx_ll_usb.c ****       USBx_INEP(epnum)->DIEPTSIZ &= ~(USB_OTG_DIEPTSIZ_PKTCNT);
 2459              		.loc 1 786 7 is_stmt 1 view .LVU794
 786:Drivers/STM32F4xx_HAL_Driver/Src/stm32f4xx_ll_usb.c ****       USBx_INEP(epnum)->DIEPTSIZ &= ~(USB_OTG_DIEPTSIZ_PKTCNT);
 2460              		.loc 1 786 34 is_stmt 0 view .LVU795
 2461 00da 00EB4314 		add	r4, r0, r3, lsl #5
 2462 00de D4F81059 		ldr	r5, [r4, #2320]
 2463 00e2 ED0C     		lsrs	r5, r5, #19
 2464 00e4 ED04     		lsls	r5, r5, #19
 2465 00e6 C4F81059 		str	r5, [r4, #2320]
 787:Drivers/STM32F4xx_HAL_Driver/Src/stm32f4xx_ll_usb.c ****       USBx_INEP(epnum)->DIEPTSIZ |= (USB_OTG_DIEPTSIZ_PKTCNT &
 2466              		.loc 1 787 7 is_stmt 1 view .LVU796
 787:Drivers/STM32F4xx_HAL_Driver/Src/stm32f4xx_ll_usb.c ****       USBx_INEP(epnum)->DIEPTSIZ |= (USB_OTG_DIEPTSIZ_PKTCNT &
 2467              		.loc 1 787 34 is_stmt 0 view .LVU797
 2468 00ea D4F81059 		ldr	r5, [r4, #2320]
 2469 00ee 25F0FF55 		bic	r5, r5, #534773760
 2470 00f2 25F4C015 		bic	r5, r5, #1572864
 2471 00f6 C4F81059 		str	r5, [r4, #2320]
 788:Drivers/STM32F4xx_HAL_Driver/Src/stm32f4xx_ll_usb.c ****                                      (((ep->xfer_len + ep->maxpacket - 1U) / ep->maxpacket) << 19))
 2472              		.loc 1 788 7 is_stmt 1 view .LVU798
 788:Drivers/STM32F4xx_HAL_Driver/Src/stm32f4xx_ll_usb.c ****                                      (((ep->xfer_len + ep->maxpacket - 1U) / ep->maxpacket) << 19))
 2473              		.loc 1 788 34 is_stmt 0 view .LVU799
 2474 00fa D4F81069 		ldr	r6, [r4, #2320]
 789:Drivers/STM32F4xx_HAL_Driver/Src/stm32f4xx_ll_usb.c **** 
 2475              		.loc 1 789 43 view .LVU800
 2476 00fe 8D69     		ldr	r5, [r1, #24]
 789:Drivers/STM32F4xx_HAL_Driver/Src/stm32f4xx_ll_usb.c **** 
 2477              		.loc 1 789 58 view .LVU801
 2478 0100 CF68     		ldr	r7, [r1, #12]
 789:Drivers/STM32F4xx_HAL_Driver/Src/stm32f4xx_ll_usb.c **** 
 2479              		.loc 1 789 54 view .LVU802
 2480 0102 3D44     		add	r5, r5, r7
 789:Drivers/STM32F4xx_HAL_Driver/Src/stm32f4xx_ll_usb.c **** 
 2481              		.loc 1 789 70 view .LVU803
 2482 0104 013D     		subs	r5, r5, #1
 789:Drivers/STM32F4xx_HAL_Driver/Src/stm32f4xx_ll_usb.c **** 
 2483              		.loc 1 789 76 view .LVU804
 2484 0106 B5FBF7F5 		udiv	r5, r5, r7
 788:Drivers/STM32F4xx_HAL_Driver/Src/stm32f4xx_ll_usb.c ****                                      (((ep->xfer_len + ep->maxpacket - 1U) / ep->maxpacket) << 19))
 2485              		.loc 1 788 62 view .LVU805
 2486 010a 494F     		ldr	r7, .L180
 2487 010c 07EAC545 		and	r5, r7, r5, lsl #19
 788:Drivers/STM32F4xx_HAL_Driver/Src/stm32f4xx_ll_usb.c ****                                      (((ep->xfer_len + ep->maxpacket - 1U) / ep->maxpacket) << 19))
 2488              		.loc 1 788 34 view .LVU806
 2489 0110 3543     		orrs	r5, r5, r6
 2490 0112 C4F81059 		str	r5, [r4, #2320]
 791:Drivers/STM32F4xx_HAL_Driver/Src/stm32f4xx_ll_usb.c **** 
 2491              		.loc 1 791 7 is_stmt 1 view .LVU807
 791:Drivers/STM32F4xx_HAL_Driver/Src/stm32f4xx_ll_usb.c **** 
 2492              		.loc 1 791 34 is_stmt 0 view .LVU808
 2493 0116 D4F81059 		ldr	r5, [r4, #2320]
 791:Drivers/STM32F4xx_HAL_Driver/Src/stm32f4xx_ll_usb.c **** 
 2494              		.loc 1 791 66 view .LVU809
 2495 011a 8E69     		ldr	r6, [r1, #24]
 791:Drivers/STM32F4xx_HAL_Driver/Src/stm32f4xx_ll_usb.c **** 
ARM GAS  /tmp/ccfbcrWA.s 			page 84


 2496              		.loc 1 791 62 view .LVU810
 2497 011c C6F31206 		ubfx	r6, r6, #0, #19
 791:Drivers/STM32F4xx_HAL_Driver/Src/stm32f4xx_ll_usb.c **** 
 2498              		.loc 1 791 34 view .LVU811
 2499 0120 3543     		orrs	r5, r5, r6
 2500 0122 C4F81059 		str	r5, [r4, #2320]
 786:Drivers/STM32F4xx_HAL_Driver/Src/stm32f4xx_ll_usb.c ****       USBx_INEP(epnum)->DIEPTSIZ &= ~(USB_OTG_DIEPTSIZ_PKTCNT);
 2501              		.loc 1 786 34 view .LVU812
 2502 0126 04F51064 		add	r4, r4, #2304
 793:Drivers/STM32F4xx_HAL_Driver/Src/stm32f4xx_ll_usb.c ****       {
 2503              		.loc 1 793 7 is_stmt 1 view .LVU813
 793:Drivers/STM32F4xx_HAL_Driver/Src/stm32f4xx_ll_usb.c ****       {
 2504              		.loc 1 793 13 is_stmt 0 view .LVU814
 2505 012a 0D79     		ldrb	r5, [r1, #4]	@ zero_extendqisi2
 793:Drivers/STM32F4xx_HAL_Driver/Src/stm32f4xx_ll_usb.c ****       {
 2506              		.loc 1 793 10 view .LVU815
 2507 012c 012D     		cmp	r5, #1
 2508 012e B9D1     		bne	.L160
 795:Drivers/STM32F4xx_HAL_Driver/Src/stm32f4xx_ll_usb.c ****         USBx_INEP(epnum)->DIEPTSIZ |= (USB_OTG_DIEPTSIZ_MULCNT & (1U << 29));
 2509              		.loc 1 795 9 is_stmt 1 view .LVU816
 795:Drivers/STM32F4xx_HAL_Driver/Src/stm32f4xx_ll_usb.c ****         USBx_INEP(epnum)->DIEPTSIZ |= (USB_OTG_DIEPTSIZ_MULCNT & (1U << 29));
 2510              		.loc 1 795 36 is_stmt 0 view .LVU817
 2511 0130 2569     		ldr	r5, [r4, #16]
 2512 0132 25F0C045 		bic	r5, r5, #1610612736
 2513 0136 2561     		str	r5, [r4, #16]
 796:Drivers/STM32F4xx_HAL_Driver/Src/stm32f4xx_ll_usb.c ****       }
 2514              		.loc 1 796 9 is_stmt 1 view .LVU818
 796:Drivers/STM32F4xx_HAL_Driver/Src/stm32f4xx_ll_usb.c ****       }
 2515              		.loc 1 796 36 is_stmt 0 view .LVU819
 2516 0138 2569     		ldr	r5, [r4, #16]
 2517 013a 45F00055 		orr	r5, r5, #536870912
 2518 013e 2561     		str	r5, [r4, #16]
 2519 0140 B0E7     		b	.L160
 2520              	.L178:
 802:Drivers/STM32F4xx_HAL_Driver/Src/stm32f4xx_ll_usb.c ****       {
 2521              		.loc 1 802 7 is_stmt 1 view .LVU820
 802:Drivers/STM32F4xx_HAL_Driver/Src/stm32f4xx_ll_usb.c ****       {
 2522              		.loc 1 802 23 is_stmt 0 view .LVU821
 2523 0142 4A69     		ldr	r2, [r1, #20]
 2524              	.LVL188:
 802:Drivers/STM32F4xx_HAL_Driver/Src/stm32f4xx_ll_usb.c ****       {
 2525              		.loc 1 802 10 view .LVU822
 2526 0144 1AB1     		cbz	r2, .L162
 804:Drivers/STM32F4xx_HAL_Driver/Src/stm32f4xx_ll_usb.c ****       }
 2527              		.loc 1 804 9 is_stmt 1 view .LVU823
 2528 0146 00EB4314 		add	r4, r0, r3, lsl #5
 804:Drivers/STM32F4xx_HAL_Driver/Src/stm32f4xx_ll_usb.c ****       }
 2529              		.loc 1 804 35 is_stmt 0 view .LVU824
 2530 014a C4F81429 		str	r2, [r4, #2324]
 2531              	.L162:
 807:Drivers/STM32F4xx_HAL_Driver/Src/stm32f4xx_ll_usb.c ****       {
 2532              		.loc 1 807 7 is_stmt 1 view .LVU825
 807:Drivers/STM32F4xx_HAL_Driver/Src/stm32f4xx_ll_usb.c ****       {
 2533              		.loc 1 807 13 is_stmt 0 view .LVU826
 2534 014e 0A79     		ldrb	r2, [r1, #4]	@ zero_extendqisi2
 807:Drivers/STM32F4xx_HAL_Driver/Src/stm32f4xx_ll_usb.c ****       {
 2535              		.loc 1 807 10 view .LVU827
ARM GAS  /tmp/ccfbcrWA.s 			page 85


 2536 0150 012A     		cmp	r2, #1
 2537 0152 08D0     		beq	.L179
 2538              	.LVL189:
 2539              	.L163:
 820:Drivers/STM32F4xx_HAL_Driver/Src/stm32f4xx_ll_usb.c ****     }
 2540              		.loc 1 820 7 is_stmt 1 view .LVU828
 820:Drivers/STM32F4xx_HAL_Driver/Src/stm32f4xx_ll_usb.c ****     }
 2541              		.loc 1 820 33 is_stmt 0 view .LVU829
 2542 0154 00EB4313 		add	r3, r0, r3, lsl #5
 2543              	.LVL190:
 820:Drivers/STM32F4xx_HAL_Driver/Src/stm32f4xx_ll_usb.c ****     }
 2544              		.loc 1 820 33 view .LVU830
 2545 0158 D3F80029 		ldr	r2, [r3, #2304]
 2546 015c 42F00442 		orr	r2, r2, #-2080374784
 2547 0160 C3F80029 		str	r2, [r3, #2304]
 2548 0164 83E7     		b	.L165
 2549              	.LVL191:
 2550              	.L179:
 809:Drivers/STM32F4xx_HAL_Driver/Src/stm32f4xx_ll_usb.c ****         {
 2551              		.loc 1 809 9 is_stmt 1 view .LVU831
 809:Drivers/STM32F4xx_HAL_Driver/Src/stm32f4xx_ll_usb.c ****         {
 2552              		.loc 1 809 25 is_stmt 0 view .LVU832
 2553 0166 D0F80828 		ldr	r2, [r0, #2056]
 809:Drivers/STM32F4xx_HAL_Driver/Src/stm32f4xx_ll_usb.c ****         {
 2554              		.loc 1 809 12 view .LVU833
 2555 016a 12F4807F 		tst	r2, #256
 2556 016e 08D1     		bne	.L164
 811:Drivers/STM32F4xx_HAL_Driver/Src/stm32f4xx_ll_usb.c ****         }
 2557              		.loc 1 811 11 is_stmt 1 view .LVU834
 811:Drivers/STM32F4xx_HAL_Driver/Src/stm32f4xx_ll_usb.c ****         }
 2558              		.loc 1 811 37 is_stmt 0 view .LVU835
 2559 0170 00EB4311 		add	r1, r0, r3, lsl #5
 2560              	.LVL192:
 811:Drivers/STM32F4xx_HAL_Driver/Src/stm32f4xx_ll_usb.c ****         }
 2561              		.loc 1 811 37 view .LVU836
 2562 0174 D1F80029 		ldr	r2, [r1, #2304]
 2563 0178 42F00052 		orr	r2, r2, #536870912
 2564 017c C1F80029 		str	r2, [r1, #2304]
 2565 0180 E8E7     		b	.L163
 2566              	.LVL193:
 2567              	.L164:
 815:Drivers/STM32F4xx_HAL_Driver/Src/stm32f4xx_ll_usb.c ****         }
 2568              		.loc 1 815 11 is_stmt 1 view .LVU837
 815:Drivers/STM32F4xx_HAL_Driver/Src/stm32f4xx_ll_usb.c ****         }
 2569              		.loc 1 815 37 is_stmt 0 view .LVU838
 2570 0182 00EB4311 		add	r1, r0, r3, lsl #5
 2571              	.LVL194:
 815:Drivers/STM32F4xx_HAL_Driver/Src/stm32f4xx_ll_usb.c ****         }
 2572              		.loc 1 815 37 view .LVU839
 2573 0186 D1F80029 		ldr	r2, [r1, #2304]
 2574 018a 42F08052 		orr	r2, r2, #268435456
 2575 018e C1F80029 		str	r2, [r1, #2304]
 2576 0192 DFE7     		b	.L163
 2577              	.LVL195:
 2578              	.L166:
 837:Drivers/STM32F4xx_HAL_Driver/Src/stm32f4xx_ll_usb.c ****         {
 2579              		.loc 1 837 9 is_stmt 1 view .LVU840
ARM GAS  /tmp/ccfbcrWA.s 			page 86


 837:Drivers/STM32F4xx_HAL_Driver/Src/stm32f4xx_ll_usb.c ****         {
 2580              		.loc 1 837 25 is_stmt 0 view .LVU841
 2581 0194 D0F80848 		ldr	r4, [r0, #2056]
 837:Drivers/STM32F4xx_HAL_Driver/Src/stm32f4xx_ll_usb.c ****         {
 2582              		.loc 1 837 12 view .LVU842
 2583 0198 14F4807F 		tst	r4, #256
 2584 019c 0CD1     		bne	.L167
 839:Drivers/STM32F4xx_HAL_Driver/Src/stm32f4xx_ll_usb.c ****         }
 2585              		.loc 1 839 11 is_stmt 1 view .LVU843
 839:Drivers/STM32F4xx_HAL_Driver/Src/stm32f4xx_ll_usb.c ****         }
 2586              		.loc 1 839 37 is_stmt 0 view .LVU844
 2587 019e D3F80049 		ldr	r4, [r3, #2304]
 2588 01a2 44F00054 		orr	r4, r4, #536870912
 2589 01a6 C3F80049 		str	r4, [r3, #2304]
 2590              	.L168:
 846:Drivers/STM32F4xx_HAL_Driver/Src/stm32f4xx_ll_usb.c ****       }
 2591              		.loc 1 846 9 is_stmt 1 view .LVU845
 846:Drivers/STM32F4xx_HAL_Driver/Src/stm32f4xx_ll_usb.c ****       }
 2592              		.loc 1 846 15 is_stmt 0 view .LVU846
 2593 01aa 0092     		str	r2, [sp]
 2594 01ac 0B8B     		ldrh	r3, [r1, #24]
 2595 01ae 0A78     		ldrb	r2, [r1]	@ zero_extendqisi2
 2596              	.LVL196:
 846:Drivers/STM32F4xx_HAL_Driver/Src/stm32f4xx_ll_usb.c ****       }
 2597              		.loc 1 846 15 view .LVU847
 2598 01b0 0969     		ldr	r1, [r1, #16]
 2599              	.LVL197:
 846:Drivers/STM32F4xx_HAL_Driver/Src/stm32f4xx_ll_usb.c ****       }
 2600              		.loc 1 846 15 view .LVU848
 2601 01b2 FFF7FEFF 		bl	USB_WritePacket
 2602              	.LVL198:
 846:Drivers/STM32F4xx_HAL_Driver/Src/stm32f4xx_ll_usb.c ****       }
 2603              		.loc 1 846 15 view .LVU849
 2604 01b6 5AE7     		b	.L165
 2605              	.LVL199:
 2606              	.L167:
 843:Drivers/STM32F4xx_HAL_Driver/Src/stm32f4xx_ll_usb.c ****         }
 2607              		.loc 1 843 11 is_stmt 1 view .LVU850
 843:Drivers/STM32F4xx_HAL_Driver/Src/stm32f4xx_ll_usb.c ****         }
 2608              		.loc 1 843 37 is_stmt 0 view .LVU851
 2609 01b8 D3F80049 		ldr	r4, [r3, #2304]
 2610 01bc 44F08054 		orr	r4, r4, #268435456
 2611 01c0 C3F80049 		str	r4, [r3, #2304]
 2612 01c4 F1E7     		b	.L168
 2613              	.L169:
 866:Drivers/STM32F4xx_HAL_Driver/Src/stm32f4xx_ll_usb.c ****       ep->xfer_size = ep->maxpacket * pktcnt;
 2614              		.loc 1 866 7 is_stmt 1 view .LVU852
 866:Drivers/STM32F4xx_HAL_Driver/Src/stm32f4xx_ll_usb.c ****       ep->xfer_size = ep->maxpacket * pktcnt;
 2615              		.loc 1 866 45 is_stmt 0 view .LVU853
 2616 01c6 CD68     		ldr	r5, [r1, #12]
 866:Drivers/STM32F4xx_HAL_Driver/Src/stm32f4xx_ll_usb.c ****       ep->xfer_size = ep->maxpacket * pktcnt;
 2617              		.loc 1 866 41 view .LVU854
 2618 01c8 2C44     		add	r4, r4, r5
 866:Drivers/STM32F4xx_HAL_Driver/Src/stm32f4xx_ll_usb.c ****       ep->xfer_size = ep->maxpacket * pktcnt;
 2619              		.loc 1 866 57 view .LVU855
 2620 01ca 013C     		subs	r4, r4, #1
 866:Drivers/STM32F4xx_HAL_Driver/Src/stm32f4xx_ll_usb.c ****       ep->xfer_size = ep->maxpacket * pktcnt;
ARM GAS  /tmp/ccfbcrWA.s 			page 87


 2621              		.loc 1 866 63 view .LVU856
 2622 01cc B4FBF5F4 		udiv	r4, r4, r5
 2623              	.LVL200:
 867:Drivers/STM32F4xx_HAL_Driver/Src/stm32f4xx_ll_usb.c **** 
 2624              		.loc 1 867 7 is_stmt 1 view .LVU857
 2625 01d0 A4B2     		uxth	r4, r4
 867:Drivers/STM32F4xx_HAL_Driver/Src/stm32f4xx_ll_usb.c **** 
 2626              		.loc 1 867 37 is_stmt 0 view .LVU858
 2627 01d2 04FB05F5 		mul	r5, r4, r5
 867:Drivers/STM32F4xx_HAL_Driver/Src/stm32f4xx_ll_usb.c **** 
 2628              		.loc 1 867 21 view .LVU859
 2629 01d6 CD61     		str	r5, [r1, #28]
 869:Drivers/STM32F4xx_HAL_Driver/Src/stm32f4xx_ll_usb.c ****       USBx_OUTEP(epnum)->DOEPTSIZ |= USB_OTG_DOEPTSIZ_XFRSIZ & ep->xfer_size;
 2630              		.loc 1 869 7 is_stmt 1 view .LVU860
 869:Drivers/STM32F4xx_HAL_Driver/Src/stm32f4xx_ll_usb.c ****       USBx_OUTEP(epnum)->DOEPTSIZ |= USB_OTG_DOEPTSIZ_XFRSIZ & ep->xfer_size;
 2631              		.loc 1 869 35 is_stmt 0 view .LVU861
 2632 01d8 DCF81050 		ldr	r5, [ip, #16]
 869:Drivers/STM32F4xx_HAL_Driver/Src/stm32f4xx_ll_usb.c ****       USBx_OUTEP(epnum)->DOEPTSIZ |= USB_OTG_DOEPTSIZ_XFRSIZ & ep->xfer_size;
 2633              		.loc 1 869 62 view .LVU862
 2634 01dc 144E     		ldr	r6, .L180
 2635 01de 06EAC444 		and	r4, r6, r4, lsl #19
 2636              	.LVL201:
 869:Drivers/STM32F4xx_HAL_Driver/Src/stm32f4xx_ll_usb.c ****       USBx_OUTEP(epnum)->DOEPTSIZ |= USB_OTG_DOEPTSIZ_XFRSIZ & ep->xfer_size;
 2637              		.loc 1 869 35 view .LVU863
 2638 01e2 2C43     		orrs	r4, r4, r5
 2639 01e4 CCF81040 		str	r4, [ip, #16]
 2640              	.LVL202:
 870:Drivers/STM32F4xx_HAL_Driver/Src/stm32f4xx_ll_usb.c ****     }
 2641              		.loc 1 870 7 is_stmt 1 view .LVU864
 870:Drivers/STM32F4xx_HAL_Driver/Src/stm32f4xx_ll_usb.c ****     }
 2642              		.loc 1 870 35 is_stmt 0 view .LVU865
 2643 01e8 DCF81040 		ldr	r4, [ip, #16]
 870:Drivers/STM32F4xx_HAL_Driver/Src/stm32f4xx_ll_usb.c ****     }
 2644              		.loc 1 870 66 view .LVU866
 2645 01ec CD69     		ldr	r5, [r1, #28]
 870:Drivers/STM32F4xx_HAL_Driver/Src/stm32f4xx_ll_usb.c ****     }
 2646              		.loc 1 870 62 view .LVU867
 2647 01ee C5F31205 		ubfx	r5, r5, #0, #19
 870:Drivers/STM32F4xx_HAL_Driver/Src/stm32f4xx_ll_usb.c ****     }
 2648              		.loc 1 870 35 view .LVU868
 2649 01f2 2C43     		orrs	r4, r4, r5
 2650 01f4 CCF81040 		str	r4, [ip, #16]
 2651 01f8 2CE7     		b	.L170
 2652              	.L176:
 875:Drivers/STM32F4xx_HAL_Driver/Src/stm32f4xx_ll_usb.c ****       {
 2653              		.loc 1 875 7 is_stmt 1 view .LVU869
 875:Drivers/STM32F4xx_HAL_Driver/Src/stm32f4xx_ll_usb.c ****       {
 2654              		.loc 1 875 23 is_stmt 0 view .LVU870
 2655 01fa 0A69     		ldr	r2, [r1, #16]
 2656              	.LVL203:
 875:Drivers/STM32F4xx_HAL_Driver/Src/stm32f4xx_ll_usb.c ****       {
 2657              		.loc 1 875 10 view .LVU871
 2658 01fc 002A     		cmp	r2, #0
 2659 01fe 3FF42CAF 		beq	.L171
 877:Drivers/STM32F4xx_HAL_Driver/Src/stm32f4xx_ll_usb.c ****       }
 2660              		.loc 1 877 9 is_stmt 1 view .LVU872
 877:Drivers/STM32F4xx_HAL_Driver/Src/stm32f4xx_ll_usb.c ****       }
ARM GAS  /tmp/ccfbcrWA.s 			page 88


 2661              		.loc 1 877 36 is_stmt 0 view .LVU873
 2662 0202 CCF81420 		str	r2, [ip, #20]
 2663 0206 28E7     		b	.L171
 2664              	.L177:
 883:Drivers/STM32F4xx_HAL_Driver/Src/stm32f4xx_ll_usb.c ****       {
 2665              		.loc 1 883 7 is_stmt 1 view .LVU874
 883:Drivers/STM32F4xx_HAL_Driver/Src/stm32f4xx_ll_usb.c ****       {
 2666              		.loc 1 883 23 is_stmt 0 view .LVU875
 2667 0208 D0F80828 		ldr	r2, [r0, #2056]
 883:Drivers/STM32F4xx_HAL_Driver/Src/stm32f4xx_ll_usb.c ****       {
 2668              		.loc 1 883 10 view .LVU876
 2669 020c 12F4807F 		tst	r2, #256
 2670 0210 06D1     		bne	.L173
 885:Drivers/STM32F4xx_HAL_Driver/Src/stm32f4xx_ll_usb.c ****       }
 2671              		.loc 1 885 9 is_stmt 1 view .LVU877
 885:Drivers/STM32F4xx_HAL_Driver/Src/stm32f4xx_ll_usb.c ****       }
 2672              		.loc 1 885 36 is_stmt 0 view .LVU878
 2673 0212 D3F8002B 		ldr	r2, [r3, #2816]
 2674 0216 42F00052 		orr	r2, r2, #536870912
 2675 021a C3F8002B 		str	r2, [r3, #2816]
 2676 021e 20E7     		b	.L172
 2677              	.L173:
 889:Drivers/STM32F4xx_HAL_Driver/Src/stm32f4xx_ll_usb.c ****       }
 2678              		.loc 1 889 9 is_stmt 1 view .LVU879
 889:Drivers/STM32F4xx_HAL_Driver/Src/stm32f4xx_ll_usb.c ****       }
 2679              		.loc 1 889 36 is_stmt 0 view .LVU880
 2680 0220 D3F8002B 		ldr	r2, [r3, #2816]
 2681 0224 42F08052 		orr	r2, r2, #268435456
 2682 0228 C3F8002B 		str	r2, [r3, #2816]
 2683 022c 19E7     		b	.L172
 2684              	.L181:
 2685 022e 00BF     		.align	2
 2686              	.L180:
 2687 0230 0000F81F 		.word	536346624
 2688              		.cfi_endproc
 2689              	.LFE144:
 2691              		.section	.text.USB_ReadPacket,"ax",%progbits
 2692              		.align	1
 2693              		.global	USB_ReadPacket
 2694              		.syntax unified
 2695              		.thumb
 2696              		.thumb_func
 2697              		.fpu fpv4-sp-d16
 2699              	USB_ReadPacket:
 2700              	.LVL204:
 2701              	.LFB148:
1102:Drivers/STM32F4xx_HAL_Driver/Src/stm32f4xx_ll_usb.c ****   uint32_t USBx_BASE = (uint32_t)USBx;
 2702              		.loc 1 1102 1 is_stmt 1 view -0
 2703              		.cfi_startproc
 2704              		@ args = 0, pretend = 0, frame = 8
 2705              		@ frame_needed = 0, uses_anonymous_args = 0
1102:Drivers/STM32F4xx_HAL_Driver/Src/stm32f4xx_ll_usb.c ****   uint32_t USBx_BASE = (uint32_t)USBx;
 2706              		.loc 1 1102 1 is_stmt 0 view .LVU882
 2707 0000 00B5     		push	{lr}
 2708              	.LCFI37:
 2709              		.cfi_def_cfa_offset 4
 2710              		.cfi_offset 14, -4
ARM GAS  /tmp/ccfbcrWA.s 			page 89


 2711 0002 83B0     		sub	sp, sp, #12
 2712              	.LCFI38:
 2713              		.cfi_def_cfa_offset 16
 2714 0004 8446     		mov	ip, r0
 2715 0006 0846     		mov	r0, r1
 2716              	.LVL205:
1103:Drivers/STM32F4xx_HAL_Driver/Src/stm32f4xx_ll_usb.c ****   uint8_t *pDest = dest;
 2717              		.loc 1 1103 3 is_stmt 1 view .LVU883
1104:Drivers/STM32F4xx_HAL_Driver/Src/stm32f4xx_ll_usb.c ****   uint32_t pData;
 2718              		.loc 1 1104 3 view .LVU884
1105:Drivers/STM32F4xx_HAL_Driver/Src/stm32f4xx_ll_usb.c ****   uint32_t i;
 2719              		.loc 1 1105 3 view .LVU885
1106:Drivers/STM32F4xx_HAL_Driver/Src/stm32f4xx_ll_usb.c ****   uint32_t count32b = (uint32_t)len >> 2U;
 2720              		.loc 1 1106 3 view .LVU886
1107:Drivers/STM32F4xx_HAL_Driver/Src/stm32f4xx_ll_usb.c ****   uint16_t remaining_bytes = len % 4U;
 2721              		.loc 1 1107 3 view .LVU887
1107:Drivers/STM32F4xx_HAL_Driver/Src/stm32f4xx_ll_usb.c ****   uint16_t remaining_bytes = len % 4U;
 2722              		.loc 1 1107 37 is_stmt 0 view .LVU888
 2723 0008 4FEA920E 		lsr	lr, r2, #2
 2724              	.LVL206:
1108:Drivers/STM32F4xx_HAL_Driver/Src/stm32f4xx_ll_usb.c **** 
 2725              		.loc 1 1108 3 is_stmt 1 view .LVU889
1108:Drivers/STM32F4xx_HAL_Driver/Src/stm32f4xx_ll_usb.c **** 
 2726              		.loc 1 1108 12 is_stmt 0 view .LVU890
 2727 000c 02F00302 		and	r2, r2, #3
 2728              	.LVL207:
1110:Drivers/STM32F4xx_HAL_Driver/Src/stm32f4xx_ll_usb.c ****   {
 2729              		.loc 1 1110 3 is_stmt 1 view .LVU891
1110:Drivers/STM32F4xx_HAL_Driver/Src/stm32f4xx_ll_usb.c ****   {
 2730              		.loc 1 1110 10 is_stmt 0 view .LVU892
 2731 0010 0023     		movs	r3, #0
1110:Drivers/STM32F4xx_HAL_Driver/Src/stm32f4xx_ll_usb.c ****   {
 2732              		.loc 1 1110 3 view .LVU893
 2733 0012 05E0     		b	.L183
 2734              	.LVL208:
 2735              	.L184:
1112:Drivers/STM32F4xx_HAL_Driver/Src/stm32f4xx_ll_usb.c ****     pDest++;
 2736              		.loc 1 1112 5 is_stmt 1 discriminator 3 view .LVU894
 2737 0014 0CF58051 		add	r1, ip, #4096
 2738 0018 0968     		ldr	r1, [r1]
 2739 001a 40F8041B 		str	r1, [r0], #4	@ unaligned
 2740              	.LVL209:
1113:Drivers/STM32F4xx_HAL_Driver/Src/stm32f4xx_ll_usb.c ****     pDest++;
 2741              		.loc 1 1113 5 discriminator 3 view .LVU895
1114:Drivers/STM32F4xx_HAL_Driver/Src/stm32f4xx_ll_usb.c ****     pDest++;
 2742              		.loc 1 1114 5 discriminator 3 view .LVU896
1115:Drivers/STM32F4xx_HAL_Driver/Src/stm32f4xx_ll_usb.c ****     pDest++;
 2743              		.loc 1 1115 5 discriminator 3 view .LVU897
1116:Drivers/STM32F4xx_HAL_Driver/Src/stm32f4xx_ll_usb.c ****   }
 2744              		.loc 1 1116 5 discriminator 3 view .LVU898
1110:Drivers/STM32F4xx_HAL_Driver/Src/stm32f4xx_ll_usb.c ****   {
 2745              		.loc 1 1110 30 discriminator 3 view .LVU899
1110:Drivers/STM32F4xx_HAL_Driver/Src/stm32f4xx_ll_usb.c ****   {
 2746              		.loc 1 1110 31 is_stmt 0 discriminator 3 view .LVU900
 2747 001e 0133     		adds	r3, r3, #1
 2748              	.LVL210:
 2749              	.L183:
ARM GAS  /tmp/ccfbcrWA.s 			page 90


1110:Drivers/STM32F4xx_HAL_Driver/Src/stm32f4xx_ll_usb.c ****   {
 2750              		.loc 1 1110 16 is_stmt 1 discriminator 1 view .LVU901
1110:Drivers/STM32F4xx_HAL_Driver/Src/stm32f4xx_ll_usb.c ****   {
 2751              		.loc 1 1110 3 is_stmt 0 discriminator 1 view .LVU902
 2752 0020 7345     		cmp	r3, lr
 2753 0022 F7D3     		bcc	.L184
1120:Drivers/STM32F4xx_HAL_Driver/Src/stm32f4xx_ll_usb.c ****   {
 2754              		.loc 1 1120 3 is_stmt 1 view .LVU903
1120:Drivers/STM32F4xx_HAL_Driver/Src/stm32f4xx_ll_usb.c ****   {
 2755              		.loc 1 1120 6 is_stmt 0 view .LVU904
 2756 0024 9AB1     		cbz	r2, .L185
1122:Drivers/STM32F4xx_HAL_Driver/Src/stm32f4xx_ll_usb.c ****     __UNALIGNED_UINT32_WRITE(&pData, USBx_DFIFO(0U));
 2757              		.loc 1 1122 5 is_stmt 1 view .LVU905
 2758              	.LVL211:
1123:Drivers/STM32F4xx_HAL_Driver/Src/stm32f4xx_ll_usb.c **** 
 2759              		.loc 1 1123 5 view .LVU906
 2760 0026 0CF5805C 		add	ip, ip, #4096
 2761              	.LVL212:
1123:Drivers/STM32F4xx_HAL_Driver/Src/stm32f4xx_ll_usb.c **** 
 2762              		.loc 1 1123 5 is_stmt 0 view .LVU907
 2763 002a DCF80030 		ldr	r3, [ip]
 2764 002e 0193     		str	r3, [sp, #4]
1122:Drivers/STM32F4xx_HAL_Driver/Src/stm32f4xx_ll_usb.c ****     __UNALIGNED_UINT32_WRITE(&pData, USBx_DFIFO(0U));
 2765              		.loc 1 1122 7 view .LVU908
 2766 0030 4FF0000C 		mov	ip, #0
 2767              	.LVL213:
 2768              	.L186:
1125:Drivers/STM32F4xx_HAL_Driver/Src/stm32f4xx_ll_usb.c ****     {
 2769              		.loc 1 1125 5 is_stmt 1 discriminator 1 view .LVU909
1127:Drivers/STM32F4xx_HAL_Driver/Src/stm32f4xx_ll_usb.c ****       i++;
 2770              		.loc 1 1127 7 discriminator 1 view .LVU910
1127:Drivers/STM32F4xx_HAL_Driver/Src/stm32f4xx_ll_usb.c ****       i++;
 2771              		.loc 1 1127 50 is_stmt 0 discriminator 1 view .LVU911
 2772 0034 5FFA8CF3 		uxtb	r3, ip
 2773 0038 D900     		lsls	r1, r3, #3
1127:Drivers/STM32F4xx_HAL_Driver/Src/stm32f4xx_ll_usb.c ****       i++;
 2774              		.loc 1 1127 43 discriminator 1 view .LVU912
 2775 003a 019B     		ldr	r3, [sp, #4]
 2776 003c CB40     		lsrs	r3, r3, r1
1127:Drivers/STM32F4xx_HAL_Driver/Src/stm32f4xx_ll_usb.c ****       i++;
 2777              		.loc 1 1127 25 discriminator 1 view .LVU913
 2778 003e 00F8013B 		strb	r3, [r0], #1
 2779              	.LVL214:
1128:Drivers/STM32F4xx_HAL_Driver/Src/stm32f4xx_ll_usb.c ****       pDest++;
 2780              		.loc 1 1128 7 is_stmt 1 discriminator 1 view .LVU914
1128:Drivers/STM32F4xx_HAL_Driver/Src/stm32f4xx_ll_usb.c ****       pDest++;
 2781              		.loc 1 1128 8 is_stmt 0 discriminator 1 view .LVU915
 2782 0042 0CF1010C 		add	ip, ip, #1
 2783              	.LVL215:
1129:Drivers/STM32F4xx_HAL_Driver/Src/stm32f4xx_ll_usb.c ****       remaining_bytes--;
 2784              		.loc 1 1129 7 is_stmt 1 discriminator 1 view .LVU916
1130:Drivers/STM32F4xx_HAL_Driver/Src/stm32f4xx_ll_usb.c ****     } while (remaining_bytes != 0U);
 2785              		.loc 1 1130 7 discriminator 1 view .LVU917
1130:Drivers/STM32F4xx_HAL_Driver/Src/stm32f4xx_ll_usb.c ****     } while (remaining_bytes != 0U);
 2786              		.loc 1 1130 22 is_stmt 0 discriminator 1 view .LVU918
 2787 0046 013A     		subs	r2, r2, #1
 2788              	.LVL216:
ARM GAS  /tmp/ccfbcrWA.s 			page 91


1130:Drivers/STM32F4xx_HAL_Driver/Src/stm32f4xx_ll_usb.c ****     } while (remaining_bytes != 0U);
 2789              		.loc 1 1130 22 discriminator 1 view .LVU919
 2790 0048 92B2     		uxth	r2, r2
 2791              	.LVL217:
1131:Drivers/STM32F4xx_HAL_Driver/Src/stm32f4xx_ll_usb.c ****   }
 2792              		.loc 1 1131 13 is_stmt 1 discriminator 1 view .LVU920
1131:Drivers/STM32F4xx_HAL_Driver/Src/stm32f4xx_ll_usb.c ****   }
 2793              		.loc 1 1131 5 is_stmt 0 discriminator 1 view .LVU921
 2794 004a 002A     		cmp	r2, #0
 2795 004c F2D1     		bne	.L186
 2796              	.LVL218:
 2797              	.L185:
1134:Drivers/STM32F4xx_HAL_Driver/Src/stm32f4xx_ll_usb.c **** }
 2798              		.loc 1 1134 3 is_stmt 1 view .LVU922
1135:Drivers/STM32F4xx_HAL_Driver/Src/stm32f4xx_ll_usb.c **** 
 2799              		.loc 1 1135 1 is_stmt 0 view .LVU923
 2800 004e 03B0     		add	sp, sp, #12
 2801              	.LCFI39:
 2802              		.cfi_def_cfa_offset 4
 2803              		@ sp needed
 2804 0050 5DF804FB 		ldr	pc, [sp], #4
 2805              		.cfi_endproc
 2806              	.LFE148:
 2808              		.section	.text.USB_EPSetStall,"ax",%progbits
 2809              		.align	1
 2810              		.global	USB_EPSetStall
 2811              		.syntax unified
 2812              		.thumb
 2813              		.thumb_func
 2814              		.fpu fpv4-sp-d16
 2816              	USB_EPSetStall:
 2817              	.LVL219:
 2818              	.LFB149:
1144:Drivers/STM32F4xx_HAL_Driver/Src/stm32f4xx_ll_usb.c ****   uint32_t USBx_BASE = (uint32_t)USBx;
 2819              		.loc 1 1144 1 is_stmt 1 view -0
 2820              		.cfi_startproc
 2821              		@ args = 0, pretend = 0, frame = 0
 2822              		@ frame_needed = 0, uses_anonymous_args = 0
 2823              		@ link register save eliminated.
1145:Drivers/STM32F4xx_HAL_Driver/Src/stm32f4xx_ll_usb.c ****   uint32_t epnum = (uint32_t)ep->num;
 2824              		.loc 1 1145 3 view .LVU925
1146:Drivers/STM32F4xx_HAL_Driver/Src/stm32f4xx_ll_usb.c **** 
 2825              		.loc 1 1146 3 view .LVU926
1146:Drivers/STM32F4xx_HAL_Driver/Src/stm32f4xx_ll_usb.c **** 
 2826              		.loc 1 1146 32 is_stmt 0 view .LVU927
 2827 0000 0B78     		ldrb	r3, [r1]	@ zero_extendqisi2
 2828              	.LVL220:
1148:Drivers/STM32F4xx_HAL_Driver/Src/stm32f4xx_ll_usb.c ****   {
 2829              		.loc 1 1148 3 is_stmt 1 view .LVU928
1148:Drivers/STM32F4xx_HAL_Driver/Src/stm32f4xx_ll_usb.c ****   {
 2830              		.loc 1 1148 9 is_stmt 0 view .LVU929
 2831 0002 4A78     		ldrb	r2, [r1, #1]	@ zero_extendqisi2
1148:Drivers/STM32F4xx_HAL_Driver/Src/stm32f4xx_ll_usb.c ****   {
 2832              		.loc 1 1148 6 view .LVU930
 2833 0004 012A     		cmp	r2, #1
 2834 0006 14D0     		beq	.L193
1158:Drivers/STM32F4xx_HAL_Driver/Src/stm32f4xx_ll_usb.c ****     {
ARM GAS  /tmp/ccfbcrWA.s 			page 92


 2835              		.loc 1 1158 5 is_stmt 1 view .LVU931
1158:Drivers/STM32F4xx_HAL_Driver/Src/stm32f4xx_ll_usb.c ****     {
 2836              		.loc 1 1158 11 is_stmt 0 view .LVU932
 2837 0008 00EB4310 		add	r0, r0, r3, lsl #5
 2838              	.LVL221:
1158:Drivers/STM32F4xx_HAL_Driver/Src/stm32f4xx_ll_usb.c ****     {
 2839              		.loc 1 1158 28 view .LVU933
 2840 000c D0F8002B 		ldr	r2, [r0, #2816]
1158:Drivers/STM32F4xx_HAL_Driver/Src/stm32f4xx_ll_usb.c ****     {
 2841              		.loc 1 1158 8 view .LVU934
 2842 0010 002A     		cmp	r2, #0
 2843 0012 06DB     		blt	.L192
1158:Drivers/STM32F4xx_HAL_Driver/Src/stm32f4xx_ll_usb.c ****     {
 2844              		.loc 1 1158 70 discriminator 1 view .LVU935
 2845 0014 2BB1     		cbz	r3, .L192
1160:Drivers/STM32F4xx_HAL_Driver/Src/stm32f4xx_ll_usb.c ****     }
 2846              		.loc 1 1160 7 is_stmt 1 view .LVU936
1160:Drivers/STM32F4xx_HAL_Driver/Src/stm32f4xx_ll_usb.c ****     }
 2847              		.loc 1 1160 34 is_stmt 0 view .LVU937
 2848 0016 D0F8003B 		ldr	r3, [r0, #2816]
 2849              	.LVL222:
1160:Drivers/STM32F4xx_HAL_Driver/Src/stm32f4xx_ll_usb.c ****     }
 2850              		.loc 1 1160 34 view .LVU938
 2851 001a 23F08043 		bic	r3, r3, #1073741824
 2852 001e C0F8003B 		str	r3, [r0, #2816]
 2853              	.LVL223:
 2854              	.L192:
1162:Drivers/STM32F4xx_HAL_Driver/Src/stm32f4xx_ll_usb.c ****   }
 2855              		.loc 1 1162 5 is_stmt 1 view .LVU939
1162:Drivers/STM32F4xx_HAL_Driver/Src/stm32f4xx_ll_usb.c ****   }
 2856              		.loc 1 1162 32 is_stmt 0 view .LVU940
 2857 0022 D0F8003B 		ldr	r3, [r0, #2816]
 2858 0026 43F40013 		orr	r3, r3, #2097152
 2859 002a C0F8003B 		str	r3, [r0, #2816]
 2860              	.L191:
1165:Drivers/STM32F4xx_HAL_Driver/Src/stm32f4xx_ll_usb.c **** }
 2861              		.loc 1 1165 3 is_stmt 1 view .LVU941
1166:Drivers/STM32F4xx_HAL_Driver/Src/stm32f4xx_ll_usb.c **** 
 2862              		.loc 1 1166 1 is_stmt 0 view .LVU942
 2863 002e 0020     		movs	r0, #0
 2864 0030 7047     		bx	lr
 2865              	.LVL224:
 2866              	.L193:
1150:Drivers/STM32F4xx_HAL_Driver/Src/stm32f4xx_ll_usb.c ****     {
 2867              		.loc 1 1150 5 is_stmt 1 view .LVU943
1150:Drivers/STM32F4xx_HAL_Driver/Src/stm32f4xx_ll_usb.c ****     {
 2868              		.loc 1 1150 11 is_stmt 0 view .LVU944
 2869 0032 00EB4310 		add	r0, r0, r3, lsl #5
 2870              	.LVL225:
1150:Drivers/STM32F4xx_HAL_Driver/Src/stm32f4xx_ll_usb.c ****     {
 2871              		.loc 1 1150 27 view .LVU945
 2872 0036 D0F80029 		ldr	r2, [r0, #2304]
1150:Drivers/STM32F4xx_HAL_Driver/Src/stm32f4xx_ll_usb.c ****     {
 2873              		.loc 1 1150 8 view .LVU946
 2874 003a 002A     		cmp	r2, #0
 2875 003c 06DB     		blt	.L190
1150:Drivers/STM32F4xx_HAL_Driver/Src/stm32f4xx_ll_usb.c ****     {
ARM GAS  /tmp/ccfbcrWA.s 			page 93


 2876              		.loc 1 1150 69 discriminator 1 view .LVU947
 2877 003e 2BB1     		cbz	r3, .L190
1152:Drivers/STM32F4xx_HAL_Driver/Src/stm32f4xx_ll_usb.c ****     }
 2878              		.loc 1 1152 7 is_stmt 1 view .LVU948
1152:Drivers/STM32F4xx_HAL_Driver/Src/stm32f4xx_ll_usb.c ****     }
 2879              		.loc 1 1152 33 is_stmt 0 view .LVU949
 2880 0040 D0F80039 		ldr	r3, [r0, #2304]
 2881              	.LVL226:
1152:Drivers/STM32F4xx_HAL_Driver/Src/stm32f4xx_ll_usb.c ****     }
 2882              		.loc 1 1152 33 view .LVU950
 2883 0044 23F08043 		bic	r3, r3, #1073741824
 2884 0048 C0F80039 		str	r3, [r0, #2304]
 2885              	.LVL227:
 2886              	.L190:
1154:Drivers/STM32F4xx_HAL_Driver/Src/stm32f4xx_ll_usb.c ****   }
 2887              		.loc 1 1154 5 is_stmt 1 view .LVU951
1154:Drivers/STM32F4xx_HAL_Driver/Src/stm32f4xx_ll_usb.c ****   }
 2888              		.loc 1 1154 31 is_stmt 0 view .LVU952
 2889 004c D0F80039 		ldr	r3, [r0, #2304]
 2890 0050 43F40013 		orr	r3, r3, #2097152
 2891 0054 C0F80039 		str	r3, [r0, #2304]
 2892 0058 E9E7     		b	.L191
 2893              		.cfi_endproc
 2894              	.LFE149:
 2896              		.section	.text.USB_EPClearStall,"ax",%progbits
 2897              		.align	1
 2898              		.global	USB_EPClearStall
 2899              		.syntax unified
 2900              		.thumb
 2901              		.thumb_func
 2902              		.fpu fpv4-sp-d16
 2904              	USB_EPClearStall:
 2905              	.LVL228:
 2906              	.LFB150:
1175:Drivers/STM32F4xx_HAL_Driver/Src/stm32f4xx_ll_usb.c ****   uint32_t USBx_BASE = (uint32_t)USBx;
 2907              		.loc 1 1175 1 is_stmt 1 view -0
 2908              		.cfi_startproc
 2909              		@ args = 0, pretend = 0, frame = 0
 2910              		@ frame_needed = 0, uses_anonymous_args = 0
 2911              		@ link register save eliminated.
1176:Drivers/STM32F4xx_HAL_Driver/Src/stm32f4xx_ll_usb.c ****   uint32_t epnum = (uint32_t)ep->num;
 2912              		.loc 1 1176 3 view .LVU954
1177:Drivers/STM32F4xx_HAL_Driver/Src/stm32f4xx_ll_usb.c **** 
 2913              		.loc 1 1177 3 view .LVU955
1177:Drivers/STM32F4xx_HAL_Driver/Src/stm32f4xx_ll_usb.c **** 
 2914              		.loc 1 1177 32 is_stmt 0 view .LVU956
 2915 0000 0B78     		ldrb	r3, [r1]	@ zero_extendqisi2
 2916              	.LVL229:
1179:Drivers/STM32F4xx_HAL_Driver/Src/stm32f4xx_ll_usb.c ****   {
 2917              		.loc 1 1179 3 is_stmt 1 view .LVU957
1179:Drivers/STM32F4xx_HAL_Driver/Src/stm32f4xx_ll_usb.c ****   {
 2918              		.loc 1 1179 9 is_stmt 0 view .LVU958
 2919 0002 4A78     		ldrb	r2, [r1, #1]	@ zero_extendqisi2
1179:Drivers/STM32F4xx_HAL_Driver/Src/stm32f4xx_ll_usb.c ****   {
 2920              		.loc 1 1179 6 view .LVU959
 2921 0004 012A     		cmp	r2, #1
 2922 0006 0ED0     		beq	.L197
ARM GAS  /tmp/ccfbcrWA.s 			page 94


1189:Drivers/STM32F4xx_HAL_Driver/Src/stm32f4xx_ll_usb.c ****     if ((ep->type == EP_TYPE_INTR) || (ep->type == EP_TYPE_BULK))
 2923              		.loc 1 1189 5 is_stmt 1 view .LVU960
1189:Drivers/STM32F4xx_HAL_Driver/Src/stm32f4xx_ll_usb.c ****     if ((ep->type == EP_TYPE_INTR) || (ep->type == EP_TYPE_BULK))
 2924              		.loc 1 1189 32 is_stmt 0 view .LVU961
 2925 0008 00EB4310 		add	r0, r0, r3, lsl #5
 2926              	.LVL230:
1189:Drivers/STM32F4xx_HAL_Driver/Src/stm32f4xx_ll_usb.c ****     if ((ep->type == EP_TYPE_INTR) || (ep->type == EP_TYPE_BULK))
 2927              		.loc 1 1189 32 view .LVU962
 2928 000c D0F8003B 		ldr	r3, [r0, #2816]
 2929              	.LVL231:
1189:Drivers/STM32F4xx_HAL_Driver/Src/stm32f4xx_ll_usb.c ****     if ((ep->type == EP_TYPE_INTR) || (ep->type == EP_TYPE_BULK))
 2930              		.loc 1 1189 32 view .LVU963
 2931 0010 23F40013 		bic	r3, r3, #2097152
 2932 0014 C0F8003B 		str	r3, [r0, #2816]
 2933              	.LVL232:
1190:Drivers/STM32F4xx_HAL_Driver/Src/stm32f4xx_ll_usb.c ****     {
 2934              		.loc 1 1190 5 is_stmt 1 view .LVU964
1190:Drivers/STM32F4xx_HAL_Driver/Src/stm32f4xx_ll_usb.c ****     {
 2935              		.loc 1 1190 12 is_stmt 0 view .LVU965
 2936 0018 0B79     		ldrb	r3, [r1, #4]	@ zero_extendqisi2
1190:Drivers/STM32F4xx_HAL_Driver/Src/stm32f4xx_ll_usb.c ****     {
 2937              		.loc 1 1190 36 view .LVU966
 2938 001a 023B     		subs	r3, r3, #2
 2939 001c DBB2     		uxtb	r3, r3
1190:Drivers/STM32F4xx_HAL_Driver/Src/stm32f4xx_ll_usb.c ****     {
 2940              		.loc 1 1190 8 view .LVU967
 2941 001e 012B     		cmp	r3, #1
 2942 0020 15D9     		bls	.L198
 2943              	.L196:
1195:Drivers/STM32F4xx_HAL_Driver/Src/stm32f4xx_ll_usb.c **** }
 2944              		.loc 1 1195 3 is_stmt 1 view .LVU968
1196:Drivers/STM32F4xx_HAL_Driver/Src/stm32f4xx_ll_usb.c **** 
 2945              		.loc 1 1196 1 is_stmt 0 view .LVU969
 2946 0022 0020     		movs	r0, #0
 2947 0024 7047     		bx	lr
 2948              	.LVL233:
 2949              	.L197:
1181:Drivers/STM32F4xx_HAL_Driver/Src/stm32f4xx_ll_usb.c ****     if ((ep->type == EP_TYPE_INTR) || (ep->type == EP_TYPE_BULK))
 2950              		.loc 1 1181 5 is_stmt 1 view .LVU970
1181:Drivers/STM32F4xx_HAL_Driver/Src/stm32f4xx_ll_usb.c ****     if ((ep->type == EP_TYPE_INTR) || (ep->type == EP_TYPE_BULK))
 2951              		.loc 1 1181 31 is_stmt 0 view .LVU971
 2952 0026 00EB4310 		add	r0, r0, r3, lsl #5
 2953              	.LVL234:
1181:Drivers/STM32F4xx_HAL_Driver/Src/stm32f4xx_ll_usb.c ****     if ((ep->type == EP_TYPE_INTR) || (ep->type == EP_TYPE_BULK))
 2954              		.loc 1 1181 31 view .LVU972
 2955 002a D0F80039 		ldr	r3, [r0, #2304]
 2956              	.LVL235:
1181:Drivers/STM32F4xx_HAL_Driver/Src/stm32f4xx_ll_usb.c ****     if ((ep->type == EP_TYPE_INTR) || (ep->type == EP_TYPE_BULK))
 2957              		.loc 1 1181 31 view .LVU973
 2958 002e 23F40013 		bic	r3, r3, #2097152
 2959 0032 C0F80039 		str	r3, [r0, #2304]
 2960              	.LVL236:
1182:Drivers/STM32F4xx_HAL_Driver/Src/stm32f4xx_ll_usb.c ****     {
 2961              		.loc 1 1182 5 is_stmt 1 view .LVU974
1182:Drivers/STM32F4xx_HAL_Driver/Src/stm32f4xx_ll_usb.c ****     {
 2962              		.loc 1 1182 12 is_stmt 0 view .LVU975
 2963 0036 0B79     		ldrb	r3, [r1, #4]	@ zero_extendqisi2
ARM GAS  /tmp/ccfbcrWA.s 			page 95


1182:Drivers/STM32F4xx_HAL_Driver/Src/stm32f4xx_ll_usb.c ****     {
 2964              		.loc 1 1182 36 view .LVU976
 2965 0038 023B     		subs	r3, r3, #2
 2966 003a DBB2     		uxtb	r3, r3
1182:Drivers/STM32F4xx_HAL_Driver/Src/stm32f4xx_ll_usb.c ****     {
 2967              		.loc 1 1182 8 view .LVU977
 2968 003c 012B     		cmp	r3, #1
 2969 003e F0D8     		bhi	.L196
1184:Drivers/STM32F4xx_HAL_Driver/Src/stm32f4xx_ll_usb.c ****     }
 2970              		.loc 1 1184 7 is_stmt 1 view .LVU978
1184:Drivers/STM32F4xx_HAL_Driver/Src/stm32f4xx_ll_usb.c ****     }
 2971              		.loc 1 1184 33 is_stmt 0 view .LVU979
 2972 0040 D0F80039 		ldr	r3, [r0, #2304]
 2973 0044 43F08053 		orr	r3, r3, #268435456
 2974 0048 C0F80039 		str	r3, [r0, #2304]
 2975 004c E9E7     		b	.L196
 2976              	.L198:
1192:Drivers/STM32F4xx_HAL_Driver/Src/stm32f4xx_ll_usb.c ****     }
 2977              		.loc 1 1192 7 is_stmt 1 view .LVU980
1192:Drivers/STM32F4xx_HAL_Driver/Src/stm32f4xx_ll_usb.c ****     }
 2978              		.loc 1 1192 34 is_stmt 0 view .LVU981
 2979 004e D0F8003B 		ldr	r3, [r0, #2816]
 2980 0052 43F08053 		orr	r3, r3, #268435456
 2981 0056 C0F8003B 		str	r3, [r0, #2816]
 2982 005a E2E7     		b	.L196
 2983              		.cfi_endproc
 2984              	.LFE150:
 2986              		.section	.text.USB_StopDevice,"ax",%progbits
 2987              		.align	1
 2988              		.global	USB_StopDevice
 2989              		.syntax unified
 2990              		.thumb
 2991              		.thumb_func
 2992              		.fpu fpv4-sp-d16
 2994              	USB_StopDevice:
 2995              	.LVL237:
 2996              	.LFB151:
1204:Drivers/STM32F4xx_HAL_Driver/Src/stm32f4xx_ll_usb.c ****   HAL_StatusTypeDef ret;
 2997              		.loc 1 1204 1 is_stmt 1 view -0
 2998              		.cfi_startproc
 2999              		@ args = 0, pretend = 0, frame = 0
 3000              		@ frame_needed = 0, uses_anonymous_args = 0
1204:Drivers/STM32F4xx_HAL_Driver/Src/stm32f4xx_ll_usb.c ****   HAL_StatusTypeDef ret;
 3001              		.loc 1 1204 1 is_stmt 0 view .LVU983
 3002 0000 10B5     		push	{r4, lr}
 3003              	.LCFI40:
 3004              		.cfi_def_cfa_offset 8
 3005              		.cfi_offset 4, -8
 3006              		.cfi_offset 14, -4
 3007 0002 0446     		mov	r4, r0
1205:Drivers/STM32F4xx_HAL_Driver/Src/stm32f4xx_ll_usb.c ****   uint32_t USBx_BASE = (uint32_t)USBx;
 3008              		.loc 1 1205 3 is_stmt 1 view .LVU984
1206:Drivers/STM32F4xx_HAL_Driver/Src/stm32f4xx_ll_usb.c ****   uint32_t i;
 3009              		.loc 1 1206 3 view .LVU985
 3010              	.LVL238:
1207:Drivers/STM32F4xx_HAL_Driver/Src/stm32f4xx_ll_usb.c **** 
 3011              		.loc 1 1207 3 view .LVU986
ARM GAS  /tmp/ccfbcrWA.s 			page 96


1210:Drivers/STM32F4xx_HAL_Driver/Src/stm32f4xx_ll_usb.c ****   {
 3012              		.loc 1 1210 3 view .LVU987
1210:Drivers/STM32F4xx_HAL_Driver/Src/stm32f4xx_ll_usb.c ****   {
 3013              		.loc 1 1210 10 is_stmt 0 view .LVU988
 3014 0004 0022     		movs	r2, #0
1210:Drivers/STM32F4xx_HAL_Driver/Src/stm32f4xx_ll_usb.c ****   {
 3015              		.loc 1 1210 3 view .LVU989
 3016 0006 08E0     		b	.L200
 3017              	.LVL239:
 3018              	.L201:
1212:Drivers/STM32F4xx_HAL_Driver/Src/stm32f4xx_ll_usb.c ****     USBx_OUTEP(i)->DOEPINT = 0xFB7FU;
 3019              		.loc 1 1212 5 is_stmt 1 discriminator 3 view .LVU990
 3020 0008 04EB4213 		add	r3, r4, r2, lsl #5
1212:Drivers/STM32F4xx_HAL_Driver/Src/stm32f4xx_ll_usb.c ****     USBx_OUTEP(i)->DOEPINT = 0xFB7FU;
 3021              		.loc 1 1212 27 is_stmt 0 discriminator 3 view .LVU991
 3022 000c 4FF67F31 		movw	r1, #64383
 3023 0010 C3F80819 		str	r1, [r3, #2312]
1213:Drivers/STM32F4xx_HAL_Driver/Src/stm32f4xx_ll_usb.c ****   }
 3024              		.loc 1 1213 5 is_stmt 1 discriminator 3 view .LVU992
1213:Drivers/STM32F4xx_HAL_Driver/Src/stm32f4xx_ll_usb.c ****   }
 3025              		.loc 1 1213 28 is_stmt 0 discriminator 3 view .LVU993
 3026 0014 C3F8081B 		str	r1, [r3, #2824]
1210:Drivers/STM32F4xx_HAL_Driver/Src/stm32f4xx_ll_usb.c ****   {
 3027              		.loc 1 1210 25 is_stmt 1 discriminator 3 view .LVU994
1210:Drivers/STM32F4xx_HAL_Driver/Src/stm32f4xx_ll_usb.c ****   {
 3028              		.loc 1 1210 26 is_stmt 0 discriminator 3 view .LVU995
 3029 0018 0132     		adds	r2, r2, #1
 3030              	.LVL240:
 3031              	.L200:
1210:Drivers/STM32F4xx_HAL_Driver/Src/stm32f4xx_ll_usb.c ****   {
 3032              		.loc 1 1210 16 is_stmt 1 discriminator 1 view .LVU996
1210:Drivers/STM32F4xx_HAL_Driver/Src/stm32f4xx_ll_usb.c ****   {
 3033              		.loc 1 1210 3 is_stmt 0 discriminator 1 view .LVU997
 3034 001a 0E2A     		cmp	r2, #14
 3035 001c F4D9     		bls	.L201
1217:Drivers/STM32F4xx_HAL_Driver/Src/stm32f4xx_ll_usb.c ****   USBx_DEVICE->DOEPMSK  = 0U;
 3036              		.loc 1 1217 3 is_stmt 1 view .LVU998
1217:Drivers/STM32F4xx_HAL_Driver/Src/stm32f4xx_ll_usb.c ****   USBx_DEVICE->DOEPMSK  = 0U;
 3037              		.loc 1 1217 25 is_stmt 0 view .LVU999
 3038 001e 0022     		movs	r2, #0
 3039              	.LVL241:
1217:Drivers/STM32F4xx_HAL_Driver/Src/stm32f4xx_ll_usb.c ****   USBx_DEVICE->DOEPMSK  = 0U;
 3040              		.loc 1 1217 25 view .LVU1000
 3041 0020 C4F81028 		str	r2, [r4, #2064]
1218:Drivers/STM32F4xx_HAL_Driver/Src/stm32f4xx_ll_usb.c ****   USBx_DEVICE->DAINTMSK = 0U;
 3042              		.loc 1 1218 3 is_stmt 1 view .LVU1001
1218:Drivers/STM32F4xx_HAL_Driver/Src/stm32f4xx_ll_usb.c ****   USBx_DEVICE->DAINTMSK = 0U;
 3043              		.loc 1 1218 25 is_stmt 0 view .LVU1002
 3044 0024 C4F81428 		str	r2, [r4, #2068]
1219:Drivers/STM32F4xx_HAL_Driver/Src/stm32f4xx_ll_usb.c **** 
 3045              		.loc 1 1219 3 is_stmt 1 view .LVU1003
1219:Drivers/STM32F4xx_HAL_Driver/Src/stm32f4xx_ll_usb.c **** 
 3046              		.loc 1 1219 25 is_stmt 0 view .LVU1004
 3047 0028 C4F81C28 		str	r2, [r4, #2076]
1222:Drivers/STM32F4xx_HAL_Driver/Src/stm32f4xx_ll_usb.c ****   if (ret != HAL_OK)
 3048              		.loc 1 1222 3 is_stmt 1 view .LVU1005
1222:Drivers/STM32F4xx_HAL_Driver/Src/stm32f4xx_ll_usb.c ****   if (ret != HAL_OK)
ARM GAS  /tmp/ccfbcrWA.s 			page 97


 3049              		.loc 1 1222 9 is_stmt 0 view .LVU1006
 3050 002c 2046     		mov	r0, r4
 3051              	.LVL242:
1222:Drivers/STM32F4xx_HAL_Driver/Src/stm32f4xx_ll_usb.c ****   if (ret != HAL_OK)
 3052              		.loc 1 1222 9 view .LVU1007
 3053 002e FFF7FEFF 		bl	USB_FlushRxFifo
 3054              	.LVL243:
1223:Drivers/STM32F4xx_HAL_Driver/Src/stm32f4xx_ll_usb.c ****   {
 3055              		.loc 1 1223 3 is_stmt 1 view .LVU1008
1223:Drivers/STM32F4xx_HAL_Driver/Src/stm32f4xx_ll_usb.c ****   {
 3056              		.loc 1 1223 6 is_stmt 0 view .LVU1009
 3057 0032 00B1     		cbz	r0, .L204
 3058              	.L202:
1235:Drivers/STM32F4xx_HAL_Driver/Src/stm32f4xx_ll_usb.c **** 
 3059              		.loc 1 1235 1 view .LVU1010
 3060 0034 10BD     		pop	{r4, pc}
 3061              	.LVL244:
 3062              	.L204:
1228:Drivers/STM32F4xx_HAL_Driver/Src/stm32f4xx_ll_usb.c ****   if (ret != HAL_OK)
 3063              		.loc 1 1228 3 is_stmt 1 view .LVU1011
1228:Drivers/STM32F4xx_HAL_Driver/Src/stm32f4xx_ll_usb.c ****   if (ret != HAL_OK)
 3064              		.loc 1 1228 9 is_stmt 0 view .LVU1012
 3065 0036 1021     		movs	r1, #16
 3066 0038 2046     		mov	r0, r4
 3067              	.LVL245:
1228:Drivers/STM32F4xx_HAL_Driver/Src/stm32f4xx_ll_usb.c ****   if (ret != HAL_OK)
 3068              		.loc 1 1228 9 view .LVU1013
 3069 003a FFF7FEFF 		bl	USB_FlushTxFifo
 3070              	.LVL246:
1229:Drivers/STM32F4xx_HAL_Driver/Src/stm32f4xx_ll_usb.c ****   {
 3071              		.loc 1 1229 3 is_stmt 1 view .LVU1014
 3072 003e F9E7     		b	.L202
 3073              		.cfi_endproc
 3074              	.LFE151:
 3076              		.section	.text.USB_SetDevAddress,"ax",%progbits
 3077              		.align	1
 3078              		.global	USB_SetDevAddress
 3079              		.syntax unified
 3080              		.thumb
 3081              		.thumb_func
 3082              		.fpu fpv4-sp-d16
 3084              	USB_SetDevAddress:
 3085              	.LVL247:
 3086              	.LFB152:
1245:Drivers/STM32F4xx_HAL_Driver/Src/stm32f4xx_ll_usb.c ****   uint32_t USBx_BASE = (uint32_t)USBx;
 3087              		.loc 1 1245 1 view -0
 3088              		.cfi_startproc
 3089              		@ args = 0, pretend = 0, frame = 0
 3090              		@ frame_needed = 0, uses_anonymous_args = 0
 3091              		@ link register save eliminated.
1246:Drivers/STM32F4xx_HAL_Driver/Src/stm32f4xx_ll_usb.c **** 
 3092              		.loc 1 1246 3 view .LVU1016
1248:Drivers/STM32F4xx_HAL_Driver/Src/stm32f4xx_ll_usb.c ****   USBx_DEVICE->DCFG |= ((uint32_t)address << 4) & USB_OTG_DCFG_DAD;
 3093              		.loc 1 1248 3 view .LVU1017
1248:Drivers/STM32F4xx_HAL_Driver/Src/stm32f4xx_ll_usb.c ****   USBx_DEVICE->DCFG |= ((uint32_t)address << 4) & USB_OTG_DCFG_DAD;
 3094              		.loc 1 1248 21 is_stmt 0 view .LVU1018
 3095 0000 D0F80038 		ldr	r3, [r0, #2048]
ARM GAS  /tmp/ccfbcrWA.s 			page 98


 3096 0004 23F4FE63 		bic	r3, r3, #2032
 3097 0008 C0F80038 		str	r3, [r0, #2048]
1249:Drivers/STM32F4xx_HAL_Driver/Src/stm32f4xx_ll_usb.c **** 
 3098              		.loc 1 1249 3 is_stmt 1 view .LVU1019
1249:Drivers/STM32F4xx_HAL_Driver/Src/stm32f4xx_ll_usb.c **** 
 3099              		.loc 1 1249 21 is_stmt 0 view .LVU1020
 3100 000c D0F80038 		ldr	r3, [r0, #2048]
1249:Drivers/STM32F4xx_HAL_Driver/Src/stm32f4xx_ll_usb.c **** 
 3101              		.loc 1 1249 43 view .LVU1021
 3102 0010 0901     		lsls	r1, r1, #4
 3103              	.LVL248:
1249:Drivers/STM32F4xx_HAL_Driver/Src/stm32f4xx_ll_usb.c **** 
 3104              		.loc 1 1249 49 view .LVU1022
 3105 0012 01F4FE61 		and	r1, r1, #2032
1249:Drivers/STM32F4xx_HAL_Driver/Src/stm32f4xx_ll_usb.c **** 
 3106              		.loc 1 1249 21 view .LVU1023
 3107 0016 1943     		orrs	r1, r1, r3
 3108 0018 C0F80018 		str	r1, [r0, #2048]
1251:Drivers/STM32F4xx_HAL_Driver/Src/stm32f4xx_ll_usb.c **** }
 3109              		.loc 1 1251 3 is_stmt 1 view .LVU1024
1252:Drivers/STM32F4xx_HAL_Driver/Src/stm32f4xx_ll_usb.c **** 
 3110              		.loc 1 1252 1 is_stmt 0 view .LVU1025
 3111 001c 0020     		movs	r0, #0
 3112              	.LVL249:
1252:Drivers/STM32F4xx_HAL_Driver/Src/stm32f4xx_ll_usb.c **** 
 3113              		.loc 1 1252 1 view .LVU1026
 3114 001e 7047     		bx	lr
 3115              		.cfi_endproc
 3116              	.LFE152:
 3118              		.section	.text.USB_DevConnect,"ax",%progbits
 3119              		.align	1
 3120              		.global	USB_DevConnect
 3121              		.syntax unified
 3122              		.thumb
 3123              		.thumb_func
 3124              		.fpu fpv4-sp-d16
 3126              	USB_DevConnect:
 3127              	.LVL250:
 3128              	.LFB153:
1260:Drivers/STM32F4xx_HAL_Driver/Src/stm32f4xx_ll_usb.c ****   uint32_t USBx_BASE = (uint32_t)USBx;
 3129              		.loc 1 1260 1 is_stmt 1 view -0
 3130              		.cfi_startproc
 3131              		@ args = 0, pretend = 0, frame = 0
 3132              		@ frame_needed = 0, uses_anonymous_args = 0
 3133              		@ link register save eliminated.
1261:Drivers/STM32F4xx_HAL_Driver/Src/stm32f4xx_ll_usb.c **** 
 3134              		.loc 1 1261 3 view .LVU1028
1264:Drivers/STM32F4xx_HAL_Driver/Src/stm32f4xx_ll_usb.c **** 
 3135              		.loc 1 1264 3 view .LVU1029
1264:Drivers/STM32F4xx_HAL_Driver/Src/stm32f4xx_ll_usb.c **** 
 3136              		.loc 1 1264 16 is_stmt 0 view .LVU1030
 3137 0000 D0F8003E 		ldr	r3, [r0, #3584]
 3138 0004 23F00303 		bic	r3, r3, #3
 3139 0008 C0F8003E 		str	r3, [r0, #3584]
1266:Drivers/STM32F4xx_HAL_Driver/Src/stm32f4xx_ll_usb.c **** 
 3140              		.loc 1 1266 3 is_stmt 1 view .LVU1031
1266:Drivers/STM32F4xx_HAL_Driver/Src/stm32f4xx_ll_usb.c **** 
ARM GAS  /tmp/ccfbcrWA.s 			page 99


 3141              		.loc 1 1266 21 is_stmt 0 view .LVU1032
 3142 000c D0F80438 		ldr	r3, [r0, #2052]
 3143 0010 23F00203 		bic	r3, r3, #2
 3144 0014 C0F80438 		str	r3, [r0, #2052]
1268:Drivers/STM32F4xx_HAL_Driver/Src/stm32f4xx_ll_usb.c **** }
 3145              		.loc 1 1268 3 is_stmt 1 view .LVU1033
1269:Drivers/STM32F4xx_HAL_Driver/Src/stm32f4xx_ll_usb.c **** 
 3146              		.loc 1 1269 1 is_stmt 0 view .LVU1034
 3147 0018 0020     		movs	r0, #0
 3148              	.LVL251:
1269:Drivers/STM32F4xx_HAL_Driver/Src/stm32f4xx_ll_usb.c **** 
 3149              		.loc 1 1269 1 view .LVU1035
 3150 001a 7047     		bx	lr
 3151              		.cfi_endproc
 3152              	.LFE153:
 3154              		.section	.text.USB_DevDisconnect,"ax",%progbits
 3155              		.align	1
 3156              		.global	USB_DevDisconnect
 3157              		.syntax unified
 3158              		.thumb
 3159              		.thumb_func
 3160              		.fpu fpv4-sp-d16
 3162              	USB_DevDisconnect:
 3163              	.LVL252:
 3164              	.LFB154:
1277:Drivers/STM32F4xx_HAL_Driver/Src/stm32f4xx_ll_usb.c ****   uint32_t USBx_BASE = (uint32_t)USBx;
 3165              		.loc 1 1277 1 is_stmt 1 view -0
 3166              		.cfi_startproc
 3167              		@ args = 0, pretend = 0, frame = 0
 3168              		@ frame_needed = 0, uses_anonymous_args = 0
 3169              		@ link register save eliminated.
1278:Drivers/STM32F4xx_HAL_Driver/Src/stm32f4xx_ll_usb.c **** 
 3170              		.loc 1 1278 3 view .LVU1037
1281:Drivers/STM32F4xx_HAL_Driver/Src/stm32f4xx_ll_usb.c **** 
 3171              		.loc 1 1281 3 view .LVU1038
1281:Drivers/STM32F4xx_HAL_Driver/Src/stm32f4xx_ll_usb.c **** 
 3172              		.loc 1 1281 16 is_stmt 0 view .LVU1039
 3173 0000 D0F8003E 		ldr	r3, [r0, #3584]
 3174 0004 23F00303 		bic	r3, r3, #3
 3175 0008 C0F8003E 		str	r3, [r0, #3584]
1283:Drivers/STM32F4xx_HAL_Driver/Src/stm32f4xx_ll_usb.c **** 
 3176              		.loc 1 1283 3 is_stmt 1 view .LVU1040
1283:Drivers/STM32F4xx_HAL_Driver/Src/stm32f4xx_ll_usb.c **** 
 3177              		.loc 1 1283 21 is_stmt 0 view .LVU1041
 3178 000c D0F80438 		ldr	r3, [r0, #2052]
 3179 0010 43F00203 		orr	r3, r3, #2
 3180 0014 C0F80438 		str	r3, [r0, #2052]
1285:Drivers/STM32F4xx_HAL_Driver/Src/stm32f4xx_ll_usb.c **** }
 3181              		.loc 1 1285 3 is_stmt 1 view .LVU1042
1286:Drivers/STM32F4xx_HAL_Driver/Src/stm32f4xx_ll_usb.c **** 
 3182              		.loc 1 1286 1 is_stmt 0 view .LVU1043
 3183 0018 0020     		movs	r0, #0
 3184              	.LVL253:
1286:Drivers/STM32F4xx_HAL_Driver/Src/stm32f4xx_ll_usb.c **** 
 3185              		.loc 1 1286 1 view .LVU1044
 3186 001a 7047     		bx	lr
 3187              		.cfi_endproc
ARM GAS  /tmp/ccfbcrWA.s 			page 100


 3188              	.LFE154:
 3190              		.section	.text.USB_ReadInterrupts,"ax",%progbits
 3191              		.align	1
 3192              		.global	USB_ReadInterrupts
 3193              		.syntax unified
 3194              		.thumb
 3195              		.thumb_func
 3196              		.fpu fpv4-sp-d16
 3198              	USB_ReadInterrupts:
 3199              	.LVL254:
 3200              	.LFB155:
1294:Drivers/STM32F4xx_HAL_Driver/Src/stm32f4xx_ll_usb.c ****   uint32_t tmpreg;
 3201              		.loc 1 1294 1 is_stmt 1 view -0
 3202              		.cfi_startproc
 3203              		@ args = 0, pretend = 0, frame = 0
 3204              		@ frame_needed = 0, uses_anonymous_args = 0
 3205              		@ link register save eliminated.
1295:Drivers/STM32F4xx_HAL_Driver/Src/stm32f4xx_ll_usb.c **** 
 3206              		.loc 1 1295 3 view .LVU1046
1297:Drivers/STM32F4xx_HAL_Driver/Src/stm32f4xx_ll_usb.c ****   tmpreg &= USBx->GINTMSK;
 3207              		.loc 1 1297 3 view .LVU1047
1297:Drivers/STM32F4xx_HAL_Driver/Src/stm32f4xx_ll_usb.c ****   tmpreg &= USBx->GINTMSK;
 3208              		.loc 1 1297 10 is_stmt 0 view .LVU1048
 3209 0000 4269     		ldr	r2, [r0, #20]
 3210              	.LVL255:
1298:Drivers/STM32F4xx_HAL_Driver/Src/stm32f4xx_ll_usb.c **** 
 3211              		.loc 1 1298 3 is_stmt 1 view .LVU1049
1298:Drivers/STM32F4xx_HAL_Driver/Src/stm32f4xx_ll_usb.c **** 
 3212              		.loc 1 1298 17 is_stmt 0 view .LVU1050
 3213 0002 8069     		ldr	r0, [r0, #24]
 3214              	.LVL256:
1300:Drivers/STM32F4xx_HAL_Driver/Src/stm32f4xx_ll_usb.c **** }
 3215              		.loc 1 1300 3 is_stmt 1 view .LVU1051
1301:Drivers/STM32F4xx_HAL_Driver/Src/stm32f4xx_ll_usb.c **** 
 3216              		.loc 1 1301 1 is_stmt 0 view .LVU1052
 3217 0004 1040     		ands	r0, r0, r2
 3218              	.LVL257:
1301:Drivers/STM32F4xx_HAL_Driver/Src/stm32f4xx_ll_usb.c **** 
 3219              		.loc 1 1301 1 view .LVU1053
 3220 0006 7047     		bx	lr
 3221              		.cfi_endproc
 3222              	.LFE155:
 3224              		.section	.text.USB_ReadDevAllOutEpInterrupt,"ax",%progbits
 3225              		.align	1
 3226              		.global	USB_ReadDevAllOutEpInterrupt
 3227              		.syntax unified
 3228              		.thumb
 3229              		.thumb_func
 3230              		.fpu fpv4-sp-d16
 3232              	USB_ReadDevAllOutEpInterrupt:
 3233              	.LVL258:
 3234              	.LFB156:
1309:Drivers/STM32F4xx_HAL_Driver/Src/stm32f4xx_ll_usb.c ****   uint32_t USBx_BASE = (uint32_t)USBx;
 3235              		.loc 1 1309 1 is_stmt 1 view -0
 3236              		.cfi_startproc
 3237              		@ args = 0, pretend = 0, frame = 0
 3238              		@ frame_needed = 0, uses_anonymous_args = 0
ARM GAS  /tmp/ccfbcrWA.s 			page 101


 3239              		@ link register save eliminated.
1310:Drivers/STM32F4xx_HAL_Driver/Src/stm32f4xx_ll_usb.c ****   uint32_t tmpreg;
 3240              		.loc 1 1310 3 view .LVU1055
1311:Drivers/STM32F4xx_HAL_Driver/Src/stm32f4xx_ll_usb.c **** 
 3241              		.loc 1 1311 3 view .LVU1056
1313:Drivers/STM32F4xx_HAL_Driver/Src/stm32f4xx_ll_usb.c ****   tmpreg &= USBx_DEVICE->DAINTMSK;
 3242              		.loc 1 1313 3 view .LVU1057
1313:Drivers/STM32F4xx_HAL_Driver/Src/stm32f4xx_ll_usb.c ****   tmpreg &= USBx_DEVICE->DAINTMSK;
 3243              		.loc 1 1313 11 is_stmt 0 view .LVU1058
 3244 0000 D0F81838 		ldr	r3, [r0, #2072]
1313:Drivers/STM32F4xx_HAL_Driver/Src/stm32f4xx_ll_usb.c ****   tmpreg &= USBx_DEVICE->DAINTMSK;
 3245              		.loc 1 1313 13 view .LVU1059
 3246 0004 00F50060 		add	r0, r0, #2048
 3247              	.LVL259:
1314:Drivers/STM32F4xx_HAL_Driver/Src/stm32f4xx_ll_usb.c **** 
 3248              		.loc 1 1314 3 is_stmt 1 view .LVU1060
1314:Drivers/STM32F4xx_HAL_Driver/Src/stm32f4xx_ll_usb.c **** 
 3249              		.loc 1 1314 24 is_stmt 0 view .LVU1061
 3250 0008 C069     		ldr	r0, [r0, #28]
 3251              	.LVL260:
1314:Drivers/STM32F4xx_HAL_Driver/Src/stm32f4xx_ll_usb.c **** 
 3252              		.loc 1 1314 10 view .LVU1062
 3253 000a 1840     		ands	r0, r0, r3
 3254              	.LVL261:
1316:Drivers/STM32F4xx_HAL_Driver/Src/stm32f4xx_ll_usb.c **** }
 3255              		.loc 1 1316 3 is_stmt 1 view .LVU1063
1317:Drivers/STM32F4xx_HAL_Driver/Src/stm32f4xx_ll_usb.c **** 
 3256              		.loc 1 1317 1 is_stmt 0 view .LVU1064
 3257 000c 000C     		lsrs	r0, r0, #16
 3258              	.LVL262:
1317:Drivers/STM32F4xx_HAL_Driver/Src/stm32f4xx_ll_usb.c **** 
 3259              		.loc 1 1317 1 view .LVU1065
 3260 000e 7047     		bx	lr
 3261              		.cfi_endproc
 3262              	.LFE156:
 3264              		.section	.text.USB_ReadDevAllInEpInterrupt,"ax",%progbits
 3265              		.align	1
 3266              		.global	USB_ReadDevAllInEpInterrupt
 3267              		.syntax unified
 3268              		.thumb
 3269              		.thumb_func
 3270              		.fpu fpv4-sp-d16
 3272              	USB_ReadDevAllInEpInterrupt:
 3273              	.LVL263:
 3274              	.LFB157:
1325:Drivers/STM32F4xx_HAL_Driver/Src/stm32f4xx_ll_usb.c ****   uint32_t USBx_BASE = (uint32_t)USBx;
 3275              		.loc 1 1325 1 is_stmt 1 view -0
 3276              		.cfi_startproc
 3277              		@ args = 0, pretend = 0, frame = 0
 3278              		@ frame_needed = 0, uses_anonymous_args = 0
 3279              		@ link register save eliminated.
1326:Drivers/STM32F4xx_HAL_Driver/Src/stm32f4xx_ll_usb.c ****   uint32_t tmpreg;
 3280              		.loc 1 1326 3 view .LVU1067
1327:Drivers/STM32F4xx_HAL_Driver/Src/stm32f4xx_ll_usb.c **** 
 3281              		.loc 1 1327 3 view .LVU1068
1329:Drivers/STM32F4xx_HAL_Driver/Src/stm32f4xx_ll_usb.c ****   tmpreg &= USBx_DEVICE->DAINTMSK;
 3282              		.loc 1 1329 3 view .LVU1069
ARM GAS  /tmp/ccfbcrWA.s 			page 102


1329:Drivers/STM32F4xx_HAL_Driver/Src/stm32f4xx_ll_usb.c ****   tmpreg &= USBx_DEVICE->DAINTMSK;
 3283              		.loc 1 1329 11 is_stmt 0 view .LVU1070
 3284 0000 D0F81838 		ldr	r3, [r0, #2072]
1329:Drivers/STM32F4xx_HAL_Driver/Src/stm32f4xx_ll_usb.c ****   tmpreg &= USBx_DEVICE->DAINTMSK;
 3285              		.loc 1 1329 13 view .LVU1071
 3286 0004 00F50060 		add	r0, r0, #2048
 3287              	.LVL264:
1330:Drivers/STM32F4xx_HAL_Driver/Src/stm32f4xx_ll_usb.c **** 
 3288              		.loc 1 1330 3 is_stmt 1 view .LVU1072
1330:Drivers/STM32F4xx_HAL_Driver/Src/stm32f4xx_ll_usb.c **** 
 3289              		.loc 1 1330 24 is_stmt 0 view .LVU1073
 3290 0008 C069     		ldr	r0, [r0, #28]
 3291              	.LVL265:
1330:Drivers/STM32F4xx_HAL_Driver/Src/stm32f4xx_ll_usb.c **** 
 3292              		.loc 1 1330 10 view .LVU1074
 3293 000a 1840     		ands	r0, r0, r3
 3294              	.LVL266:
1332:Drivers/STM32F4xx_HAL_Driver/Src/stm32f4xx_ll_usb.c **** }
 3295              		.loc 1 1332 3 is_stmt 1 view .LVU1075
1333:Drivers/STM32F4xx_HAL_Driver/Src/stm32f4xx_ll_usb.c **** 
 3296              		.loc 1 1333 1 is_stmt 0 view .LVU1076
 3297 000c 80B2     		uxth	r0, r0
 3298              	.LVL267:
1333:Drivers/STM32F4xx_HAL_Driver/Src/stm32f4xx_ll_usb.c **** 
 3299              		.loc 1 1333 1 view .LVU1077
 3300 000e 7047     		bx	lr
 3301              		.cfi_endproc
 3302              	.LFE157:
 3304              		.section	.text.USB_ReadDevOutEPInterrupt,"ax",%progbits
 3305              		.align	1
 3306              		.global	USB_ReadDevOutEPInterrupt
 3307              		.syntax unified
 3308              		.thumb
 3309              		.thumb_func
 3310              		.fpu fpv4-sp-d16
 3312              	USB_ReadDevOutEPInterrupt:
 3313              	.LVL268:
 3314              	.LFB158:
1343:Drivers/STM32F4xx_HAL_Driver/Src/stm32f4xx_ll_usb.c ****   uint32_t USBx_BASE = (uint32_t)USBx;
 3315              		.loc 1 1343 1 is_stmt 1 view -0
 3316              		.cfi_startproc
 3317              		@ args = 0, pretend = 0, frame = 0
 3318              		@ frame_needed = 0, uses_anonymous_args = 0
 3319              		@ link register save eliminated.
1344:Drivers/STM32F4xx_HAL_Driver/Src/stm32f4xx_ll_usb.c ****   uint32_t tmpreg;
 3320              		.loc 1 1344 3 view .LVU1079
1345:Drivers/STM32F4xx_HAL_Driver/Src/stm32f4xx_ll_usb.c **** 
 3321              		.loc 1 1345 3 view .LVU1080
1347:Drivers/STM32F4xx_HAL_Driver/Src/stm32f4xx_ll_usb.c ****   tmpreg &= USBx_DEVICE->DOEPMSK;
 3322              		.loc 1 1347 3 view .LVU1081
1347:Drivers/STM32F4xx_HAL_Driver/Src/stm32f4xx_ll_usb.c ****   tmpreg &= USBx_DEVICE->DOEPMSK;
 3323              		.loc 1 1347 13 is_stmt 0 view .LVU1082
 3324 0000 00EB4111 		add	r1, r0, r1, lsl #5
 3325              	.LVL269:
1347:Drivers/STM32F4xx_HAL_Driver/Src/stm32f4xx_ll_usb.c ****   tmpreg &= USBx_DEVICE->DOEPMSK;
 3326              		.loc 1 1347 11 view .LVU1083
 3327 0004 D1F8082B 		ldr	r2, [r1, #2824]
ARM GAS  /tmp/ccfbcrWA.s 			page 103


 3328              	.LVL270:
1348:Drivers/STM32F4xx_HAL_Driver/Src/stm32f4xx_ll_usb.c **** 
 3329              		.loc 1 1348 3 is_stmt 1 view .LVU1084
1348:Drivers/STM32F4xx_HAL_Driver/Src/stm32f4xx_ll_usb.c **** 
 3330              		.loc 1 1348 13 is_stmt 0 view .LVU1085
 3331 0008 00F50060 		add	r0, r0, #2048
 3332              	.LVL271:
1348:Drivers/STM32F4xx_HAL_Driver/Src/stm32f4xx_ll_usb.c **** 
 3333              		.loc 1 1348 24 view .LVU1086
 3334 000c 4069     		ldr	r0, [r0, #20]
 3335              	.LVL272:
1350:Drivers/STM32F4xx_HAL_Driver/Src/stm32f4xx_ll_usb.c **** }
 3336              		.loc 1 1350 3 is_stmt 1 view .LVU1087
1351:Drivers/STM32F4xx_HAL_Driver/Src/stm32f4xx_ll_usb.c **** 
 3337              		.loc 1 1351 1 is_stmt 0 view .LVU1088
 3338 000e 1040     		ands	r0, r0, r2
 3339              	.LVL273:
1351:Drivers/STM32F4xx_HAL_Driver/Src/stm32f4xx_ll_usb.c **** 
 3340              		.loc 1 1351 1 view .LVU1089
 3341 0010 7047     		bx	lr
 3342              		.cfi_endproc
 3343              	.LFE158:
 3345              		.section	.text.USB_ReadDevInEPInterrupt,"ax",%progbits
 3346              		.align	1
 3347              		.global	USB_ReadDevInEPInterrupt
 3348              		.syntax unified
 3349              		.thumb
 3350              		.thumb_func
 3351              		.fpu fpv4-sp-d16
 3353              	USB_ReadDevInEPInterrupt:
 3354              	.LVL274:
 3355              	.LFB159:
1361:Drivers/STM32F4xx_HAL_Driver/Src/stm32f4xx_ll_usb.c ****   uint32_t USBx_BASE = (uint32_t)USBx;
 3356              		.loc 1 1361 1 is_stmt 1 view -0
 3357              		.cfi_startproc
 3358              		@ args = 0, pretend = 0, frame = 0
 3359              		@ frame_needed = 0, uses_anonymous_args = 0
 3360              		@ link register save eliminated.
1361:Drivers/STM32F4xx_HAL_Driver/Src/stm32f4xx_ll_usb.c ****   uint32_t USBx_BASE = (uint32_t)USBx;
 3361              		.loc 1 1361 1 is_stmt 0 view .LVU1091
 3362 0000 10B4     		push	{r4}
 3363              	.LCFI41:
 3364              		.cfi_def_cfa_offset 4
 3365              		.cfi_offset 4, -4
1362:Drivers/STM32F4xx_HAL_Driver/Src/stm32f4xx_ll_usb.c ****   uint32_t tmpreg;
 3366              		.loc 1 1362 3 is_stmt 1 view .LVU1092
 3367              	.LVL275:
1363:Drivers/STM32F4xx_HAL_Driver/Src/stm32f4xx_ll_usb.c ****   uint32_t msk;
 3368              		.loc 1 1363 3 view .LVU1093
1364:Drivers/STM32F4xx_HAL_Driver/Src/stm32f4xx_ll_usb.c ****   uint32_t emp;
 3369              		.loc 1 1364 3 view .LVU1094
1365:Drivers/STM32F4xx_HAL_Driver/Src/stm32f4xx_ll_usb.c **** 
 3370              		.loc 1 1365 3 view .LVU1095
1367:Drivers/STM32F4xx_HAL_Driver/Src/stm32f4xx_ll_usb.c ****   emp = USBx_DEVICE->DIEPEMPMSK;
 3371              		.loc 1 1367 3 view .LVU1096
1367:Drivers/STM32F4xx_HAL_Driver/Src/stm32f4xx_ll_usb.c ****   emp = USBx_DEVICE->DIEPEMPMSK;
 3372              		.loc 1 1367 7 is_stmt 0 view .LVU1097
ARM GAS  /tmp/ccfbcrWA.s 			page 104


 3373 0002 D0F81048 		ldr	r4, [r0, #2064]
 3374              	.LVL276:
1368:Drivers/STM32F4xx_HAL_Driver/Src/stm32f4xx_ll_usb.c ****   msk |= ((emp >> (epnum & EP_ADDR_MSK)) & 0x1U) << 7;
 3375              		.loc 1 1368 3 is_stmt 1 view .LVU1098
1368:Drivers/STM32F4xx_HAL_Driver/Src/stm32f4xx_ll_usb.c ****   msk |= ((emp >> (epnum & EP_ADDR_MSK)) & 0x1U) << 7;
 3376              		.loc 1 1368 7 is_stmt 0 view .LVU1099
 3377 0006 D0F83438 		ldr	r3, [r0, #2100]
 3378              	.LVL277:
1369:Drivers/STM32F4xx_HAL_Driver/Src/stm32f4xx_ll_usb.c ****   tmpreg = USBx_INEP((uint32_t)epnum)->DIEPINT & msk;
 3379              		.loc 1 1369 3 is_stmt 1 view .LVU1100
1369:Drivers/STM32F4xx_HAL_Driver/Src/stm32f4xx_ll_usb.c ****   tmpreg = USBx_INEP((uint32_t)epnum)->DIEPINT & msk;
 3380              		.loc 1 1369 26 is_stmt 0 view .LVU1101
 3381 000a 01F00F02 		and	r2, r1, #15
1369:Drivers/STM32F4xx_HAL_Driver/Src/stm32f4xx_ll_usb.c ****   tmpreg = USBx_INEP((uint32_t)epnum)->DIEPINT & msk;
 3382              		.loc 1 1369 16 view .LVU1102
 3383 000e D340     		lsrs	r3, r3, r2
 3384              	.LVL278:
1369:Drivers/STM32F4xx_HAL_Driver/Src/stm32f4xx_ll_usb.c ****   tmpreg = USBx_INEP((uint32_t)epnum)->DIEPINT & msk;
 3385              		.loc 1 1369 50 view .LVU1103
 3386 0010 DB01     		lsls	r3, r3, #7
 3387 0012 DBB2     		uxtb	r3, r3
1369:Drivers/STM32F4xx_HAL_Driver/Src/stm32f4xx_ll_usb.c ****   tmpreg = USBx_INEP((uint32_t)epnum)->DIEPINT & msk;
 3388              		.loc 1 1369 7 view .LVU1104
 3389 0014 2343     		orrs	r3, r3, r4
 3390              	.LVL279:
1370:Drivers/STM32F4xx_HAL_Driver/Src/stm32f4xx_ll_usb.c **** 
 3391              		.loc 1 1370 3 is_stmt 1 view .LVU1105
1370:Drivers/STM32F4xx_HAL_Driver/Src/stm32f4xx_ll_usb.c **** 
 3392              		.loc 1 1370 12 is_stmt 0 view .LVU1106
 3393 0016 00EB4110 		add	r0, r0, r1, lsl #5
 3394              	.LVL280:
1370:Drivers/STM32F4xx_HAL_Driver/Src/stm32f4xx_ll_usb.c **** 
 3395              		.loc 1 1370 12 view .LVU1107
 3396 001a 00F51060 		add	r0, r0, #2304
1370:Drivers/STM32F4xx_HAL_Driver/Src/stm32f4xx_ll_usb.c **** 
 3397              		.loc 1 1370 38 view .LVU1108
 3398 001e 8068     		ldr	r0, [r0, #8]
 3399              	.LVL281:
1372:Drivers/STM32F4xx_HAL_Driver/Src/stm32f4xx_ll_usb.c **** }
 3400              		.loc 1 1372 3 is_stmt 1 view .LVU1109
1373:Drivers/STM32F4xx_HAL_Driver/Src/stm32f4xx_ll_usb.c **** 
 3401              		.loc 1 1373 1 is_stmt 0 view .LVU1110
 3402 0020 1840     		ands	r0, r0, r3
 3403              	.LVL282:
1373:Drivers/STM32F4xx_HAL_Driver/Src/stm32f4xx_ll_usb.c **** 
 3404              		.loc 1 1373 1 view .LVU1111
 3405 0022 5DF8044B 		ldr	r4, [sp], #4
 3406              	.LCFI42:
 3407              		.cfi_restore 4
 3408              		.cfi_def_cfa_offset 0
 3409 0026 7047     		bx	lr
 3410              		.cfi_endproc
 3411              	.LFE159:
 3413              		.section	.text.USB_ClearInterrupts,"ax",%progbits
 3414              		.align	1
 3415              		.global	USB_ClearInterrupts
 3416              		.syntax unified
ARM GAS  /tmp/ccfbcrWA.s 			page 105


 3417              		.thumb
 3418              		.thumb_func
 3419              		.fpu fpv4-sp-d16
 3421              	USB_ClearInterrupts:
 3422              	.LVL283:
 3423              	.LFB160:
1382:Drivers/STM32F4xx_HAL_Driver/Src/stm32f4xx_ll_usb.c ****   USBx->GINTSTS |= interrupt;
 3424              		.loc 1 1382 1 is_stmt 1 view -0
 3425              		.cfi_startproc
 3426              		@ args = 0, pretend = 0, frame = 0
 3427              		@ frame_needed = 0, uses_anonymous_args = 0
 3428              		@ link register save eliminated.
1383:Drivers/STM32F4xx_HAL_Driver/Src/stm32f4xx_ll_usb.c **** }
 3429              		.loc 1 1383 3 view .LVU1113
1383:Drivers/STM32F4xx_HAL_Driver/Src/stm32f4xx_ll_usb.c **** }
 3430              		.loc 1 1383 17 is_stmt 0 view .LVU1114
 3431 0000 4369     		ldr	r3, [r0, #20]
 3432 0002 0B43     		orrs	r3, r3, r1
 3433 0004 4361     		str	r3, [r0, #20]
1384:Drivers/STM32F4xx_HAL_Driver/Src/stm32f4xx_ll_usb.c **** 
 3434              		.loc 1 1384 1 view .LVU1115
 3435 0006 7047     		bx	lr
 3436              		.cfi_endproc
 3437              	.LFE160:
 3439              		.section	.text.USB_GetMode,"ax",%progbits
 3440              		.align	1
 3441              		.global	USB_GetMode
 3442              		.syntax unified
 3443              		.thumb
 3444              		.thumb_func
 3445              		.fpu fpv4-sp-d16
 3447              	USB_GetMode:
 3448              	.LVL284:
 3449              	.LFB161:
1395:Drivers/STM32F4xx_HAL_Driver/Src/stm32f4xx_ll_usb.c ****   return ((USBx->GINTSTS) & 0x1U);
 3450              		.loc 1 1395 1 is_stmt 1 view -0
 3451              		.cfi_startproc
 3452              		@ args = 0, pretend = 0, frame = 0
 3453              		@ frame_needed = 0, uses_anonymous_args = 0
 3454              		@ link register save eliminated.
1396:Drivers/STM32F4xx_HAL_Driver/Src/stm32f4xx_ll_usb.c **** }
 3455              		.loc 1 1396 3 view .LVU1117
1396:Drivers/STM32F4xx_HAL_Driver/Src/stm32f4xx_ll_usb.c **** }
 3456              		.loc 1 1396 16 is_stmt 0 view .LVU1118
 3457 0000 4069     		ldr	r0, [r0, #20]
 3458              	.LVL285:
1397:Drivers/STM32F4xx_HAL_Driver/Src/stm32f4xx_ll_usb.c **** 
 3459              		.loc 1 1397 1 view .LVU1119
 3460 0002 00F00100 		and	r0, r0, #1
 3461 0006 7047     		bx	lr
 3462              		.cfi_endproc
 3463              	.LFE161:
 3465              		.section	.text.USB_SetCurrentMode,"ax",%progbits
 3466              		.align	1
 3467              		.global	USB_SetCurrentMode
 3468              		.syntax unified
 3469              		.thumb
ARM GAS  /tmp/ccfbcrWA.s 			page 106


 3470              		.thumb_func
 3471              		.fpu fpv4-sp-d16
 3473              	USB_SetCurrentMode:
 3474              	.LVL286:
 3475              	.LFB134:
 250:Drivers/STM32F4xx_HAL_Driver/Src/stm32f4xx_ll_usb.c ****   uint32_t ms = 0U;
 3476              		.loc 1 250 1 is_stmt 1 view -0
 3477              		.cfi_startproc
 3478              		@ args = 0, pretend = 0, frame = 0
 3479              		@ frame_needed = 0, uses_anonymous_args = 0
 250:Drivers/STM32F4xx_HAL_Driver/Src/stm32f4xx_ll_usb.c ****   uint32_t ms = 0U;
 3480              		.loc 1 250 1 is_stmt 0 view .LVU1121
 3481 0000 38B5     		push	{r3, r4, r5, lr}
 3482              	.LCFI43:
 3483              		.cfi_def_cfa_offset 16
 3484              		.cfi_offset 3, -16
 3485              		.cfi_offset 4, -12
 3486              		.cfi_offset 5, -8
 3487              		.cfi_offset 14, -4
 3488 0002 0546     		mov	r5, r0
 251:Drivers/STM32F4xx_HAL_Driver/Src/stm32f4xx_ll_usb.c **** 
 3489              		.loc 1 251 3 is_stmt 1 view .LVU1122
 3490              	.LVL287:
 253:Drivers/STM32F4xx_HAL_Driver/Src/stm32f4xx_ll_usb.c **** 
 3491              		.loc 1 253 3 view .LVU1123
 253:Drivers/STM32F4xx_HAL_Driver/Src/stm32f4xx_ll_usb.c **** 
 3492              		.loc 1 253 17 is_stmt 0 view .LVU1124
 3493 0004 C368     		ldr	r3, [r0, #12]
 3494 0006 23F0C043 		bic	r3, r3, #1610612736
 3495 000a C360     		str	r3, [r0, #12]
 255:Drivers/STM32F4xx_HAL_Driver/Src/stm32f4xx_ll_usb.c ****   {
 3496              		.loc 1 255 3 is_stmt 1 view .LVU1125
 255:Drivers/STM32F4xx_HAL_Driver/Src/stm32f4xx_ll_usb.c ****   {
 3497              		.loc 1 255 6 is_stmt 0 view .LVU1126
 3498 000c 0129     		cmp	r1, #1
 3499 000e 13D0     		beq	.L225
 265:Drivers/STM32F4xx_HAL_Driver/Src/stm32f4xx_ll_usb.c ****   {
 3500              		.loc 1 265 8 is_stmt 1 view .LVU1127
 265:Drivers/STM32F4xx_HAL_Driver/Src/stm32f4xx_ll_usb.c ****   {
 3501              		.loc 1 265 11 is_stmt 0 view .LVU1128
 3502 0010 19BB     		cbnz	r1, .L222
 267:Drivers/STM32F4xx_HAL_Driver/Src/stm32f4xx_ll_usb.c **** 
 3503              		.loc 1 267 5 is_stmt 1 view .LVU1129
 267:Drivers/STM32F4xx_HAL_Driver/Src/stm32f4xx_ll_usb.c **** 
 3504              		.loc 1 267 19 is_stmt 0 view .LVU1130
 3505 0012 C368     		ldr	r3, [r0, #12]
 3506 0014 43F08043 		orr	r3, r3, #1073741824
 3507 0018 C360     		str	r3, [r0, #12]
 251:Drivers/STM32F4xx_HAL_Driver/Src/stm32f4xx_ll_usb.c **** 
 3508              		.loc 1 251 12 view .LVU1131
 3509 001a 0024     		movs	r4, #0
 3510              	.LVL288:
 3511              	.L221:
 269:Drivers/STM32F4xx_HAL_Driver/Src/stm32f4xx_ll_usb.c ****     {
 3512              		.loc 1 269 5 is_stmt 1 discriminator 2 view .LVU1132
 271:Drivers/STM32F4xx_HAL_Driver/Src/stm32f4xx_ll_usb.c ****       ms++;
 3513              		.loc 1 271 7 discriminator 2 view .LVU1133
ARM GAS  /tmp/ccfbcrWA.s 			page 107


 3514 001c 0120     		movs	r0, #1
 3515 001e FFF7FEFF 		bl	HAL_Delay
 3516              	.LVL289:
 272:Drivers/STM32F4xx_HAL_Driver/Src/stm32f4xx_ll_usb.c ****     } while ((USB_GetMode(USBx) != (uint32_t)USB_DEVICE_MODE) && (ms < 50U));
 3517              		.loc 1 272 7 discriminator 2 view .LVU1134
 272:Drivers/STM32F4xx_HAL_Driver/Src/stm32f4xx_ll_usb.c ****     } while ((USB_GetMode(USBx) != (uint32_t)USB_DEVICE_MODE) && (ms < 50U));
 3518              		.loc 1 272 9 is_stmt 0 discriminator 2 view .LVU1135
 3519 0022 0134     		adds	r4, r4, #1
 3520              	.LVL290:
 273:Drivers/STM32F4xx_HAL_Driver/Src/stm32f4xx_ll_usb.c ****   }
 3521              		.loc 1 273 13 is_stmt 1 discriminator 2 view .LVU1136
 273:Drivers/STM32F4xx_HAL_Driver/Src/stm32f4xx_ll_usb.c ****   }
 3522              		.loc 1 273 15 is_stmt 0 discriminator 2 view .LVU1137
 3523 0024 2846     		mov	r0, r5
 3524 0026 FFF7FEFF 		bl	USB_GetMode
 3525              	.LVL291:
 273:Drivers/STM32F4xx_HAL_Driver/Src/stm32f4xx_ll_usb.c ****   }
 3526              		.loc 1 273 5 discriminator 2 view .LVU1138
 3527 002a 08B1     		cbz	r0, .L218
 273:Drivers/STM32F4xx_HAL_Driver/Src/stm32f4xx_ll_usb.c ****   }
 3528              		.loc 1 273 63 discriminator 1 view .LVU1139
 3529 002c 312C     		cmp	r4, #49
 3530 002e F5D9     		bls	.L221
 3531              	.L218:
 280:Drivers/STM32F4xx_HAL_Driver/Src/stm32f4xx_ll_usb.c ****   {
 3532              		.loc 1 280 3 is_stmt 1 view .LVU1140
 280:Drivers/STM32F4xx_HAL_Driver/Src/stm32f4xx_ll_usb.c ****   {
 3533              		.loc 1 280 6 is_stmt 0 view .LVU1141
 3534 0030 322C     		cmp	r4, #50
 3535 0032 14D0     		beq	.L223
 285:Drivers/STM32F4xx_HAL_Driver/Src/stm32f4xx_ll_usb.c **** }
 3536              		.loc 1 285 10 view .LVU1142
 3537 0034 0020     		movs	r0, #0
 3538              	.LVL292:
 3539              	.L220:
 286:Drivers/STM32F4xx_HAL_Driver/Src/stm32f4xx_ll_usb.c **** 
 3540              		.loc 1 286 1 view .LVU1143
 3541 0036 38BD     		pop	{r3, r4, r5, pc}
 3542              	.LVL293:
 3543              	.L225:
 257:Drivers/STM32F4xx_HAL_Driver/Src/stm32f4xx_ll_usb.c **** 
 3544              		.loc 1 257 5 is_stmt 1 view .LVU1144
 257:Drivers/STM32F4xx_HAL_Driver/Src/stm32f4xx_ll_usb.c **** 
 3545              		.loc 1 257 19 is_stmt 0 view .LVU1145
 3546 0038 C368     		ldr	r3, [r0, #12]
 3547 003a 43F00053 		orr	r3, r3, #536870912
 3548 003e C360     		str	r3, [r0, #12]
 251:Drivers/STM32F4xx_HAL_Driver/Src/stm32f4xx_ll_usb.c **** 
 3549              		.loc 1 251 12 view .LVU1146
 3550 0040 0024     		movs	r4, #0
 3551              	.LVL294:
 3552              	.L219:
 259:Drivers/STM32F4xx_HAL_Driver/Src/stm32f4xx_ll_usb.c ****     {
 3553              		.loc 1 259 5 is_stmt 1 discriminator 2 view .LVU1147
 261:Drivers/STM32F4xx_HAL_Driver/Src/stm32f4xx_ll_usb.c ****       ms++;
 3554              		.loc 1 261 7 discriminator 2 view .LVU1148
 3555 0042 0120     		movs	r0, #1
ARM GAS  /tmp/ccfbcrWA.s 			page 108


 3556 0044 FFF7FEFF 		bl	HAL_Delay
 3557              	.LVL295:
 262:Drivers/STM32F4xx_HAL_Driver/Src/stm32f4xx_ll_usb.c ****     } while ((USB_GetMode(USBx) != (uint32_t)USB_HOST_MODE) && (ms < 50U));
 3558              		.loc 1 262 7 discriminator 2 view .LVU1149
 262:Drivers/STM32F4xx_HAL_Driver/Src/stm32f4xx_ll_usb.c ****     } while ((USB_GetMode(USBx) != (uint32_t)USB_HOST_MODE) && (ms < 50U));
 3559              		.loc 1 262 9 is_stmt 0 discriminator 2 view .LVU1150
 3560 0048 0134     		adds	r4, r4, #1
 3561              	.LVL296:
 263:Drivers/STM32F4xx_HAL_Driver/Src/stm32f4xx_ll_usb.c ****   }
 3562              		.loc 1 263 13 is_stmt 1 discriminator 2 view .LVU1151
 263:Drivers/STM32F4xx_HAL_Driver/Src/stm32f4xx_ll_usb.c ****   }
 3563              		.loc 1 263 15 is_stmt 0 discriminator 2 view .LVU1152
 3564 004a 2846     		mov	r0, r5
 3565 004c FFF7FEFF 		bl	USB_GetMode
 3566              	.LVL297:
 263:Drivers/STM32F4xx_HAL_Driver/Src/stm32f4xx_ll_usb.c ****   }
 3567              		.loc 1 263 5 discriminator 2 view .LVU1153
 3568 0050 0128     		cmp	r0, #1
 3569 0052 EDD0     		beq	.L218
 263:Drivers/STM32F4xx_HAL_Driver/Src/stm32f4xx_ll_usb.c ****   }
 3570              		.loc 1 263 61 discriminator 1 view .LVU1154
 3571 0054 312C     		cmp	r4, #49
 3572 0056 F4D9     		bls	.L219
 3573 0058 EAE7     		b	.L218
 3574              	.LVL298:
 3575              	.L222:
 277:Drivers/STM32F4xx_HAL_Driver/Src/stm32f4xx_ll_usb.c ****   }
 3576              		.loc 1 277 12 view .LVU1155
 3577 005a 0120     		movs	r0, #1
 3578              	.LVL299:
 277:Drivers/STM32F4xx_HAL_Driver/Src/stm32f4xx_ll_usb.c ****   }
 3579              		.loc 1 277 12 view .LVU1156
 3580 005c EBE7     		b	.L220
 3581              	.LVL300:
 3582              	.L223:
 282:Drivers/STM32F4xx_HAL_Driver/Src/stm32f4xx_ll_usb.c ****   }
 3583              		.loc 1 282 12 view .LVU1157
 3584 005e 0120     		movs	r0, #1
 3585 0060 E9E7     		b	.L220
 3586              		.cfi_endproc
 3587              	.LFE134:
 3589              		.section	.text.USB_ActivateSetup,"ax",%progbits
 3590              		.align	1
 3591              		.global	USB_ActivateSetup
 3592              		.syntax unified
 3593              		.thumb
 3594              		.thumb_func
 3595              		.fpu fpv4-sp-d16
 3597              	USB_ActivateSetup:
 3598              	.LVL301:
 3599              	.LFB162:
1405:Drivers/STM32F4xx_HAL_Driver/Src/stm32f4xx_ll_usb.c ****   uint32_t USBx_BASE = (uint32_t)USBx;
 3600              		.loc 1 1405 1 is_stmt 1 view -0
 3601              		.cfi_startproc
 3602              		@ args = 0, pretend = 0, frame = 0
 3603              		@ frame_needed = 0, uses_anonymous_args = 0
 3604              		@ link register save eliminated.
ARM GAS  /tmp/ccfbcrWA.s 			page 109


1406:Drivers/STM32F4xx_HAL_Driver/Src/stm32f4xx_ll_usb.c **** 
 3605              		.loc 1 1406 3 view .LVU1159
1409:Drivers/STM32F4xx_HAL_Driver/Src/stm32f4xx_ll_usb.c **** 
 3606              		.loc 1 1409 3 view .LVU1160
1409:Drivers/STM32F4xx_HAL_Driver/Src/stm32f4xx_ll_usb.c **** 
 3607              		.loc 1 1409 26 is_stmt 0 view .LVU1161
 3608 0000 D0F80039 		ldr	r3, [r0, #2304]
 3609 0004 23F4FF63 		bic	r3, r3, #2040
 3610 0008 23F00703 		bic	r3, r3, #7
 3611 000c C0F80039 		str	r3, [r0, #2304]
1411:Drivers/STM32F4xx_HAL_Driver/Src/stm32f4xx_ll_usb.c **** 
 3612              		.loc 1 1411 3 is_stmt 1 view .LVU1162
1411:Drivers/STM32F4xx_HAL_Driver/Src/stm32f4xx_ll_usb.c **** 
 3613              		.loc 1 1411 21 is_stmt 0 view .LVU1163
 3614 0010 D0F80438 		ldr	r3, [r0, #2052]
 3615 0014 43F48073 		orr	r3, r3, #256
 3616 0018 C0F80438 		str	r3, [r0, #2052]
1413:Drivers/STM32F4xx_HAL_Driver/Src/stm32f4xx_ll_usb.c **** }
 3617              		.loc 1 1413 3 is_stmt 1 view .LVU1164
1414:Drivers/STM32F4xx_HAL_Driver/Src/stm32f4xx_ll_usb.c **** 
 3618              		.loc 1 1414 1 is_stmt 0 view .LVU1165
 3619 001c 0020     		movs	r0, #0
 3620              	.LVL302:
1414:Drivers/STM32F4xx_HAL_Driver/Src/stm32f4xx_ll_usb.c **** 
 3621              		.loc 1 1414 1 view .LVU1166
 3622 001e 7047     		bx	lr
 3623              		.cfi_endproc
 3624              	.LFE162:
 3626              		.section	.text.USB_EP0_OutStart,"ax",%progbits
 3627              		.align	1
 3628              		.global	USB_EP0_OutStart
 3629              		.syntax unified
 3630              		.thumb
 3631              		.thumb_func
 3632              		.fpu fpv4-sp-d16
 3634              	USB_EP0_OutStart:
 3635              	.LVL303:
 3636              	.LFB163:
1427:Drivers/STM32F4xx_HAL_Driver/Src/stm32f4xx_ll_usb.c ****   uint32_t USBx_BASE = (uint32_t)USBx;
 3637              		.loc 1 1427 1 is_stmt 1 view -0
 3638              		.cfi_startproc
 3639              		@ args = 0, pretend = 0, frame = 0
 3640              		@ frame_needed = 0, uses_anonymous_args = 0
 3641              		@ link register save eliminated.
1427:Drivers/STM32F4xx_HAL_Driver/Src/stm32f4xx_ll_usb.c ****   uint32_t USBx_BASE = (uint32_t)USBx;
 3642              		.loc 1 1427 1 is_stmt 0 view .LVU1168
 3643 0000 10B4     		push	{r4}
 3644              	.LCFI44:
 3645              		.cfi_def_cfa_offset 4
 3646              		.cfi_offset 4, -4
1428:Drivers/STM32F4xx_HAL_Driver/Src/stm32f4xx_ll_usb.c ****   uint32_t gSNPSiD = *(__IO uint32_t *)(&USBx->CID + 0x1U);
 3647              		.loc 1 1428 3 is_stmt 1 view .LVU1169
 3648              	.LVL304:
1429:Drivers/STM32F4xx_HAL_Driver/Src/stm32f4xx_ll_usb.c **** 
 3649              		.loc 1 1429 3 view .LVU1170
1429:Drivers/STM32F4xx_HAL_Driver/Src/stm32f4xx_ll_usb.c **** 
 3650              		.loc 1 1429 12 is_stmt 0 view .LVU1171
ARM GAS  /tmp/ccfbcrWA.s 			page 110


 3651 0002 046C     		ldr	r4, [r0, #64]
 3652              	.LVL305:
1431:Drivers/STM32F4xx_HAL_Driver/Src/stm32f4xx_ll_usb.c ****   {
 3653              		.loc 1 1431 3 is_stmt 1 view .LVU1172
1431:Drivers/STM32F4xx_HAL_Driver/Src/stm32f4xx_ll_usb.c ****   {
 3654              		.loc 1 1431 6 is_stmt 0 view .LVU1173
 3655 0004 154B     		ldr	r3, .L232
 3656 0006 9C42     		cmp	r4, r3
 3657 0008 03D9     		bls	.L228
1433:Drivers/STM32F4xx_HAL_Driver/Src/stm32f4xx_ll_usb.c ****     {
 3658              		.loc 1 1433 5 is_stmt 1 view .LVU1174
1433:Drivers/STM32F4xx_HAL_Driver/Src/stm32f4xx_ll_usb.c ****     {
 3659              		.loc 1 1433 24 is_stmt 0 view .LVU1175
 3660 000a D0F8003B 		ldr	r3, [r0, #2816]
1433:Drivers/STM32F4xx_HAL_Driver/Src/stm32f4xx_ll_usb.c ****     {
 3661              		.loc 1 1433 8 view .LVU1176
 3662 000e 002B     		cmp	r3, #0
 3663 0010 16DB     		blt	.L229
 3664              	.L228:
1439:Drivers/STM32F4xx_HAL_Driver/Src/stm32f4xx_ll_usb.c ****   USBx_OUTEP(0U)->DOEPTSIZ |= (USB_OTG_DOEPTSIZ_PKTCNT & (1U << 19));
 3665              		.loc 1 1439 3 is_stmt 1 view .LVU1177
1439:Drivers/STM32F4xx_HAL_Driver/Src/stm32f4xx_ll_usb.c ****   USBx_OUTEP(0U)->DOEPTSIZ |= (USB_OTG_DOEPTSIZ_PKTCNT & (1U << 19));
 3666              		.loc 1 1439 28 is_stmt 0 view .LVU1178
 3667 0012 0024     		movs	r4, #0
 3668              	.LVL306:
1439:Drivers/STM32F4xx_HAL_Driver/Src/stm32f4xx_ll_usb.c ****   USBx_OUTEP(0U)->DOEPTSIZ |= (USB_OTG_DOEPTSIZ_PKTCNT & (1U << 19));
 3669              		.loc 1 1439 28 view .LVU1179
 3670 0014 C0F8104B 		str	r4, [r0, #2832]
1440:Drivers/STM32F4xx_HAL_Driver/Src/stm32f4xx_ll_usb.c ****   USBx_OUTEP(0U)->DOEPTSIZ |= (3U * 8U);
 3671              		.loc 1 1440 3 is_stmt 1 view .LVU1180
1440:Drivers/STM32F4xx_HAL_Driver/Src/stm32f4xx_ll_usb.c ****   USBx_OUTEP(0U)->DOEPTSIZ |= (3U * 8U);
 3672              		.loc 1 1440 28 is_stmt 0 view .LVU1181
 3673 0018 D0F8104B 		ldr	r4, [r0, #2832]
 3674 001c 44F40024 		orr	r4, r4, #524288
 3675 0020 C0F8104B 		str	r4, [r0, #2832]
1441:Drivers/STM32F4xx_HAL_Driver/Src/stm32f4xx_ll_usb.c ****   USBx_OUTEP(0U)->DOEPTSIZ |=  USB_OTG_DOEPTSIZ_STUPCNT;
 3676              		.loc 1 1441 3 is_stmt 1 view .LVU1182
1441:Drivers/STM32F4xx_HAL_Driver/Src/stm32f4xx_ll_usb.c ****   USBx_OUTEP(0U)->DOEPTSIZ |=  USB_OTG_DOEPTSIZ_STUPCNT;
 3677              		.loc 1 1441 28 is_stmt 0 view .LVU1183
 3678 0024 D0F8104B 		ldr	r4, [r0, #2832]
 3679 0028 44F01804 		orr	r4, r4, #24
 3680 002c C0F8104B 		str	r4, [r0, #2832]
1442:Drivers/STM32F4xx_HAL_Driver/Src/stm32f4xx_ll_usb.c **** 
 3681              		.loc 1 1442 3 is_stmt 1 view .LVU1184
1442:Drivers/STM32F4xx_HAL_Driver/Src/stm32f4xx_ll_usb.c **** 
 3682              		.loc 1 1442 28 is_stmt 0 view .LVU1185
 3683 0030 D0F8104B 		ldr	r4, [r0, #2832]
 3684 0034 44F0C044 		orr	r4, r4, #1610612736
 3685 0038 C0F8104B 		str	r4, [r0, #2832]
1444:Drivers/STM32F4xx_HAL_Driver/Src/stm32f4xx_ll_usb.c ****   {
 3686              		.loc 1 1444 3 is_stmt 1 view .LVU1186
1444:Drivers/STM32F4xx_HAL_Driver/Src/stm32f4xx_ll_usb.c ****   {
 3687              		.loc 1 1444 6 is_stmt 0 view .LVU1187
 3688 003c 0129     		cmp	r1, #1
 3689 003e 03D0     		beq	.L231
 3690              	.L229:
1452:Drivers/STM32F4xx_HAL_Driver/Src/stm32f4xx_ll_usb.c **** 
ARM GAS  /tmp/ccfbcrWA.s 			page 111


 3691              		.loc 1 1452 1 view .LVU1188
 3692 0040 0020     		movs	r0, #0
 3693              	.LVL307:
1452:Drivers/STM32F4xx_HAL_Driver/Src/stm32f4xx_ll_usb.c **** 
 3694              		.loc 1 1452 1 view .LVU1189
 3695 0042 5DF8044B 		ldr	r4, [sp], #4
 3696              	.LCFI45:
 3697              		.cfi_remember_state
 3698              		.cfi_restore 4
 3699              		.cfi_def_cfa_offset 0
 3700 0046 7047     		bx	lr
 3701              	.LVL308:
 3702              	.L231:
 3703              	.LCFI46:
 3704              		.cfi_restore_state
1446:Drivers/STM32F4xx_HAL_Driver/Src/stm32f4xx_ll_usb.c ****     /* EP enable */
 3705              		.loc 1 1446 5 is_stmt 1 view .LVU1190
1446:Drivers/STM32F4xx_HAL_Driver/Src/stm32f4xx_ll_usb.c ****     /* EP enable */
 3706              		.loc 1 1446 29 is_stmt 0 view .LVU1191
 3707 0048 C0F8142B 		str	r2, [r0, #2836]
1448:Drivers/STM32F4xx_HAL_Driver/Src/stm32f4xx_ll_usb.c ****   }
 3708              		.loc 1 1448 5 is_stmt 1 view .LVU1192
1448:Drivers/STM32F4xx_HAL_Driver/Src/stm32f4xx_ll_usb.c ****   }
 3709              		.loc 1 1448 29 is_stmt 0 view .LVU1193
 3710 004c D0F8003B 		ldr	r3, [r0, #2816]
 3711 0050 43F08023 		orr	r3, r3, #-2147450880
 3712 0054 C0F8003B 		str	r3, [r0, #2816]
 3713 0058 F2E7     		b	.L229
 3714              	.L233:
 3715 005a 00BF     		.align	2
 3716              	.L232:
 3717 005c 0A30544F 		.word	1330917386
 3718              		.cfi_endproc
 3719              	.LFE163:
 3721              		.section	.text.USB_HostInit,"ax",%progbits
 3722              		.align	1
 3723              		.global	USB_HostInit
 3724              		.syntax unified
 3725              		.thumb
 3726              		.thumb_func
 3727              		.fpu fpv4-sp-d16
 3729              	USB_HostInit:
 3730              	.LVL309:
 3731              	.LFB165:
1490:Drivers/STM32F4xx_HAL_Driver/Src/stm32f4xx_ll_usb.c **** 
1491:Drivers/STM32F4xx_HAL_Driver/Src/stm32f4xx_ll_usb.c **** /**
1492:Drivers/STM32F4xx_HAL_Driver/Src/stm32f4xx_ll_usb.c ****   * @brief  USB_HostInit : Initializes the USB OTG controller registers
1493:Drivers/STM32F4xx_HAL_Driver/Src/stm32f4xx_ll_usb.c ****   *         for Host mode
1494:Drivers/STM32F4xx_HAL_Driver/Src/stm32f4xx_ll_usb.c ****   * @param  USBx  Selected device
1495:Drivers/STM32F4xx_HAL_Driver/Src/stm32f4xx_ll_usb.c ****   * @param  cfg   pointer to a USB_OTG_CfgTypeDef structure that contains
1496:Drivers/STM32F4xx_HAL_Driver/Src/stm32f4xx_ll_usb.c ****   *         the configuration information for the specified USBx peripheral.
1497:Drivers/STM32F4xx_HAL_Driver/Src/stm32f4xx_ll_usb.c ****   * @retval HAL status
1498:Drivers/STM32F4xx_HAL_Driver/Src/stm32f4xx_ll_usb.c ****   */
1499:Drivers/STM32F4xx_HAL_Driver/Src/stm32f4xx_ll_usb.c **** HAL_StatusTypeDef USB_HostInit(USB_OTG_GlobalTypeDef *USBx, USB_OTG_CfgTypeDef cfg)
1500:Drivers/STM32F4xx_HAL_Driver/Src/stm32f4xx_ll_usb.c **** {
 3732              		.loc 1 1500 1 is_stmt 1 view -0
 3733              		.cfi_startproc
ARM GAS  /tmp/ccfbcrWA.s 			page 112


 3734              		@ args = 56, pretend = 16, frame = 0
 3735              		@ frame_needed = 0, uses_anonymous_args = 0
 3736              		.loc 1 1500 1 is_stmt 0 view .LVU1195
 3737 0000 84B0     		sub	sp, sp, #16
 3738              	.LCFI47:
 3739              		.cfi_def_cfa_offset 16
 3740 0002 38B5     		push	{r3, r4, r5, lr}
 3741              	.LCFI48:
 3742              		.cfi_def_cfa_offset 32
 3743              		.cfi_offset 3, -32
 3744              		.cfi_offset 4, -28
 3745              		.cfi_offset 5, -24
 3746              		.cfi_offset 14, -20
 3747 0004 0446     		mov	r4, r0
 3748 0006 05A8     		add	r0, sp, #20
 3749 0008 80E80E00 		stm	r0, {r1, r2, r3}
1501:Drivers/STM32F4xx_HAL_Driver/Src/stm32f4xx_ll_usb.c ****   HAL_StatusTypeDef ret = HAL_OK;
 3750              		.loc 1 1501 3 is_stmt 1 view .LVU1196
 3751              	.LVL310:
1502:Drivers/STM32F4xx_HAL_Driver/Src/stm32f4xx_ll_usb.c ****   uint32_t USBx_BASE = (uint32_t)USBx;
 3752              		.loc 1 1502 3 view .LVU1197
1503:Drivers/STM32F4xx_HAL_Driver/Src/stm32f4xx_ll_usb.c ****   uint32_t i;
 3753              		.loc 1 1503 3 view .LVU1198
1504:Drivers/STM32F4xx_HAL_Driver/Src/stm32f4xx_ll_usb.c **** 
1505:Drivers/STM32F4xx_HAL_Driver/Src/stm32f4xx_ll_usb.c ****   /* Restart the Phy Clock */
1506:Drivers/STM32F4xx_HAL_Driver/Src/stm32f4xx_ll_usb.c ****   USBx_PCGCCTL = 0U;
 3754              		.loc 1 1506 3 view .LVU1199
 3755              		.loc 1 1506 16 is_stmt 0 view .LVU1200
 3756 000c 0023     		movs	r3, #0
 3757 000e C4F8003E 		str	r3, [r4, #3584]
1507:Drivers/STM32F4xx_HAL_Driver/Src/stm32f4xx_ll_usb.c **** 
1508:Drivers/STM32F4xx_HAL_Driver/Src/stm32f4xx_ll_usb.c **** #if defined(STM32F446xx) || defined(STM32F469xx) || defined(STM32F479xx) || defined(STM32F412Zx) ||
1509:Drivers/STM32F4xx_HAL_Driver/Src/stm32f4xx_ll_usb.c ****   /* Disable HW VBUS sensing */
1510:Drivers/STM32F4xx_HAL_Driver/Src/stm32f4xx_ll_usb.c ****   USBx->GCCFG &= ~(USB_OTG_GCCFG_VBDEN);
1511:Drivers/STM32F4xx_HAL_Driver/Src/stm32f4xx_ll_usb.c **** #else
1512:Drivers/STM32F4xx_HAL_Driver/Src/stm32f4xx_ll_usb.c ****   /*
1513:Drivers/STM32F4xx_HAL_Driver/Src/stm32f4xx_ll_usb.c ****   * Disable HW VBUS sensing. VBUS is internally considered to be always
1514:Drivers/STM32F4xx_HAL_Driver/Src/stm32f4xx_ll_usb.c ****   * at VBUS-Valid level (5V).
1515:Drivers/STM32F4xx_HAL_Driver/Src/stm32f4xx_ll_usb.c ****   */
1516:Drivers/STM32F4xx_HAL_Driver/Src/stm32f4xx_ll_usb.c ****   USBx->GCCFG |= USB_OTG_GCCFG_NOVBUSSENS;
 3758              		.loc 1 1516 3 is_stmt 1 view .LVU1201
 3759              		.loc 1 1516 15 is_stmt 0 view .LVU1202
 3760 0012 A36B     		ldr	r3, [r4, #56]
 3761 0014 43F40013 		orr	r3, r3, #2097152
 3762 0018 A363     		str	r3, [r4, #56]
1517:Drivers/STM32F4xx_HAL_Driver/Src/stm32f4xx_ll_usb.c ****   USBx->GCCFG &= ~USB_OTG_GCCFG_VBUSBSEN;
 3763              		.loc 1 1517 3 is_stmt 1 view .LVU1203
 3764              		.loc 1 1517 15 is_stmt 0 view .LVU1204
 3765 001a A36B     		ldr	r3, [r4, #56]
 3766 001c 23F40023 		bic	r3, r3, #524288
 3767 0020 A363     		str	r3, [r4, #56]
1518:Drivers/STM32F4xx_HAL_Driver/Src/stm32f4xx_ll_usb.c ****   USBx->GCCFG &= ~USB_OTG_GCCFG_VBUSASEN;
 3768              		.loc 1 1518 3 is_stmt 1 view .LVU1205
 3769              		.loc 1 1518 15 is_stmt 0 view .LVU1206
 3770 0022 A36B     		ldr	r3, [r4, #56]
 3771 0024 23F48023 		bic	r3, r3, #262144
 3772 0028 A363     		str	r3, [r4, #56]
ARM GAS  /tmp/ccfbcrWA.s 			page 113


1519:Drivers/STM32F4xx_HAL_Driver/Src/stm32f4xx_ll_usb.c **** #endif /* defined(STM32F446xx) || defined(STM32F469xx) || defined(STM32F479xx) || defined(STM32F412
1520:Drivers/STM32F4xx_HAL_Driver/Src/stm32f4xx_ll_usb.c **** #if defined(STM32F412Zx) || defined(STM32F412Vx) || defined(STM32F412Rx) || defined(STM32F412Cx) ||
1521:Drivers/STM32F4xx_HAL_Driver/Src/stm32f4xx_ll_usb.c ****   /* Disable Battery chargin detector */
1522:Drivers/STM32F4xx_HAL_Driver/Src/stm32f4xx_ll_usb.c ****   USBx->GCCFG &= ~(USB_OTG_GCCFG_BCDEN);
1523:Drivers/STM32F4xx_HAL_Driver/Src/stm32f4xx_ll_usb.c **** #endif /* defined(STM32F412Zx) || defined(STM32F412Vx) || defined(STM32F412Rx) || defined(STM32F412
1524:Drivers/STM32F4xx_HAL_Driver/Src/stm32f4xx_ll_usb.c **** 
1525:Drivers/STM32F4xx_HAL_Driver/Src/stm32f4xx_ll_usb.c ****   if ((USBx->CID & (0x1U << 8)) != 0U)
 3773              		.loc 1 1525 3 is_stmt 1 view .LVU1207
 3774              		.loc 1 1525 12 is_stmt 0 view .LVU1208
 3775 002a E36B     		ldr	r3, [r4, #60]
 3776              		.loc 1 1525 6 view .LVU1209
 3777 002c 13F4807F 		tst	r3, #256
 3778 0030 10D0     		beq	.L235
1526:Drivers/STM32F4xx_HAL_Driver/Src/stm32f4xx_ll_usb.c ****   {
1527:Drivers/STM32F4xx_HAL_Driver/Src/stm32f4xx_ll_usb.c ****     if (cfg.speed == USBH_FSLS_SPEED)
 3779              		.loc 1 1527 5 is_stmt 1 view .LVU1210
 3780              		.loc 1 1527 12 is_stmt 0 view .LVU1211
 3781 0032 079B     		ldr	r3, [sp, #28]
 3782              		.loc 1 1527 8 view .LVU1212
 3783 0034 012B     		cmp	r3, #1
 3784 0036 06D0     		beq	.L248
1528:Drivers/STM32F4xx_HAL_Driver/Src/stm32f4xx_ll_usb.c ****     {
1529:Drivers/STM32F4xx_HAL_Driver/Src/stm32f4xx_ll_usb.c ****       /* Force Device Enumeration to FS/LS mode only */
1530:Drivers/STM32F4xx_HAL_Driver/Src/stm32f4xx_ll_usb.c ****       USBx_HOST->HCFG |= USB_OTG_HCFG_FSLSS;
1531:Drivers/STM32F4xx_HAL_Driver/Src/stm32f4xx_ll_usb.c ****     }
1532:Drivers/STM32F4xx_HAL_Driver/Src/stm32f4xx_ll_usb.c ****     else
1533:Drivers/STM32F4xx_HAL_Driver/Src/stm32f4xx_ll_usb.c ****     {
1534:Drivers/STM32F4xx_HAL_Driver/Src/stm32f4xx_ll_usb.c ****       /* Set default Max speed support */
1535:Drivers/STM32F4xx_HAL_Driver/Src/stm32f4xx_ll_usb.c ****       USBx_HOST->HCFG &= ~(USB_OTG_HCFG_FSLSS);
 3785              		.loc 1 1535 7 is_stmt 1 view .LVU1213
 3786              		.loc 1 1535 23 is_stmt 0 view .LVU1214
 3787 0038 D4F80034 		ldr	r3, [r4, #1024]
 3788 003c 23F00403 		bic	r3, r3, #4
 3789 0040 C4F80034 		str	r3, [r4, #1024]
 3790 0044 0CE0     		b	.L237
 3791              	.L248:
1530:Drivers/STM32F4xx_HAL_Driver/Src/stm32f4xx_ll_usb.c ****     }
 3792              		.loc 1 1530 7 is_stmt 1 view .LVU1215
1530:Drivers/STM32F4xx_HAL_Driver/Src/stm32f4xx_ll_usb.c ****     }
 3793              		.loc 1 1530 23 is_stmt 0 view .LVU1216
 3794 0046 D4F80034 		ldr	r3, [r4, #1024]
 3795 004a 43F00403 		orr	r3, r3, #4
 3796 004e C4F80034 		str	r3, [r4, #1024]
 3797 0052 05E0     		b	.L237
 3798              	.L235:
1536:Drivers/STM32F4xx_HAL_Driver/Src/stm32f4xx_ll_usb.c ****     }
1537:Drivers/STM32F4xx_HAL_Driver/Src/stm32f4xx_ll_usb.c ****   }
1538:Drivers/STM32F4xx_HAL_Driver/Src/stm32f4xx_ll_usb.c ****   else
1539:Drivers/STM32F4xx_HAL_Driver/Src/stm32f4xx_ll_usb.c ****   {
1540:Drivers/STM32F4xx_HAL_Driver/Src/stm32f4xx_ll_usb.c ****     /* Set default Max speed support */
1541:Drivers/STM32F4xx_HAL_Driver/Src/stm32f4xx_ll_usb.c ****     USBx_HOST->HCFG &= ~(USB_OTG_HCFG_FSLSS);
 3799              		.loc 1 1541 5 is_stmt 1 view .LVU1217
 3800              		.loc 1 1541 21 is_stmt 0 view .LVU1218
 3801 0054 D4F80034 		ldr	r3, [r4, #1024]
 3802 0058 23F00403 		bic	r3, r3, #4
 3803 005c C4F80034 		str	r3, [r4, #1024]
 3804              	.L237:
ARM GAS  /tmp/ccfbcrWA.s 			page 114


1542:Drivers/STM32F4xx_HAL_Driver/Src/stm32f4xx_ll_usb.c ****   }
1543:Drivers/STM32F4xx_HAL_Driver/Src/stm32f4xx_ll_usb.c **** 
1544:Drivers/STM32F4xx_HAL_Driver/Src/stm32f4xx_ll_usb.c ****   /* Make sure the FIFOs are flushed. */
1545:Drivers/STM32F4xx_HAL_Driver/Src/stm32f4xx_ll_usb.c ****   if (USB_FlushTxFifo(USBx, 0x10U) != HAL_OK) /* all Tx FIFOs */
 3805              		.loc 1 1545 3 is_stmt 1 view .LVU1219
 3806              		.loc 1 1545 7 is_stmt 0 view .LVU1220
 3807 0060 1021     		movs	r1, #16
 3808 0062 2046     		mov	r0, r4
 3809              	.LVL311:
 3810              		.loc 1 1545 7 view .LVU1221
 3811 0064 FFF7FEFF 		bl	USB_FlushTxFifo
 3812              	.LVL312:
 3813              		.loc 1 1545 6 view .LVU1222
 3814 0068 0546     		mov	r5, r0
 3815 006a 00B1     		cbz	r0, .L238
1546:Drivers/STM32F4xx_HAL_Driver/Src/stm32f4xx_ll_usb.c ****   {
1547:Drivers/STM32F4xx_HAL_Driver/Src/stm32f4xx_ll_usb.c ****     ret = HAL_ERROR;
 3816              		.loc 1 1547 9 view .LVU1223
 3817 006c 0125     		movs	r5, #1
 3818              	.L238:
 3819              	.LVL313:
1548:Drivers/STM32F4xx_HAL_Driver/Src/stm32f4xx_ll_usb.c ****   }
1549:Drivers/STM32F4xx_HAL_Driver/Src/stm32f4xx_ll_usb.c **** 
1550:Drivers/STM32F4xx_HAL_Driver/Src/stm32f4xx_ll_usb.c ****   if (USB_FlushRxFifo(USBx) != HAL_OK)
 3820              		.loc 1 1550 3 is_stmt 1 view .LVU1224
 3821              		.loc 1 1550 7 is_stmt 0 view .LVU1225
 3822 006e 2046     		mov	r0, r4
 3823 0070 FFF7FEFF 		bl	USB_FlushRxFifo
 3824              	.LVL314:
 3825              		.loc 1 1550 6 view .LVU1226
 3826 0074 00B1     		cbz	r0, .L239
1551:Drivers/STM32F4xx_HAL_Driver/Src/stm32f4xx_ll_usb.c ****   {
1552:Drivers/STM32F4xx_HAL_Driver/Src/stm32f4xx_ll_usb.c ****     ret = HAL_ERROR;
 3827              		.loc 1 1552 9 view .LVU1227
 3828 0076 0125     		movs	r5, #1
 3829              	.LVL315:
 3830              	.L239:
1553:Drivers/STM32F4xx_HAL_Driver/Src/stm32f4xx_ll_usb.c ****   }
1554:Drivers/STM32F4xx_HAL_Driver/Src/stm32f4xx_ll_usb.c **** 
1555:Drivers/STM32F4xx_HAL_Driver/Src/stm32f4xx_ll_usb.c ****   /* Clear all pending HC Interrupts */
1556:Drivers/STM32F4xx_HAL_Driver/Src/stm32f4xx_ll_usb.c ****   for (i = 0U; i < cfg.Host_channels; i++)
 3831              		.loc 1 1556 3 is_stmt 1 view .LVU1228
 3832              		.loc 1 1556 10 is_stmt 0 view .LVU1229
 3833 0078 0022     		movs	r2, #0
 3834              		.loc 1 1556 3 view .LVU1230
 3835 007a 09E0     		b	.L240
 3836              	.LVL316:
 3837              	.L241:
1557:Drivers/STM32F4xx_HAL_Driver/Src/stm32f4xx_ll_usb.c ****   {
1558:Drivers/STM32F4xx_HAL_Driver/Src/stm32f4xx_ll_usb.c ****     USBx_HC(i)->HCINT = 0xFFFFFFFFU;
 3838              		.loc 1 1558 5 is_stmt 1 discriminator 3 view .LVU1231
 3839 007c 04EB4213 		add	r3, r4, r2, lsl #5
 3840              		.loc 1 1558 23 is_stmt 0 discriminator 3 view .LVU1232
 3841 0080 4FF0FF31 		mov	r1, #-1
 3842 0084 C3F80815 		str	r1, [r3, #1288]
1559:Drivers/STM32F4xx_HAL_Driver/Src/stm32f4xx_ll_usb.c ****     USBx_HC(i)->HCINTMSK = 0U;
 3843              		.loc 1 1559 5 is_stmt 1 discriminator 3 view .LVU1233
ARM GAS  /tmp/ccfbcrWA.s 			page 115


 3844              		.loc 1 1559 26 is_stmt 0 discriminator 3 view .LVU1234
 3845 0088 0021     		movs	r1, #0
 3846 008a C3F80C15 		str	r1, [r3, #1292]
1556:Drivers/STM32F4xx_HAL_Driver/Src/stm32f4xx_ll_usb.c ****   {
 3847              		.loc 1 1556 39 is_stmt 1 discriminator 3 view .LVU1235
1556:Drivers/STM32F4xx_HAL_Driver/Src/stm32f4xx_ll_usb.c ****   {
 3848              		.loc 1 1556 40 is_stmt 0 discriminator 3 view .LVU1236
 3849 008e 0132     		adds	r2, r2, #1
 3850              	.LVL317:
 3851              	.L240:
1556:Drivers/STM32F4xx_HAL_Driver/Src/stm32f4xx_ll_usb.c ****   {
 3852              		.loc 1 1556 16 is_stmt 1 discriminator 1 view .LVU1237
1556:Drivers/STM32F4xx_HAL_Driver/Src/stm32f4xx_ll_usb.c ****   {
 3853              		.loc 1 1556 23 is_stmt 0 discriminator 1 view .LVU1238
 3854 0090 069B     		ldr	r3, [sp, #24]
1556:Drivers/STM32F4xx_HAL_Driver/Src/stm32f4xx_ll_usb.c ****   {
 3855              		.loc 1 1556 3 discriminator 1 view .LVU1239
 3856 0092 9342     		cmp	r3, r2
 3857 0094 F2D8     		bhi	.L241
1560:Drivers/STM32F4xx_HAL_Driver/Src/stm32f4xx_ll_usb.c ****   }
1561:Drivers/STM32F4xx_HAL_Driver/Src/stm32f4xx_ll_usb.c **** 
1562:Drivers/STM32F4xx_HAL_Driver/Src/stm32f4xx_ll_usb.c ****   /* Disable all interrupts. */
1563:Drivers/STM32F4xx_HAL_Driver/Src/stm32f4xx_ll_usb.c ****   USBx->GINTMSK = 0U;
 3858              		.loc 1 1563 3 is_stmt 1 view .LVU1240
 3859              		.loc 1 1563 17 is_stmt 0 view .LVU1241
 3860 0096 0023     		movs	r3, #0
 3861 0098 A361     		str	r3, [r4, #24]
1564:Drivers/STM32F4xx_HAL_Driver/Src/stm32f4xx_ll_usb.c **** 
1565:Drivers/STM32F4xx_HAL_Driver/Src/stm32f4xx_ll_usb.c ****   /* Clear any pending interrupts */
1566:Drivers/STM32F4xx_HAL_Driver/Src/stm32f4xx_ll_usb.c ****   USBx->GINTSTS = 0xFFFFFFFFU;
 3862              		.loc 1 1566 3 is_stmt 1 view .LVU1242
 3863              		.loc 1 1566 17 is_stmt 0 view .LVU1243
 3864 009a 4FF0FF33 		mov	r3, #-1
 3865 009e 6361     		str	r3, [r4, #20]
1567:Drivers/STM32F4xx_HAL_Driver/Src/stm32f4xx_ll_usb.c **** 
1568:Drivers/STM32F4xx_HAL_Driver/Src/stm32f4xx_ll_usb.c ****   if ((USBx->CID & (0x1U << 8)) != 0U)
 3866              		.loc 1 1568 3 is_stmt 1 view .LVU1244
 3867              		.loc 1 1568 12 is_stmt 0 view .LVU1245
 3868 00a0 E36B     		ldr	r3, [r4, #60]
 3869              		.loc 1 1568 6 view .LVU1246
 3870 00a2 13F4807F 		tst	r3, #256
 3871 00a6 17D0     		beq	.L242
1569:Drivers/STM32F4xx_HAL_Driver/Src/stm32f4xx_ll_usb.c ****   {
1570:Drivers/STM32F4xx_HAL_Driver/Src/stm32f4xx_ll_usb.c ****     /* set Rx FIFO size */
1571:Drivers/STM32F4xx_HAL_Driver/Src/stm32f4xx_ll_usb.c ****     USBx->GRXFSIZ  = 0x200U;
 3872              		.loc 1 1571 5 is_stmt 1 view .LVU1247
 3873              		.loc 1 1571 20 is_stmt 0 view .LVU1248
 3874 00a8 4FF40073 		mov	r3, #512
 3875 00ac 6362     		str	r3, [r4, #36]
1572:Drivers/STM32F4xx_HAL_Driver/Src/stm32f4xx_ll_usb.c ****     USBx->DIEPTXF0_HNPTXFSIZ = (uint32_t)(((0x100U << 16) & USB_OTG_NPTXFD) | 0x200U);
 3876              		.loc 1 1572 5 is_stmt 1 view .LVU1249
 3877              		.loc 1 1572 30 is_stmt 0 view .LVU1250
 3878 00ae 03F18073 		add	r3, r3, #16777216
 3879 00b2 A362     		str	r3, [r4, #40]
1573:Drivers/STM32F4xx_HAL_Driver/Src/stm32f4xx_ll_usb.c ****     USBx->HPTXFSIZ = (uint32_t)(((0xE0U << 16) & USB_OTG_HPTXFSIZ_PTXFD) | 0x300U);
 3880              		.loc 1 1573 5 is_stmt 1 view .LVU1251
 3881              		.loc 1 1573 20 is_stmt 0 view .LVU1252
ARM GAS  /tmp/ccfbcrWA.s 			page 116


 3882 00b4 0D4B     		ldr	r3, .L249
 3883 00b6 C4F80031 		str	r3, [r4, #256]
 3884              	.L243:
1574:Drivers/STM32F4xx_HAL_Driver/Src/stm32f4xx_ll_usb.c ****   }
1575:Drivers/STM32F4xx_HAL_Driver/Src/stm32f4xx_ll_usb.c ****   else
1576:Drivers/STM32F4xx_HAL_Driver/Src/stm32f4xx_ll_usb.c ****   {
1577:Drivers/STM32F4xx_HAL_Driver/Src/stm32f4xx_ll_usb.c ****     /* set Rx FIFO size */
1578:Drivers/STM32F4xx_HAL_Driver/Src/stm32f4xx_ll_usb.c ****     USBx->GRXFSIZ  = 0x80U;
1579:Drivers/STM32F4xx_HAL_Driver/Src/stm32f4xx_ll_usb.c ****     USBx->DIEPTXF0_HNPTXFSIZ = (uint32_t)(((0x60U << 16) & USB_OTG_NPTXFD) | 0x80U);
1580:Drivers/STM32F4xx_HAL_Driver/Src/stm32f4xx_ll_usb.c ****     USBx->HPTXFSIZ = (uint32_t)(((0x40U << 16)& USB_OTG_HPTXFSIZ_PTXFD) | 0xE0U);
1581:Drivers/STM32F4xx_HAL_Driver/Src/stm32f4xx_ll_usb.c ****   }
1582:Drivers/STM32F4xx_HAL_Driver/Src/stm32f4xx_ll_usb.c **** 
1583:Drivers/STM32F4xx_HAL_Driver/Src/stm32f4xx_ll_usb.c ****   /* Enable the common interrupts */
1584:Drivers/STM32F4xx_HAL_Driver/Src/stm32f4xx_ll_usb.c ****   if (cfg.dma_enable == 0U)
 3885              		.loc 1 1584 3 is_stmt 1 view .LVU1253
 3886              		.loc 1 1584 10 is_stmt 0 view .LVU1254
 3887 00ba 089B     		ldr	r3, [sp, #32]
 3888              		.loc 1 1584 6 view .LVU1255
 3889 00bc 1BB9     		cbnz	r3, .L244
1585:Drivers/STM32F4xx_HAL_Driver/Src/stm32f4xx_ll_usb.c ****   {
1586:Drivers/STM32F4xx_HAL_Driver/Src/stm32f4xx_ll_usb.c ****     USBx->GINTMSK |= USB_OTG_GINTMSK_RXFLVLM;
 3890              		.loc 1 1586 5 is_stmt 1 view .LVU1256
 3891              		.loc 1 1586 19 is_stmt 0 view .LVU1257
 3892 00be A369     		ldr	r3, [r4, #24]
 3893 00c0 43F01003 		orr	r3, r3, #16
 3894 00c4 A361     		str	r3, [r4, #24]
 3895              	.L244:
1587:Drivers/STM32F4xx_HAL_Driver/Src/stm32f4xx_ll_usb.c ****   }
1588:Drivers/STM32F4xx_HAL_Driver/Src/stm32f4xx_ll_usb.c **** 
1589:Drivers/STM32F4xx_HAL_Driver/Src/stm32f4xx_ll_usb.c ****   /* Enable interrupts matching to the Host mode ONLY */
1590:Drivers/STM32F4xx_HAL_Driver/Src/stm32f4xx_ll_usb.c ****   USBx->GINTMSK |= (USB_OTG_GINTMSK_PRTIM            | USB_OTG_GINTMSK_HCIM | \
 3896              		.loc 1 1590 3 is_stmt 1 view .LVU1258
 3897              		.loc 1 1590 17 is_stmt 0 view .LVU1259
 3898 00c6 A269     		ldr	r2, [r4, #24]
 3899              	.LVL318:
 3900              		.loc 1 1590 17 view .LVU1260
 3901 00c8 094B     		ldr	r3, .L249+4
 3902 00ca 1343     		orrs	r3, r3, r2
 3903 00cc A361     		str	r3, [r4, #24]
1591:Drivers/STM32F4xx_HAL_Driver/Src/stm32f4xx_ll_usb.c ****                     USB_OTG_GINTMSK_SOFM             | USB_OTG_GINTSTS_DISCINT | \
1592:Drivers/STM32F4xx_HAL_Driver/Src/stm32f4xx_ll_usb.c ****                     USB_OTG_GINTMSK_PXFRM_IISOOXFRM  | USB_OTG_GINTMSK_WUIM);
1593:Drivers/STM32F4xx_HAL_Driver/Src/stm32f4xx_ll_usb.c **** 
1594:Drivers/STM32F4xx_HAL_Driver/Src/stm32f4xx_ll_usb.c ****   return ret;
 3904              		.loc 1 1594 3 is_stmt 1 view .LVU1261
1595:Drivers/STM32F4xx_HAL_Driver/Src/stm32f4xx_ll_usb.c **** }
 3905              		.loc 1 1595 1 is_stmt 0 view .LVU1262
 3906 00ce 2846     		mov	r0, r5
 3907 00d0 BDE83840 		pop	{r3, r4, r5, lr}
 3908              	.LCFI49:
 3909              		.cfi_remember_state
 3910              		.cfi_restore 14
 3911              		.cfi_restore 5
 3912              		.cfi_restore 4
 3913              		.cfi_restore 3
 3914              		.cfi_def_cfa_offset 16
 3915              	.LVL319:
 3916              		.loc 1 1595 1 view .LVU1263
ARM GAS  /tmp/ccfbcrWA.s 			page 117


 3917 00d4 04B0     		add	sp, sp, #16
 3918              	.LCFI50:
 3919              		.cfi_def_cfa_offset 0
 3920 00d6 7047     		bx	lr
 3921              	.LVL320:
 3922              	.L242:
 3923              	.LCFI51:
 3924              		.cfi_restore_state
1578:Drivers/STM32F4xx_HAL_Driver/Src/stm32f4xx_ll_usb.c ****     USBx->DIEPTXF0_HNPTXFSIZ = (uint32_t)(((0x60U << 16) & USB_OTG_NPTXFD) | 0x80U);
 3925              		.loc 1 1578 5 is_stmt 1 view .LVU1264
1578:Drivers/STM32F4xx_HAL_Driver/Src/stm32f4xx_ll_usb.c ****     USBx->DIEPTXF0_HNPTXFSIZ = (uint32_t)(((0x60U << 16) & USB_OTG_NPTXFD) | 0x80U);
 3926              		.loc 1 1578 20 is_stmt 0 view .LVU1265
 3927 00d8 8023     		movs	r3, #128
 3928 00da 6362     		str	r3, [r4, #36]
1579:Drivers/STM32F4xx_HAL_Driver/Src/stm32f4xx_ll_usb.c ****     USBx->HPTXFSIZ = (uint32_t)(((0x40U << 16)& USB_OTG_HPTXFSIZ_PTXFD) | 0xE0U);
 3929              		.loc 1 1579 5 is_stmt 1 view .LVU1266
1579:Drivers/STM32F4xx_HAL_Driver/Src/stm32f4xx_ll_usb.c ****     USBx->HPTXFSIZ = (uint32_t)(((0x40U << 16)& USB_OTG_HPTXFSIZ_PTXFD) | 0xE0U);
 3930              		.loc 1 1579 30 is_stmt 0 view .LVU1267
 3931 00dc 03F5C003 		add	r3, r3, #6291456
 3932 00e0 A362     		str	r3, [r4, #40]
1580:Drivers/STM32F4xx_HAL_Driver/Src/stm32f4xx_ll_usb.c ****   }
 3933              		.loc 1 1580 5 is_stmt 1 view .LVU1268
1580:Drivers/STM32F4xx_HAL_Driver/Src/stm32f4xx_ll_usb.c ****   }
 3934              		.loc 1 1580 20 is_stmt 0 view .LVU1269
 3935 00e2 044B     		ldr	r3, .L249+8
 3936 00e4 C4F80031 		str	r3, [r4, #256]
 3937 00e8 E7E7     		b	.L243
 3938              	.L250:
 3939 00ea 00BF     		.align	2
 3940              	.L249:
 3941 00ec 0003E000 		.word	14680832
 3942 00f0 080020A3 		.word	-1558183928
 3943 00f4 E0004000 		.word	4194528
 3944              		.cfi_endproc
 3945              	.LFE165:
 3947              		.section	.text.USB_InitFSLSPClkSel,"ax",%progbits
 3948              		.align	1
 3949              		.global	USB_InitFSLSPClkSel
 3950              		.syntax unified
 3951              		.thumb
 3952              		.thumb_func
 3953              		.fpu fpv4-sp-d16
 3955              	USB_InitFSLSPClkSel:
 3956              	.LVL321:
 3957              	.LFB166:
1596:Drivers/STM32F4xx_HAL_Driver/Src/stm32f4xx_ll_usb.c **** 
1597:Drivers/STM32F4xx_HAL_Driver/Src/stm32f4xx_ll_usb.c **** /**
1598:Drivers/STM32F4xx_HAL_Driver/Src/stm32f4xx_ll_usb.c ****   * @brief  USB_InitFSLSPClkSel : Initializes the FSLSPClkSel field of the
1599:Drivers/STM32F4xx_HAL_Driver/Src/stm32f4xx_ll_usb.c ****   *         HCFG register on the PHY type and set the right frame interval
1600:Drivers/STM32F4xx_HAL_Driver/Src/stm32f4xx_ll_usb.c ****   * @param  USBx  Selected device
1601:Drivers/STM32F4xx_HAL_Driver/Src/stm32f4xx_ll_usb.c ****   * @param  freq  clock frequency
1602:Drivers/STM32F4xx_HAL_Driver/Src/stm32f4xx_ll_usb.c ****   *          This parameter can be one of these values:
1603:Drivers/STM32F4xx_HAL_Driver/Src/stm32f4xx_ll_usb.c ****   *           HCFG_48_MHZ : Full Speed 48 MHz Clock
1604:Drivers/STM32F4xx_HAL_Driver/Src/stm32f4xx_ll_usb.c ****   *           HCFG_6_MHZ : Low Speed 6 MHz Clock
1605:Drivers/STM32F4xx_HAL_Driver/Src/stm32f4xx_ll_usb.c ****   * @retval HAL status
1606:Drivers/STM32F4xx_HAL_Driver/Src/stm32f4xx_ll_usb.c ****   */
1607:Drivers/STM32F4xx_HAL_Driver/Src/stm32f4xx_ll_usb.c **** HAL_StatusTypeDef USB_InitFSLSPClkSel(USB_OTG_GlobalTypeDef *USBx, uint8_t freq)
ARM GAS  /tmp/ccfbcrWA.s 			page 118


1608:Drivers/STM32F4xx_HAL_Driver/Src/stm32f4xx_ll_usb.c **** {
 3958              		.loc 1 1608 1 is_stmt 1 view -0
 3959              		.cfi_startproc
 3960              		@ args = 0, pretend = 0, frame = 0
 3961              		@ frame_needed = 0, uses_anonymous_args = 0
 3962              		@ link register save eliminated.
1609:Drivers/STM32F4xx_HAL_Driver/Src/stm32f4xx_ll_usb.c ****   uint32_t USBx_BASE = (uint32_t)USBx;
 3963              		.loc 1 1609 3 view .LVU1271
1610:Drivers/STM32F4xx_HAL_Driver/Src/stm32f4xx_ll_usb.c **** 
1611:Drivers/STM32F4xx_HAL_Driver/Src/stm32f4xx_ll_usb.c ****   USBx_HOST->HCFG &= ~(USB_OTG_HCFG_FSLSPCS);
 3964              		.loc 1 1611 3 view .LVU1272
 3965              		.loc 1 1611 19 is_stmt 0 view .LVU1273
 3966 0000 00F5806C 		add	ip, r0, #1024
 3967 0004 D0F80034 		ldr	r3, [r0, #1024]
 3968 0008 23F00303 		bic	r3, r3, #3
 3969 000c C0F80034 		str	r3, [r0, #1024]
1612:Drivers/STM32F4xx_HAL_Driver/Src/stm32f4xx_ll_usb.c ****   USBx_HOST->HCFG |= (uint32_t)freq & USB_OTG_HCFG_FSLSPCS;
 3970              		.loc 1 1612 3 is_stmt 1 view .LVU1274
 3971              		.loc 1 1612 19 is_stmt 0 view .LVU1275
 3972 0010 D0F80034 		ldr	r3, [r0, #1024]
 3973              		.loc 1 1612 37 view .LVU1276
 3974 0014 01F00302 		and	r2, r1, #3
 3975              		.loc 1 1612 19 view .LVU1277
 3976 0018 1343     		orrs	r3, r3, r2
 3977 001a C0F80034 		str	r3, [r0, #1024]
1613:Drivers/STM32F4xx_HAL_Driver/Src/stm32f4xx_ll_usb.c **** 
1614:Drivers/STM32F4xx_HAL_Driver/Src/stm32f4xx_ll_usb.c ****   if (freq == HCFG_48_MHZ)
 3978              		.loc 1 1614 3 is_stmt 1 view .LVU1278
 3979              		.loc 1 1614 6 is_stmt 0 view .LVU1279
 3980 001e 0129     		cmp	r1, #1
 3981 0020 03D0     		beq	.L254
1615:Drivers/STM32F4xx_HAL_Driver/Src/stm32f4xx_ll_usb.c ****   {
1616:Drivers/STM32F4xx_HAL_Driver/Src/stm32f4xx_ll_usb.c ****     USBx_HOST->HFIR = 48000U;
1617:Drivers/STM32F4xx_HAL_Driver/Src/stm32f4xx_ll_usb.c ****   }
1618:Drivers/STM32F4xx_HAL_Driver/Src/stm32f4xx_ll_usb.c ****   else if (freq == HCFG_6_MHZ)
 3982              		.loc 1 1618 8 is_stmt 1 view .LVU1280
 3983              		.loc 1 1618 11 is_stmt 0 view .LVU1281
 3984 0022 0229     		cmp	r1, #2
 3985 0024 06D0     		beq	.L255
 3986              	.L253:
1619:Drivers/STM32F4xx_HAL_Driver/Src/stm32f4xx_ll_usb.c ****   {
1620:Drivers/STM32F4xx_HAL_Driver/Src/stm32f4xx_ll_usb.c ****     USBx_HOST->HFIR = 6000U;
1621:Drivers/STM32F4xx_HAL_Driver/Src/stm32f4xx_ll_usb.c ****   }
1622:Drivers/STM32F4xx_HAL_Driver/Src/stm32f4xx_ll_usb.c ****   else
1623:Drivers/STM32F4xx_HAL_Driver/Src/stm32f4xx_ll_usb.c ****   {
1624:Drivers/STM32F4xx_HAL_Driver/Src/stm32f4xx_ll_usb.c ****     /* ... */
1625:Drivers/STM32F4xx_HAL_Driver/Src/stm32f4xx_ll_usb.c ****   }
 3987              		.loc 1 1625 3 is_stmt 1 view .LVU1282
1626:Drivers/STM32F4xx_HAL_Driver/Src/stm32f4xx_ll_usb.c **** 
1627:Drivers/STM32F4xx_HAL_Driver/Src/stm32f4xx_ll_usb.c ****   return HAL_OK;
 3988              		.loc 1 1627 3 view .LVU1283
1628:Drivers/STM32F4xx_HAL_Driver/Src/stm32f4xx_ll_usb.c **** }
 3989              		.loc 1 1628 1 is_stmt 0 view .LVU1284
 3990 0026 0020     		movs	r0, #0
 3991              	.LVL322:
 3992              		.loc 1 1628 1 view .LVU1285
 3993 0028 7047     		bx	lr
ARM GAS  /tmp/ccfbcrWA.s 			page 119


 3994              	.LVL323:
 3995              	.L254:
1616:Drivers/STM32F4xx_HAL_Driver/Src/stm32f4xx_ll_usb.c ****   }
 3996              		.loc 1 1616 5 is_stmt 1 view .LVU1286
1616:Drivers/STM32F4xx_HAL_Driver/Src/stm32f4xx_ll_usb.c ****   }
 3997              		.loc 1 1616 21 is_stmt 0 view .LVU1287
 3998 002a 4BF68033 		movw	r3, #48000
 3999 002e CCF80430 		str	r3, [ip, #4]
 4000 0032 F8E7     		b	.L253
 4001              	.L255:
1620:Drivers/STM32F4xx_HAL_Driver/Src/stm32f4xx_ll_usb.c ****   }
 4002              		.loc 1 1620 5 is_stmt 1 view .LVU1288
1620:Drivers/STM32F4xx_HAL_Driver/Src/stm32f4xx_ll_usb.c ****   }
 4003              		.loc 1 1620 21 is_stmt 0 view .LVU1289
 4004 0034 41F27073 		movw	r3, #6000
 4005 0038 CCF80430 		str	r3, [ip, #4]
 4006 003c F3E7     		b	.L253
 4007              		.cfi_endproc
 4008              	.LFE166:
 4010              		.section	.text.USB_ResetPort,"ax",%progbits
 4011              		.align	1
 4012              		.global	USB_ResetPort
 4013              		.syntax unified
 4014              		.thumb
 4015              		.thumb_func
 4016              		.fpu fpv4-sp-d16
 4018              	USB_ResetPort:
 4019              	.LVL324:
 4020              	.LFB167:
1629:Drivers/STM32F4xx_HAL_Driver/Src/stm32f4xx_ll_usb.c **** 
1630:Drivers/STM32F4xx_HAL_Driver/Src/stm32f4xx_ll_usb.c **** /**
1631:Drivers/STM32F4xx_HAL_Driver/Src/stm32f4xx_ll_usb.c ****   * @brief  USB_OTG_ResetPort : Reset Host Port
1632:Drivers/STM32F4xx_HAL_Driver/Src/stm32f4xx_ll_usb.c ****   * @param  USBx  Selected device
1633:Drivers/STM32F4xx_HAL_Driver/Src/stm32f4xx_ll_usb.c ****   * @retval HAL status
1634:Drivers/STM32F4xx_HAL_Driver/Src/stm32f4xx_ll_usb.c ****   * @note (1)The application must wait at least 10 ms
1635:Drivers/STM32F4xx_HAL_Driver/Src/stm32f4xx_ll_usb.c ****   *   before clearing the reset bit.
1636:Drivers/STM32F4xx_HAL_Driver/Src/stm32f4xx_ll_usb.c ****   */
1637:Drivers/STM32F4xx_HAL_Driver/Src/stm32f4xx_ll_usb.c **** HAL_StatusTypeDef USB_ResetPort(USB_OTG_GlobalTypeDef *USBx)
1638:Drivers/STM32F4xx_HAL_Driver/Src/stm32f4xx_ll_usb.c **** {
 4021              		.loc 1 1638 1 is_stmt 1 view -0
 4022              		.cfi_startproc
 4023              		@ args = 0, pretend = 0, frame = 8
 4024              		@ frame_needed = 0, uses_anonymous_args = 0
 4025              		.loc 1 1638 1 is_stmt 0 view .LVU1291
 4026 0000 30B5     		push	{r4, r5, lr}
 4027              	.LCFI52:
 4028              		.cfi_def_cfa_offset 12
 4029              		.cfi_offset 4, -12
 4030              		.cfi_offset 5, -8
 4031              		.cfi_offset 14, -4
 4032 0002 83B0     		sub	sp, sp, #12
 4033              	.LCFI53:
 4034              		.cfi_def_cfa_offset 24
 4035 0004 0446     		mov	r4, r0
1639:Drivers/STM32F4xx_HAL_Driver/Src/stm32f4xx_ll_usb.c ****   uint32_t USBx_BASE = (uint32_t)USBx;
 4036              		.loc 1 1639 3 is_stmt 1 view .LVU1292
 4037              	.LVL325:
ARM GAS  /tmp/ccfbcrWA.s 			page 120


1640:Drivers/STM32F4xx_HAL_Driver/Src/stm32f4xx_ll_usb.c **** 
1641:Drivers/STM32F4xx_HAL_Driver/Src/stm32f4xx_ll_usb.c ****   __IO uint32_t hprt0 = 0U;
 4038              		.loc 1 1641 3 view .LVU1293
 4039              		.loc 1 1641 17 is_stmt 0 view .LVU1294
 4040 0006 0025     		movs	r5, #0
 4041 0008 0195     		str	r5, [sp, #4]
1642:Drivers/STM32F4xx_HAL_Driver/Src/stm32f4xx_ll_usb.c **** 
1643:Drivers/STM32F4xx_HAL_Driver/Src/stm32f4xx_ll_usb.c ****   hprt0 = USBx_HPRT0;
 4042              		.loc 1 1643 3 is_stmt 1 view .LVU1295
 4043              		.loc 1 1643 11 is_stmt 0 view .LVU1296
 4044 000a D0F84034 		ldr	r3, [r0, #1088]
 4045              		.loc 1 1643 9 view .LVU1297
 4046 000e 0193     		str	r3, [sp, #4]
1644:Drivers/STM32F4xx_HAL_Driver/Src/stm32f4xx_ll_usb.c **** 
1645:Drivers/STM32F4xx_HAL_Driver/Src/stm32f4xx_ll_usb.c ****   hprt0 &= ~(USB_OTG_HPRT_PENA | USB_OTG_HPRT_PCDET |
 4047              		.loc 1 1645 3 is_stmt 1 view .LVU1298
 4048              		.loc 1 1645 9 is_stmt 0 view .LVU1299
 4049 0010 019B     		ldr	r3, [sp, #4]
 4050 0012 23F02E03 		bic	r3, r3, #46
 4051 0016 0193     		str	r3, [sp, #4]
1646:Drivers/STM32F4xx_HAL_Driver/Src/stm32f4xx_ll_usb.c ****              USB_OTG_HPRT_PENCHNG | USB_OTG_HPRT_POCCHNG);
1647:Drivers/STM32F4xx_HAL_Driver/Src/stm32f4xx_ll_usb.c **** 
1648:Drivers/STM32F4xx_HAL_Driver/Src/stm32f4xx_ll_usb.c ****   USBx_HPRT0 = (USB_OTG_HPRT_PRST | hprt0);
 4052              		.loc 1 1648 3 is_stmt 1 view .LVU1300
 4053              		.loc 1 1648 35 is_stmt 0 view .LVU1301
 4054 0018 019B     		ldr	r3, [sp, #4]
 4055 001a 43F48073 		orr	r3, r3, #256
 4056              		.loc 1 1648 14 view .LVU1302
 4057 001e C0F84034 		str	r3, [r0, #1088]
1649:Drivers/STM32F4xx_HAL_Driver/Src/stm32f4xx_ll_usb.c ****   HAL_Delay(100U);                                 /* See Note #1 */
 4058              		.loc 1 1649 3 is_stmt 1 view .LVU1303
 4059 0022 6420     		movs	r0, #100
 4060              	.LVL326:
 4061              		.loc 1 1649 3 is_stmt 0 view .LVU1304
 4062 0024 FFF7FEFF 		bl	HAL_Delay
 4063              	.LVL327:
1650:Drivers/STM32F4xx_HAL_Driver/Src/stm32f4xx_ll_usb.c ****   USBx_HPRT0 = ((~USB_OTG_HPRT_PRST) & hprt0);
 4064              		.loc 1 1650 3 is_stmt 1 view .LVU1305
 4065              		.loc 1 1650 38 is_stmt 0 view .LVU1306
 4066 0028 019B     		ldr	r3, [sp, #4]
 4067 002a 23F48073 		bic	r3, r3, #256
 4068              		.loc 1 1650 14 view .LVU1307
 4069 002e C4F84034 		str	r3, [r4, #1088]
1651:Drivers/STM32F4xx_HAL_Driver/Src/stm32f4xx_ll_usb.c ****   HAL_Delay(10U);
 4070              		.loc 1 1651 3 is_stmt 1 view .LVU1308
 4071 0032 0A20     		movs	r0, #10
 4072 0034 FFF7FEFF 		bl	HAL_Delay
 4073              	.LVL328:
1652:Drivers/STM32F4xx_HAL_Driver/Src/stm32f4xx_ll_usb.c **** 
1653:Drivers/STM32F4xx_HAL_Driver/Src/stm32f4xx_ll_usb.c ****   return HAL_OK;
 4074              		.loc 1 1653 3 view .LVU1309
1654:Drivers/STM32F4xx_HAL_Driver/Src/stm32f4xx_ll_usb.c **** }
 4075              		.loc 1 1654 1 is_stmt 0 view .LVU1310
 4076 0038 2846     		mov	r0, r5
 4077 003a 03B0     		add	sp, sp, #12
 4078              	.LCFI54:
 4079              		.cfi_def_cfa_offset 12
ARM GAS  /tmp/ccfbcrWA.s 			page 121


 4080              		@ sp needed
 4081 003c 30BD     		pop	{r4, r5, pc}
 4082              		.loc 1 1654 1 view .LVU1311
 4083              		.cfi_endproc
 4084              	.LFE167:
 4086              		.section	.text.USB_DriveVbus,"ax",%progbits
 4087              		.align	1
 4088              		.global	USB_DriveVbus
 4089              		.syntax unified
 4090              		.thumb
 4091              		.thumb_func
 4092              		.fpu fpv4-sp-d16
 4094              	USB_DriveVbus:
 4095              	.LVL329:
 4096              	.LFB168:
1655:Drivers/STM32F4xx_HAL_Driver/Src/stm32f4xx_ll_usb.c **** 
1656:Drivers/STM32F4xx_HAL_Driver/Src/stm32f4xx_ll_usb.c **** /**
1657:Drivers/STM32F4xx_HAL_Driver/Src/stm32f4xx_ll_usb.c ****   * @brief  USB_DriveVbus : activate or de-activate vbus
1658:Drivers/STM32F4xx_HAL_Driver/Src/stm32f4xx_ll_usb.c ****   * @param  state  VBUS state
1659:Drivers/STM32F4xx_HAL_Driver/Src/stm32f4xx_ll_usb.c ****   *          This parameter can be one of these values:
1660:Drivers/STM32F4xx_HAL_Driver/Src/stm32f4xx_ll_usb.c ****   *           0 : Deactivate VBUS
1661:Drivers/STM32F4xx_HAL_Driver/Src/stm32f4xx_ll_usb.c ****   *           1 : Activate VBUS
1662:Drivers/STM32F4xx_HAL_Driver/Src/stm32f4xx_ll_usb.c ****   * @retval HAL status
1663:Drivers/STM32F4xx_HAL_Driver/Src/stm32f4xx_ll_usb.c ****   */
1664:Drivers/STM32F4xx_HAL_Driver/Src/stm32f4xx_ll_usb.c **** HAL_StatusTypeDef USB_DriveVbus(USB_OTG_GlobalTypeDef *USBx, uint8_t state)
1665:Drivers/STM32F4xx_HAL_Driver/Src/stm32f4xx_ll_usb.c **** {
 4097              		.loc 1 1665 1 is_stmt 1 view -0
 4098              		.cfi_startproc
 4099              		@ args = 0, pretend = 0, frame = 8
 4100              		@ frame_needed = 0, uses_anonymous_args = 0
 4101              		@ link register save eliminated.
 4102              		.loc 1 1665 1 is_stmt 0 view .LVU1313
 4103 0000 82B0     		sub	sp, sp, #8
 4104              	.LCFI55:
 4105              		.cfi_def_cfa_offset 8
1666:Drivers/STM32F4xx_HAL_Driver/Src/stm32f4xx_ll_usb.c ****   uint32_t USBx_BASE = (uint32_t)USBx;
 4106              		.loc 1 1666 3 is_stmt 1 view .LVU1314
 4107              	.LVL330:
1667:Drivers/STM32F4xx_HAL_Driver/Src/stm32f4xx_ll_usb.c ****   __IO uint32_t hprt0 = 0U;
 4108              		.loc 1 1667 3 view .LVU1315
 4109              		.loc 1 1667 17 is_stmt 0 view .LVU1316
 4110 0002 0023     		movs	r3, #0
 4111 0004 0193     		str	r3, [sp, #4]
1668:Drivers/STM32F4xx_HAL_Driver/Src/stm32f4xx_ll_usb.c **** 
1669:Drivers/STM32F4xx_HAL_Driver/Src/stm32f4xx_ll_usb.c ****   hprt0 = USBx_HPRT0;
 4112              		.loc 1 1669 3 is_stmt 1 view .LVU1317
 4113              		.loc 1 1669 11 is_stmt 0 view .LVU1318
 4114 0006 D0F84034 		ldr	r3, [r0, #1088]
 4115              		.loc 1 1669 9 view .LVU1319
 4116 000a 0193     		str	r3, [sp, #4]
1670:Drivers/STM32F4xx_HAL_Driver/Src/stm32f4xx_ll_usb.c **** 
1671:Drivers/STM32F4xx_HAL_Driver/Src/stm32f4xx_ll_usb.c ****   hprt0 &= ~(USB_OTG_HPRT_PENA | USB_OTG_HPRT_PCDET |
 4117              		.loc 1 1671 3 is_stmt 1 view .LVU1320
 4118              		.loc 1 1671 9 is_stmt 0 view .LVU1321
 4119 000c 019B     		ldr	r3, [sp, #4]
 4120 000e 23F02E03 		bic	r3, r3, #46
 4121 0012 0193     		str	r3, [sp, #4]
ARM GAS  /tmp/ccfbcrWA.s 			page 122


1672:Drivers/STM32F4xx_HAL_Driver/Src/stm32f4xx_ll_usb.c ****              USB_OTG_HPRT_PENCHNG | USB_OTG_HPRT_POCCHNG);
1673:Drivers/STM32F4xx_HAL_Driver/Src/stm32f4xx_ll_usb.c **** 
1674:Drivers/STM32F4xx_HAL_Driver/Src/stm32f4xx_ll_usb.c ****   if (((hprt0 & USB_OTG_HPRT_PPWR) == 0U) && (state == 1U))
 4122              		.loc 1 1674 3 is_stmt 1 view .LVU1322
 4123              		.loc 1 1674 15 is_stmt 0 view .LVU1323
 4124 0014 019B     		ldr	r3, [sp, #4]
 4125              		.loc 1 1674 6 view .LVU1324
 4126 0016 13F4805F 		tst	r3, #4096
 4127 001a 01D1     		bne	.L259
 4128              		.loc 1 1674 43 discriminator 1 view .LVU1325
 4129 001c 0129     		cmp	r1, #1
 4130 001e 0CD0     		beq	.L262
 4131              	.L259:
1675:Drivers/STM32F4xx_HAL_Driver/Src/stm32f4xx_ll_usb.c ****   {
1676:Drivers/STM32F4xx_HAL_Driver/Src/stm32f4xx_ll_usb.c ****     USBx_HPRT0 = (USB_OTG_HPRT_PPWR | hprt0);
1677:Drivers/STM32F4xx_HAL_Driver/Src/stm32f4xx_ll_usb.c ****   }
1678:Drivers/STM32F4xx_HAL_Driver/Src/stm32f4xx_ll_usb.c ****   if (((hprt0 & USB_OTG_HPRT_PPWR) == USB_OTG_HPRT_PPWR) && (state == 0U))
 4132              		.loc 1 1678 3 is_stmt 1 view .LVU1326
 4133              		.loc 1 1678 15 is_stmt 0 view .LVU1327
 4134 0020 019B     		ldr	r3, [sp, #4]
 4135              		.loc 1 1678 6 view .LVU1328
 4136 0022 13F4805F 		tst	r3, #4096
 4137 0026 05D0     		beq	.L260
 4138              		.loc 1 1678 58 discriminator 1 view .LVU1329
 4139 0028 21B9     		cbnz	r1, .L260
1679:Drivers/STM32F4xx_HAL_Driver/Src/stm32f4xx_ll_usb.c ****   {
1680:Drivers/STM32F4xx_HAL_Driver/Src/stm32f4xx_ll_usb.c ****     USBx_HPRT0 = ((~USB_OTG_HPRT_PPWR) & hprt0);
 4140              		.loc 1 1680 5 is_stmt 1 view .LVU1330
 4141              		.loc 1 1680 40 is_stmt 0 view .LVU1331
 4142 002a 019B     		ldr	r3, [sp, #4]
 4143 002c 23F48053 		bic	r3, r3, #4096
 4144              		.loc 1 1680 16 view .LVU1332
 4145 0030 C0F84034 		str	r3, [r0, #1088]
 4146              	.L260:
1681:Drivers/STM32F4xx_HAL_Driver/Src/stm32f4xx_ll_usb.c ****   }
1682:Drivers/STM32F4xx_HAL_Driver/Src/stm32f4xx_ll_usb.c ****   return HAL_OK;
 4147              		.loc 1 1682 3 is_stmt 1 view .LVU1333
1683:Drivers/STM32F4xx_HAL_Driver/Src/stm32f4xx_ll_usb.c **** }
 4148              		.loc 1 1683 1 is_stmt 0 view .LVU1334
 4149 0034 0020     		movs	r0, #0
 4150              	.LVL331:
 4151              		.loc 1 1683 1 view .LVU1335
 4152 0036 02B0     		add	sp, sp, #8
 4153              	.LCFI56:
 4154              		.cfi_remember_state
 4155              		.cfi_def_cfa_offset 0
 4156              		@ sp needed
 4157 0038 7047     		bx	lr
 4158              	.LVL332:
 4159              	.L262:
 4160              	.LCFI57:
 4161              		.cfi_restore_state
1676:Drivers/STM32F4xx_HAL_Driver/Src/stm32f4xx_ll_usb.c ****   }
 4162              		.loc 1 1676 5 is_stmt 1 view .LVU1336
1676:Drivers/STM32F4xx_HAL_Driver/Src/stm32f4xx_ll_usb.c ****   }
 4163              		.loc 1 1676 37 is_stmt 0 view .LVU1337
 4164 003a 019B     		ldr	r3, [sp, #4]
ARM GAS  /tmp/ccfbcrWA.s 			page 123


 4165 003c 43F48053 		orr	r3, r3, #4096
1676:Drivers/STM32F4xx_HAL_Driver/Src/stm32f4xx_ll_usb.c ****   }
 4166              		.loc 1 1676 16 view .LVU1338
 4167 0040 C0F84034 		str	r3, [r0, #1088]
 4168 0044 ECE7     		b	.L259
 4169              		.cfi_endproc
 4170              	.LFE168:
 4172              		.section	.text.USB_GetHostSpeed,"ax",%progbits
 4173              		.align	1
 4174              		.global	USB_GetHostSpeed
 4175              		.syntax unified
 4176              		.thumb
 4177              		.thumb_func
 4178              		.fpu fpv4-sp-d16
 4180              	USB_GetHostSpeed:
 4181              	.LVL333:
 4182              	.LFB169:
1684:Drivers/STM32F4xx_HAL_Driver/Src/stm32f4xx_ll_usb.c **** 
1685:Drivers/STM32F4xx_HAL_Driver/Src/stm32f4xx_ll_usb.c **** /**
1686:Drivers/STM32F4xx_HAL_Driver/Src/stm32f4xx_ll_usb.c ****   * @brief  Return Host Core speed
1687:Drivers/STM32F4xx_HAL_Driver/Src/stm32f4xx_ll_usb.c ****   * @param  USBx  Selected device
1688:Drivers/STM32F4xx_HAL_Driver/Src/stm32f4xx_ll_usb.c ****   * @retval speed : Host speed
1689:Drivers/STM32F4xx_HAL_Driver/Src/stm32f4xx_ll_usb.c ****   *          This parameter can be one of these values:
1690:Drivers/STM32F4xx_HAL_Driver/Src/stm32f4xx_ll_usb.c ****   *            @arg HCD_SPEED_HIGH: High speed mode
1691:Drivers/STM32F4xx_HAL_Driver/Src/stm32f4xx_ll_usb.c ****   *            @arg HCD_SPEED_FULL: Full speed mode
1692:Drivers/STM32F4xx_HAL_Driver/Src/stm32f4xx_ll_usb.c ****   *            @arg HCD_SPEED_LOW: Low speed mode
1693:Drivers/STM32F4xx_HAL_Driver/Src/stm32f4xx_ll_usb.c ****   */
1694:Drivers/STM32F4xx_HAL_Driver/Src/stm32f4xx_ll_usb.c **** uint32_t USB_GetHostSpeed(USB_OTG_GlobalTypeDef *USBx)
1695:Drivers/STM32F4xx_HAL_Driver/Src/stm32f4xx_ll_usb.c **** {
 4183              		.loc 1 1695 1 is_stmt 1 view -0
 4184              		.cfi_startproc
 4185              		@ args = 0, pretend = 0, frame = 8
 4186              		@ frame_needed = 0, uses_anonymous_args = 0
 4187              		@ link register save eliminated.
 4188              		.loc 1 1695 1 is_stmt 0 view .LVU1340
 4189 0000 82B0     		sub	sp, sp, #8
 4190              	.LCFI58:
 4191              		.cfi_def_cfa_offset 8
1696:Drivers/STM32F4xx_HAL_Driver/Src/stm32f4xx_ll_usb.c ****   uint32_t USBx_BASE = (uint32_t)USBx;
 4192              		.loc 1 1696 3 is_stmt 1 view .LVU1341
 4193              	.LVL334:
1697:Drivers/STM32F4xx_HAL_Driver/Src/stm32f4xx_ll_usb.c ****   __IO uint32_t hprt0 = 0U;
 4194              		.loc 1 1697 3 view .LVU1342
 4195              		.loc 1 1697 17 is_stmt 0 view .LVU1343
 4196 0002 0023     		movs	r3, #0
 4197 0004 0193     		str	r3, [sp, #4]
1698:Drivers/STM32F4xx_HAL_Driver/Src/stm32f4xx_ll_usb.c **** 
1699:Drivers/STM32F4xx_HAL_Driver/Src/stm32f4xx_ll_usb.c ****   hprt0 = USBx_HPRT0;
 4198              		.loc 1 1699 3 is_stmt 1 view .LVU1344
 4199              		.loc 1 1699 11 is_stmt 0 view .LVU1345
 4200 0006 D0F84034 		ldr	r3, [r0, #1088]
 4201              		.loc 1 1699 9 view .LVU1346
 4202 000a 0193     		str	r3, [sp, #4]
1700:Drivers/STM32F4xx_HAL_Driver/Src/stm32f4xx_ll_usb.c ****   return ((hprt0 & USB_OTG_HPRT_PSPD) >> 17);
 4203              		.loc 1 1700 3 is_stmt 1 view .LVU1347
 4204              		.loc 1 1700 39 is_stmt 0 view .LVU1348
 4205 000c 0198     		ldr	r0, [sp, #4]
ARM GAS  /tmp/ccfbcrWA.s 			page 124


 4206              	.LVL335:
1701:Drivers/STM32F4xx_HAL_Driver/Src/stm32f4xx_ll_usb.c **** }
 4207              		.loc 1 1701 1 view .LVU1349
 4208 000e C0F34140 		ubfx	r0, r0, #17, #2
 4209 0012 02B0     		add	sp, sp, #8
 4210              	.LCFI59:
 4211              		.cfi_def_cfa_offset 0
 4212              		@ sp needed
 4213 0014 7047     		bx	lr
 4214              		.cfi_endproc
 4215              	.LFE169:
 4217              		.section	.text.USB_GetCurrentFrame,"ax",%progbits
 4218              		.align	1
 4219              		.global	USB_GetCurrentFrame
 4220              		.syntax unified
 4221              		.thumb
 4222              		.thumb_func
 4223              		.fpu fpv4-sp-d16
 4225              	USB_GetCurrentFrame:
 4226              	.LVL336:
 4227              	.LFB170:
1702:Drivers/STM32F4xx_HAL_Driver/Src/stm32f4xx_ll_usb.c **** 
1703:Drivers/STM32F4xx_HAL_Driver/Src/stm32f4xx_ll_usb.c **** /**
1704:Drivers/STM32F4xx_HAL_Driver/Src/stm32f4xx_ll_usb.c ****   * @brief  Return Host Current Frame number
1705:Drivers/STM32F4xx_HAL_Driver/Src/stm32f4xx_ll_usb.c ****   * @param  USBx  Selected device
1706:Drivers/STM32F4xx_HAL_Driver/Src/stm32f4xx_ll_usb.c ****   * @retval current frame number
1707:Drivers/STM32F4xx_HAL_Driver/Src/stm32f4xx_ll_usb.c ****   */
1708:Drivers/STM32F4xx_HAL_Driver/Src/stm32f4xx_ll_usb.c **** uint32_t USB_GetCurrentFrame(USB_OTG_GlobalTypeDef *USBx)
1709:Drivers/STM32F4xx_HAL_Driver/Src/stm32f4xx_ll_usb.c **** {
 4228              		.loc 1 1709 1 is_stmt 1 view -0
 4229              		.cfi_startproc
 4230              		@ args = 0, pretend = 0, frame = 0
 4231              		@ frame_needed = 0, uses_anonymous_args = 0
 4232              		@ link register save eliminated.
1710:Drivers/STM32F4xx_HAL_Driver/Src/stm32f4xx_ll_usb.c ****   uint32_t USBx_BASE = (uint32_t)USBx;
 4233              		.loc 1 1710 3 view .LVU1351
1711:Drivers/STM32F4xx_HAL_Driver/Src/stm32f4xx_ll_usb.c **** 
1712:Drivers/STM32F4xx_HAL_Driver/Src/stm32f4xx_ll_usb.c ****   return (USBx_HOST->HFNUM & USB_OTG_HFNUM_FRNUM);
 4234              		.loc 1 1712 3 view .LVU1352
 4235              		.loc 1 1712 11 is_stmt 0 view .LVU1353
 4236 0000 00F58060 		add	r0, r0, #1024
 4237              	.LVL337:
 4238              		.loc 1 1712 20 view .LVU1354
 4239 0004 8068     		ldr	r0, [r0, #8]
 4240              	.LVL338:
1713:Drivers/STM32F4xx_HAL_Driver/Src/stm32f4xx_ll_usb.c **** }
 4241              		.loc 1 1713 1 view .LVU1355
 4242 0006 80B2     		uxth	r0, r0
 4243 0008 7047     		bx	lr
 4244              		.cfi_endproc
 4245              	.LFE170:
 4247              		.section	.text.USB_HC_Init,"ax",%progbits
 4248              		.align	1
 4249              		.global	USB_HC_Init
 4250              		.syntax unified
 4251              		.thumb
 4252              		.thumb_func
ARM GAS  /tmp/ccfbcrWA.s 			page 125


 4253              		.fpu fpv4-sp-d16
 4255              	USB_HC_Init:
 4256              	.LVL339:
 4257              	.LFB171:
1714:Drivers/STM32F4xx_HAL_Driver/Src/stm32f4xx_ll_usb.c **** 
1715:Drivers/STM32F4xx_HAL_Driver/Src/stm32f4xx_ll_usb.c **** /**
1716:Drivers/STM32F4xx_HAL_Driver/Src/stm32f4xx_ll_usb.c ****   * @brief  Initialize a host channel
1717:Drivers/STM32F4xx_HAL_Driver/Src/stm32f4xx_ll_usb.c ****   * @param  USBx  Selected device
1718:Drivers/STM32F4xx_HAL_Driver/Src/stm32f4xx_ll_usb.c ****   * @param  ch_num  Channel number
1719:Drivers/STM32F4xx_HAL_Driver/Src/stm32f4xx_ll_usb.c ****   *         This parameter can be a value from 1 to 15
1720:Drivers/STM32F4xx_HAL_Driver/Src/stm32f4xx_ll_usb.c ****   * @param  epnum  Endpoint number
1721:Drivers/STM32F4xx_HAL_Driver/Src/stm32f4xx_ll_usb.c ****   *          This parameter can be a value from 1 to 15
1722:Drivers/STM32F4xx_HAL_Driver/Src/stm32f4xx_ll_usb.c ****   * @param  dev_address  Current device address
1723:Drivers/STM32F4xx_HAL_Driver/Src/stm32f4xx_ll_usb.c ****   *          This parameter can be a value from 0 to 255
1724:Drivers/STM32F4xx_HAL_Driver/Src/stm32f4xx_ll_usb.c ****   * @param  speed  Current device speed
1725:Drivers/STM32F4xx_HAL_Driver/Src/stm32f4xx_ll_usb.c ****   *          This parameter can be one of these values:
1726:Drivers/STM32F4xx_HAL_Driver/Src/stm32f4xx_ll_usb.c ****   *            @arg USB_OTG_SPEED_HIGH: High speed mode
1727:Drivers/STM32F4xx_HAL_Driver/Src/stm32f4xx_ll_usb.c ****   *            @arg USB_OTG_SPEED_FULL: Full speed mode
1728:Drivers/STM32F4xx_HAL_Driver/Src/stm32f4xx_ll_usb.c ****   *            @arg USB_OTG_SPEED_LOW: Low speed mode
1729:Drivers/STM32F4xx_HAL_Driver/Src/stm32f4xx_ll_usb.c ****   * @param  ep_type  Endpoint Type
1730:Drivers/STM32F4xx_HAL_Driver/Src/stm32f4xx_ll_usb.c ****   *          This parameter can be one of these values:
1731:Drivers/STM32F4xx_HAL_Driver/Src/stm32f4xx_ll_usb.c ****   *            @arg EP_TYPE_CTRL: Control type
1732:Drivers/STM32F4xx_HAL_Driver/Src/stm32f4xx_ll_usb.c ****   *            @arg EP_TYPE_ISOC: Isochronous type
1733:Drivers/STM32F4xx_HAL_Driver/Src/stm32f4xx_ll_usb.c ****   *            @arg EP_TYPE_BULK: Bulk type
1734:Drivers/STM32F4xx_HAL_Driver/Src/stm32f4xx_ll_usb.c ****   *            @arg EP_TYPE_INTR: Interrupt type
1735:Drivers/STM32F4xx_HAL_Driver/Src/stm32f4xx_ll_usb.c ****   * @param  mps  Max Packet Size
1736:Drivers/STM32F4xx_HAL_Driver/Src/stm32f4xx_ll_usb.c ****   *          This parameter can be a value from 0 to 32K
1737:Drivers/STM32F4xx_HAL_Driver/Src/stm32f4xx_ll_usb.c ****   * @retval HAL state
1738:Drivers/STM32F4xx_HAL_Driver/Src/stm32f4xx_ll_usb.c ****   */
1739:Drivers/STM32F4xx_HAL_Driver/Src/stm32f4xx_ll_usb.c **** HAL_StatusTypeDef USB_HC_Init(USB_OTG_GlobalTypeDef *USBx, uint8_t ch_num,
1740:Drivers/STM32F4xx_HAL_Driver/Src/stm32f4xx_ll_usb.c ****                               uint8_t epnum, uint8_t dev_address, uint8_t speed,
1741:Drivers/STM32F4xx_HAL_Driver/Src/stm32f4xx_ll_usb.c ****                               uint8_t ep_type, uint16_t mps)
1742:Drivers/STM32F4xx_HAL_Driver/Src/stm32f4xx_ll_usb.c **** {
 4258              		.loc 1 1742 1 is_stmt 1 view -0
 4259              		.cfi_startproc
 4260              		@ args = 12, pretend = 0, frame = 0
 4261              		@ frame_needed = 0, uses_anonymous_args = 0
 4262              		.loc 1 1742 1 is_stmt 0 view .LVU1357
 4263 0000 2DE9F843 		push	{r3, r4, r5, r6, r7, r8, r9, lr}
 4264              	.LCFI60:
 4265              		.cfi_def_cfa_offset 32
 4266              		.cfi_offset 3, -32
 4267              		.cfi_offset 4, -28
 4268              		.cfi_offset 5, -24
 4269              		.cfi_offset 6, -20
 4270              		.cfi_offset 7, -16
 4271              		.cfi_offset 8, -12
 4272              		.cfi_offset 9, -8
 4273              		.cfi_offset 14, -4
 4274 0004 9146     		mov	r9, r2
 4275 0006 1C46     		mov	r4, r3
 4276 0008 9DF82450 		ldrb	r5, [sp, #36]	@ zero_extendqisi2
1743:Drivers/STM32F4xx_HAL_Driver/Src/stm32f4xx_ll_usb.c ****   HAL_StatusTypeDef ret = HAL_OK;
 4277              		.loc 1 1743 3 is_stmt 1 view .LVU1358
 4278              	.LVL340:
1744:Drivers/STM32F4xx_HAL_Driver/Src/stm32f4xx_ll_usb.c ****   uint32_t USBx_BASE = (uint32_t)USBx;
 4279              		.loc 1 1744 3 view .LVU1359
ARM GAS  /tmp/ccfbcrWA.s 			page 126


1745:Drivers/STM32F4xx_HAL_Driver/Src/stm32f4xx_ll_usb.c ****   uint32_t HCcharEpDir;
 4280              		.loc 1 1745 3 view .LVU1360
1746:Drivers/STM32F4xx_HAL_Driver/Src/stm32f4xx_ll_usb.c ****   uint32_t HCcharLowSpeed;
 4281              		.loc 1 1746 3 view .LVU1361
1747:Drivers/STM32F4xx_HAL_Driver/Src/stm32f4xx_ll_usb.c ****   uint32_t HostCoreSpeed;
 4282              		.loc 1 1747 3 view .LVU1362
1748:Drivers/STM32F4xx_HAL_Driver/Src/stm32f4xx_ll_usb.c **** 
1749:Drivers/STM32F4xx_HAL_Driver/Src/stm32f4xx_ll_usb.c ****   /* Clear old interrupt conditions for this host channel. */
1750:Drivers/STM32F4xx_HAL_Driver/Src/stm32f4xx_ll_usb.c ****   USBx_HC((uint32_t)ch_num)->HCINT = 0xFFFFFFFFU;
 4283              		.loc 1 1750 3 view .LVU1363
 4284 000c 00EB4116 		add	r6, r0, r1, lsl #5
 4285 0010 06F5A063 		add	r3, r6, #1280
 4286              	.LVL341:
 4287              		.loc 1 1750 36 is_stmt 0 view .LVU1364
 4288 0014 4FF0FF32 		mov	r2, #-1
 4289              	.LVL342:
 4290              		.loc 1 1750 36 view .LVU1365
 4291 0018 9A60     		str	r2, [r3, #8]
1751:Drivers/STM32F4xx_HAL_Driver/Src/stm32f4xx_ll_usb.c **** 
1752:Drivers/STM32F4xx_HAL_Driver/Src/stm32f4xx_ll_usb.c ****   /* Enable channel interrupts required for this transfer. */
1753:Drivers/STM32F4xx_HAL_Driver/Src/stm32f4xx_ll_usb.c ****   switch (ep_type)
 4292              		.loc 1 1753 3 is_stmt 1 view .LVU1366
 4293 001a 032D     		cmp	r5, #3
 4294 001c 76D8     		bhi	.L277
 4295 001e DFE805F0 		tbb	[pc, r5]
 4296              	.L269:
 4297 0022 02       		.byte	(.L270-.L269)/2
 4298 0023 67       		.byte	(.L271-.L269)/2
 4299 0024 02       		.byte	(.L270-.L269)/2
 4300 0025 18       		.byte	(.L268-.L269)/2
 4301              		.p2align 1
 4302              	.L270:
1754:Drivers/STM32F4xx_HAL_Driver/Src/stm32f4xx_ll_usb.c ****   {
1755:Drivers/STM32F4xx_HAL_Driver/Src/stm32f4xx_ll_usb.c ****     case EP_TYPE_CTRL:
1756:Drivers/STM32F4xx_HAL_Driver/Src/stm32f4xx_ll_usb.c ****     case EP_TYPE_BULK:
1757:Drivers/STM32F4xx_HAL_Driver/Src/stm32f4xx_ll_usb.c ****       USBx_HC((uint32_t)ch_num)->HCINTMSK = USB_OTG_HCINTMSK_XFRCM  |
 4303              		.loc 1 1757 7 view .LVU1367
 4304              		.loc 1 1757 43 is_stmt 0 view .LVU1368
 4305 0026 40F29D42 		movw	r2, #1181
 4306 002a DA60     		str	r2, [r3, #12]
1758:Drivers/STM32F4xx_HAL_Driver/Src/stm32f4xx_ll_usb.c ****                                             USB_OTG_HCINTMSK_STALLM |
1759:Drivers/STM32F4xx_HAL_Driver/Src/stm32f4xx_ll_usb.c ****                                             USB_OTG_HCINTMSK_TXERRM |
1760:Drivers/STM32F4xx_HAL_Driver/Src/stm32f4xx_ll_usb.c ****                                             USB_OTG_HCINTMSK_DTERRM |
1761:Drivers/STM32F4xx_HAL_Driver/Src/stm32f4xx_ll_usb.c ****                                             USB_OTG_HCINTMSK_AHBERR |
1762:Drivers/STM32F4xx_HAL_Driver/Src/stm32f4xx_ll_usb.c ****                                             USB_OTG_HCINTMSK_NAKM;
1763:Drivers/STM32F4xx_HAL_Driver/Src/stm32f4xx_ll_usb.c **** 
1764:Drivers/STM32F4xx_HAL_Driver/Src/stm32f4xx_ll_usb.c ****       if ((epnum & 0x80U) == 0x80U)
 4307              		.loc 1 1764 7 is_stmt 1 view .LVU1369
 4308              		.loc 1 1764 10 is_stmt 0 view .LVU1370
 4309 002c 19F0800F 		tst	r9, #128
 4310 0030 09D1     		bne	.L285
1765:Drivers/STM32F4xx_HAL_Driver/Src/stm32f4xx_ll_usb.c ****       {
1766:Drivers/STM32F4xx_HAL_Driver/Src/stm32f4xx_ll_usb.c ****         USBx_HC((uint32_t)ch_num)->HCINTMSK |= USB_OTG_HCINTMSK_BBERRM;
1767:Drivers/STM32F4xx_HAL_Driver/Src/stm32f4xx_ll_usb.c ****       }
1768:Drivers/STM32F4xx_HAL_Driver/Src/stm32f4xx_ll_usb.c ****       else
1769:Drivers/STM32F4xx_HAL_Driver/Src/stm32f4xx_ll_usb.c ****       {
1770:Drivers/STM32F4xx_HAL_Driver/Src/stm32f4xx_ll_usb.c ****         if ((USBx->CID & (0x1U << 8)) != 0U)
ARM GAS  /tmp/ccfbcrWA.s 			page 127


 4311              		.loc 1 1770 9 is_stmt 1 view .LVU1371
 4312              		.loc 1 1770 18 is_stmt 0 view .LVU1372
 4313 0032 C26B     		ldr	r2, [r0, #60]
 4314              		.loc 1 1770 12 view .LVU1373
 4315 0034 12F4807F 		tst	r2, #256
 4316 0038 6AD0     		beq	.L278
1771:Drivers/STM32F4xx_HAL_Driver/Src/stm32f4xx_ll_usb.c ****         {
1772:Drivers/STM32F4xx_HAL_Driver/Src/stm32f4xx_ll_usb.c ****           USBx_HC((uint32_t)ch_num)->HCINTMSK |= USB_OTG_HCINTMSK_NYET |
 4317              		.loc 1 1772 11 is_stmt 1 view .LVU1374
 4318              		.loc 1 1772 47 is_stmt 0 view .LVU1375
 4319 003a DA68     		ldr	r2, [r3, #12]
 4320 003c 42F06002 		orr	r2, r2, #96
 4321 0040 DA60     		str	r2, [r3, #12]
1743:Drivers/STM32F4xx_HAL_Driver/Src/stm32f4xx_ll_usb.c ****   uint32_t USBx_BASE = (uint32_t)USBx;
 4322              		.loc 1 1743 21 view .LVU1376
 4323 0042 0027     		movs	r7, #0
 4324 0044 0CE0     		b	.L267
 4325              	.L285:
1766:Drivers/STM32F4xx_HAL_Driver/Src/stm32f4xx_ll_usb.c ****       }
 4326              		.loc 1 1766 9 is_stmt 1 view .LVU1377
1766:Drivers/STM32F4xx_HAL_Driver/Src/stm32f4xx_ll_usb.c ****       }
 4327              		.loc 1 1766 45 is_stmt 0 view .LVU1378
 4328 0046 DA68     		ldr	r2, [r3, #12]
 4329 0048 42F48072 		orr	r2, r2, #256
 4330 004c DA60     		str	r2, [r3, #12]
1743:Drivers/STM32F4xx_HAL_Driver/Src/stm32f4xx_ll_usb.c ****   uint32_t USBx_BASE = (uint32_t)USBx;
 4331              		.loc 1 1743 21 view .LVU1379
 4332 004e 0027     		movs	r7, #0
 4333 0050 06E0     		b	.L267
 4334              	.L268:
1773:Drivers/STM32F4xx_HAL_Driver/Src/stm32f4xx_ll_usb.c ****                                                  USB_OTG_HCINTMSK_ACKM;
1774:Drivers/STM32F4xx_HAL_Driver/Src/stm32f4xx_ll_usb.c ****         }
1775:Drivers/STM32F4xx_HAL_Driver/Src/stm32f4xx_ll_usb.c ****       }
1776:Drivers/STM32F4xx_HAL_Driver/Src/stm32f4xx_ll_usb.c ****       break;
1777:Drivers/STM32F4xx_HAL_Driver/Src/stm32f4xx_ll_usb.c **** 
1778:Drivers/STM32F4xx_HAL_Driver/Src/stm32f4xx_ll_usb.c ****     case EP_TYPE_INTR:
1779:Drivers/STM32F4xx_HAL_Driver/Src/stm32f4xx_ll_usb.c ****       USBx_HC((uint32_t)ch_num)->HCINTMSK = USB_OTG_HCINTMSK_XFRCM  |
 4335              		.loc 1 1779 7 is_stmt 1 view .LVU1380
 4336              		.loc 1 1779 43 is_stmt 0 view .LVU1381
 4337 0052 40F29D62 		movw	r2, #1693
 4338 0056 DA60     		str	r2, [r3, #12]
1780:Drivers/STM32F4xx_HAL_Driver/Src/stm32f4xx_ll_usb.c ****                                             USB_OTG_HCINTMSK_STALLM |
1781:Drivers/STM32F4xx_HAL_Driver/Src/stm32f4xx_ll_usb.c ****                                             USB_OTG_HCINTMSK_TXERRM |
1782:Drivers/STM32F4xx_HAL_Driver/Src/stm32f4xx_ll_usb.c ****                                             USB_OTG_HCINTMSK_DTERRM |
1783:Drivers/STM32F4xx_HAL_Driver/Src/stm32f4xx_ll_usb.c ****                                             USB_OTG_HCINTMSK_NAKM   |
1784:Drivers/STM32F4xx_HAL_Driver/Src/stm32f4xx_ll_usb.c ****                                             USB_OTG_HCINTMSK_AHBERR |
1785:Drivers/STM32F4xx_HAL_Driver/Src/stm32f4xx_ll_usb.c ****                                             USB_OTG_HCINTMSK_FRMORM;
1786:Drivers/STM32F4xx_HAL_Driver/Src/stm32f4xx_ll_usb.c **** 
1787:Drivers/STM32F4xx_HAL_Driver/Src/stm32f4xx_ll_usb.c ****       if ((epnum & 0x80U) == 0x80U)
 4339              		.loc 1 1787 7 is_stmt 1 view .LVU1382
 4340              		.loc 1 1787 10 is_stmt 0 view .LVU1383
 4341 0058 19F0800F 		tst	r9, #128
 4342 005c 42D1     		bne	.L286
1743:Drivers/STM32F4xx_HAL_Driver/Src/stm32f4xx_ll_usb.c ****   uint32_t USBx_BASE = (uint32_t)USBx;
 4343              		.loc 1 1743 21 view .LVU1384
 4344 005e 0027     		movs	r7, #0
 4345              	.L267:
ARM GAS  /tmp/ccfbcrWA.s 			page 128


 4346              	.LVL343:
1788:Drivers/STM32F4xx_HAL_Driver/Src/stm32f4xx_ll_usb.c ****       {
1789:Drivers/STM32F4xx_HAL_Driver/Src/stm32f4xx_ll_usb.c ****         USBx_HC((uint32_t)ch_num)->HCINTMSK |= USB_OTG_HCINTMSK_BBERRM;
1790:Drivers/STM32F4xx_HAL_Driver/Src/stm32f4xx_ll_usb.c ****       }
1791:Drivers/STM32F4xx_HAL_Driver/Src/stm32f4xx_ll_usb.c **** 
1792:Drivers/STM32F4xx_HAL_Driver/Src/stm32f4xx_ll_usb.c ****       break;
1793:Drivers/STM32F4xx_HAL_Driver/Src/stm32f4xx_ll_usb.c **** 
1794:Drivers/STM32F4xx_HAL_Driver/Src/stm32f4xx_ll_usb.c ****     case EP_TYPE_ISOC:
1795:Drivers/STM32F4xx_HAL_Driver/Src/stm32f4xx_ll_usb.c ****       USBx_HC((uint32_t)ch_num)->HCINTMSK = USB_OTG_HCINTMSK_XFRCM  |
1796:Drivers/STM32F4xx_HAL_Driver/Src/stm32f4xx_ll_usb.c ****                                             USB_OTG_HCINTMSK_ACKM   |
1797:Drivers/STM32F4xx_HAL_Driver/Src/stm32f4xx_ll_usb.c ****                                             USB_OTG_HCINTMSK_AHBERR |
1798:Drivers/STM32F4xx_HAL_Driver/Src/stm32f4xx_ll_usb.c ****                                             USB_OTG_HCINTMSK_FRMORM;
1799:Drivers/STM32F4xx_HAL_Driver/Src/stm32f4xx_ll_usb.c **** 
1800:Drivers/STM32F4xx_HAL_Driver/Src/stm32f4xx_ll_usb.c ****       if ((epnum & 0x80U) == 0x80U)
1801:Drivers/STM32F4xx_HAL_Driver/Src/stm32f4xx_ll_usb.c ****       {
1802:Drivers/STM32F4xx_HAL_Driver/Src/stm32f4xx_ll_usb.c ****         USBx_HC((uint32_t)ch_num)->HCINTMSK |= (USB_OTG_HCINTMSK_TXERRM | USB_OTG_HCINTMSK_BBERRM);
1803:Drivers/STM32F4xx_HAL_Driver/Src/stm32f4xx_ll_usb.c ****       }
1804:Drivers/STM32F4xx_HAL_Driver/Src/stm32f4xx_ll_usb.c ****       break;
1805:Drivers/STM32F4xx_HAL_Driver/Src/stm32f4xx_ll_usb.c **** 
1806:Drivers/STM32F4xx_HAL_Driver/Src/stm32f4xx_ll_usb.c ****     default:
1807:Drivers/STM32F4xx_HAL_Driver/Src/stm32f4xx_ll_usb.c ****       ret = HAL_ERROR;
1808:Drivers/STM32F4xx_HAL_Driver/Src/stm32f4xx_ll_usb.c ****       break;
1809:Drivers/STM32F4xx_HAL_Driver/Src/stm32f4xx_ll_usb.c ****   }
1810:Drivers/STM32F4xx_HAL_Driver/Src/stm32f4xx_ll_usb.c **** 
1811:Drivers/STM32F4xx_HAL_Driver/Src/stm32f4xx_ll_usb.c ****   /* Enable host channel Halt interrupt */
1812:Drivers/STM32F4xx_HAL_Driver/Src/stm32f4xx_ll_usb.c ****   USBx_HC((uint32_t)ch_num)->HCINTMSK |= USB_OTG_HCINTMSK_CHHM;
 4347              		.loc 1 1812 3 is_stmt 1 view .LVU1385
 4348              		.loc 1 1812 39 is_stmt 0 view .LVU1386
 4349 0060 DA68     		ldr	r2, [r3, #12]
 4350 0062 42F00202 		orr	r2, r2, #2
 4351 0066 DA60     		str	r2, [r3, #12]
1813:Drivers/STM32F4xx_HAL_Driver/Src/stm32f4xx_ll_usb.c **** 
1814:Drivers/STM32F4xx_HAL_Driver/Src/stm32f4xx_ll_usb.c ****   /* Enable the top level host channel interrupt. */
1815:Drivers/STM32F4xx_HAL_Driver/Src/stm32f4xx_ll_usb.c ****   USBx_HOST->HAINTMSK |= 1UL << (ch_num & 0xFU);
 4352              		.loc 1 1815 3 is_stmt 1 view .LVU1387
 4353              		.loc 1 1815 23 is_stmt 0 view .LVU1388
 4354 0068 D0F81834 		ldr	r3, [r0, #1048]
 4355              		.loc 1 1815 41 view .LVU1389
 4356 006c 01F00F01 		and	r1, r1, #15
 4357              	.LVL344:
 4358              		.loc 1 1815 30 view .LVU1390
 4359 0070 0122     		movs	r2, #1
 4360 0072 02FA01F1 		lsl	r1, r2, r1
 4361              		.loc 1 1815 23 view .LVU1391
 4362 0076 1943     		orrs	r1, r1, r3
 4363 0078 C0F81814 		str	r1, [r0, #1048]
1816:Drivers/STM32F4xx_HAL_Driver/Src/stm32f4xx_ll_usb.c **** 
1817:Drivers/STM32F4xx_HAL_Driver/Src/stm32f4xx_ll_usb.c ****   /* Make sure host channel interrupts are enabled. */
1818:Drivers/STM32F4xx_HAL_Driver/Src/stm32f4xx_ll_usb.c ****   USBx->GINTMSK |= USB_OTG_GINTMSK_HCIM;
 4364              		.loc 1 1818 3 is_stmt 1 view .LVU1392
 4365              		.loc 1 1818 17 is_stmt 0 view .LVU1393
 4366 007c 8369     		ldr	r3, [r0, #24]
 4367 007e 43F00073 		orr	r3, r3, #33554432
 4368 0082 8361     		str	r3, [r0, #24]
1819:Drivers/STM32F4xx_HAL_Driver/Src/stm32f4xx_ll_usb.c **** 
1820:Drivers/STM32F4xx_HAL_Driver/Src/stm32f4xx_ll_usb.c ****   /* Program the HCCHAR register */
1821:Drivers/STM32F4xx_HAL_Driver/Src/stm32f4xx_ll_usb.c ****   if ((epnum & 0x80U) == 0x80U)
ARM GAS  /tmp/ccfbcrWA.s 			page 129


 4369              		.loc 1 1821 3 is_stmt 1 view .LVU1394
 4370              		.loc 1 1821 6 is_stmt 0 view .LVU1395
 4371 0084 19F0800F 		tst	r9, #128
 4372 0088 44D1     		bne	.L287
1822:Drivers/STM32F4xx_HAL_Driver/Src/stm32f4xx_ll_usb.c ****   {
1823:Drivers/STM32F4xx_HAL_Driver/Src/stm32f4xx_ll_usb.c ****     HCcharEpDir = (0x1U << 15) & USB_OTG_HCCHAR_EPDIR;
1824:Drivers/STM32F4xx_HAL_Driver/Src/stm32f4xx_ll_usb.c ****   }
1825:Drivers/STM32F4xx_HAL_Driver/Src/stm32f4xx_ll_usb.c ****   else
1826:Drivers/STM32F4xx_HAL_Driver/Src/stm32f4xx_ll_usb.c ****   {
1827:Drivers/STM32F4xx_HAL_Driver/Src/stm32f4xx_ll_usb.c ****     HCcharEpDir = 0U;
 4373              		.loc 1 1827 17 view .LVU1396
 4374 008a 4FF00008 		mov	r8, #0
 4375              	.L273:
 4376              	.LVL345:
1828:Drivers/STM32F4xx_HAL_Driver/Src/stm32f4xx_ll_usb.c ****   }
1829:Drivers/STM32F4xx_HAL_Driver/Src/stm32f4xx_ll_usb.c **** 
1830:Drivers/STM32F4xx_HAL_Driver/Src/stm32f4xx_ll_usb.c ****   HostCoreSpeed = USB_GetHostSpeed(USBx);
 4377              		.loc 1 1830 3 is_stmt 1 view .LVU1397
 4378              		.loc 1 1830 19 is_stmt 0 view .LVU1398
 4379 008e FFF7FEFF 		bl	USB_GetHostSpeed
 4380              	.LVL346:
1831:Drivers/STM32F4xx_HAL_Driver/Src/stm32f4xx_ll_usb.c **** 
1832:Drivers/STM32F4xx_HAL_Driver/Src/stm32f4xx_ll_usb.c ****   /* LS device plugged to HUB */
1833:Drivers/STM32F4xx_HAL_Driver/Src/stm32f4xx_ll_usb.c ****   if ((speed == HPRT0_PRTSPD_LOW_SPEED) && (HostCoreSpeed != HPRT0_PRTSPD_LOW_SPEED))
 4381              		.loc 1 1833 3 is_stmt 1 view .LVU1399
 4382              		.loc 1 1833 6 is_stmt 0 view .LVU1400
 4383 0092 9DF82030 		ldrb	r3, [sp, #32]	@ zero_extendqisi2
 4384 0096 022B     		cmp	r3, #2
 4385 0098 3FD0     		beq	.L288
1834:Drivers/STM32F4xx_HAL_Driver/Src/stm32f4xx_ll_usb.c ****   {
1835:Drivers/STM32F4xx_HAL_Driver/Src/stm32f4xx_ll_usb.c ****     HCcharLowSpeed = (0x1U << 17) & USB_OTG_HCCHAR_LSDEV;
1836:Drivers/STM32F4xx_HAL_Driver/Src/stm32f4xx_ll_usb.c ****   }
1837:Drivers/STM32F4xx_HAL_Driver/Src/stm32f4xx_ll_usb.c ****   else
1838:Drivers/STM32F4xx_HAL_Driver/Src/stm32f4xx_ll_usb.c ****   {
1839:Drivers/STM32F4xx_HAL_Driver/Src/stm32f4xx_ll_usb.c ****     HCcharLowSpeed = 0U;
 4386              		.loc 1 1839 20 view .LVU1401
 4387 009a 0021     		movs	r1, #0
 4388              	.L274:
 4389              	.LVL347:
1840:Drivers/STM32F4xx_HAL_Driver/Src/stm32f4xx_ll_usb.c ****   }
1841:Drivers/STM32F4xx_HAL_Driver/Src/stm32f4xx_ll_usb.c **** 
1842:Drivers/STM32F4xx_HAL_Driver/Src/stm32f4xx_ll_usb.c ****   USBx_HC((uint32_t)ch_num)->HCCHAR = (((uint32_t)dev_address << 22) & USB_OTG_HCCHAR_DAD) |
 4390              		.loc 1 1842 3 is_stmt 1 view .LVU1402
 4391              		.loc 1 1842 63 is_stmt 0 view .LVU1403
 4392 009c A305     		lsls	r3, r4, #22
 4393              		.loc 1 1842 70 view .LVU1404
 4394 009e 03F0FE53 		and	r3, r3, #532676608
1843:Drivers/STM32F4xx_HAL_Driver/Src/stm32f4xx_ll_usb.c ****                                       ((((uint32_t)epnum & 0x7FU) << 11) & USB_OTG_HCCHAR_EPNUM) |
 4395              		.loc 1 1843 67 view .LVU1405
 4396 00a2 4FEAC929 		lsl	r9, r9, #11
 4397              		.loc 1 1843 74 view .LVU1406
 4398 00a6 09F4F049 		and	r9, r9, #30720
1842:Drivers/STM32F4xx_HAL_Driver/Src/stm32f4xx_ll_usb.c ****                                       ((((uint32_t)epnum & 0x7FU) << 11) & USB_OTG_HCCHAR_EPNUM) |
 4399              		.loc 1 1842 92 view .LVU1407
 4400 00aa 43EA0903 		orr	r3, r3, r9
1844:Drivers/STM32F4xx_HAL_Driver/Src/stm32f4xx_ll_usb.c ****                                       (((uint32_t)ep_type << 18) & USB_OTG_HCCHAR_EPTYP) |
 4401              		.loc 1 1844 59 view .LVU1408
ARM GAS  /tmp/ccfbcrWA.s 			page 130


 4402 00ae AC04     		lsls	r4, r5, #18
 4403              		.loc 1 1844 66 view .LVU1409
 4404 00b0 04F44024 		and	r4, r4, #786432
1843:Drivers/STM32F4xx_HAL_Driver/Src/stm32f4xx_ll_usb.c ****                                       ((((uint32_t)epnum & 0x7FU) << 11) & USB_OTG_HCCHAR_EPNUM) |
 4405              		.loc 1 1843 98 view .LVU1410
 4406 00b4 2343     		orrs	r3, r3, r4
1845:Drivers/STM32F4xx_HAL_Driver/Src/stm32f4xx_ll_usb.c ****                                       ((uint32_t)mps & USB_OTG_HCCHAR_MPSIZ) | HCcharEpDir | HCchar
 4407              		.loc 1 1845 54 view .LVU1411
 4408 00b6 BDF82820 		ldrh	r2, [sp, #40]
 4409 00ba C2F30A02 		ubfx	r2, r2, #0, #11
1844:Drivers/STM32F4xx_HAL_Driver/Src/stm32f4xx_ll_usb.c ****                                       (((uint32_t)ep_type << 18) & USB_OTG_HCCHAR_EPTYP) |
 4410              		.loc 1 1844 90 view .LVU1412
 4411 00be 1343     		orrs	r3, r3, r2
 4412              		.loc 1 1845 78 view .LVU1413
 4413 00c0 43EA0803 		orr	r3, r3, r8
 4414              		.loc 1 1845 92 view .LVU1414
 4415 00c4 0B43     		orrs	r3, r3, r1
1842:Drivers/STM32F4xx_HAL_Driver/Src/stm32f4xx_ll_usb.c ****                                       ((((uint32_t)epnum & 0x7FU) << 11) & USB_OTG_HCCHAR_EPNUM) |
 4416              		.loc 1 1842 37 view .LVU1415
 4417 00c6 C6F80035 		str	r3, [r6, #1280]
1846:Drivers/STM32F4xx_HAL_Driver/Src/stm32f4xx_ll_usb.c **** 
1847:Drivers/STM32F4xx_HAL_Driver/Src/stm32f4xx_ll_usb.c ****   if ((ep_type == EP_TYPE_INTR) || (ep_type == EP_TYPE_ISOC))
 4418              		.loc 1 1847 3 is_stmt 1 view .LVU1416
 4419              		.loc 1 1847 6 is_stmt 0 view .LVU1417
 4420 00ca 032D     		cmp	r5, #3
 4421 00cc 01D0     		beq	.L275
 4422              		.loc 1 1847 33 discriminator 1 view .LVU1418
 4423 00ce 012D     		cmp	r5, #1
 4424 00d0 05D1     		bne	.L276
 4425              	.L275:
1848:Drivers/STM32F4xx_HAL_Driver/Src/stm32f4xx_ll_usb.c ****   {
1849:Drivers/STM32F4xx_HAL_Driver/Src/stm32f4xx_ll_usb.c ****     USBx_HC((uint32_t)ch_num)->HCCHAR |= USB_OTG_HCCHAR_ODDFRM;
 4426              		.loc 1 1849 5 is_stmt 1 view .LVU1419
 4427              		.loc 1 1849 39 is_stmt 0 view .LVU1420
 4428 00d2 D6F80035 		ldr	r3, [r6, #1280]
 4429 00d6 43F00053 		orr	r3, r3, #536870912
 4430 00da C6F80035 		str	r3, [r6, #1280]
 4431              	.L276:
1850:Drivers/STM32F4xx_HAL_Driver/Src/stm32f4xx_ll_usb.c ****   }
1851:Drivers/STM32F4xx_HAL_Driver/Src/stm32f4xx_ll_usb.c **** 
1852:Drivers/STM32F4xx_HAL_Driver/Src/stm32f4xx_ll_usb.c ****   return ret;
 4432              		.loc 1 1852 3 is_stmt 1 view .LVU1421
1853:Drivers/STM32F4xx_HAL_Driver/Src/stm32f4xx_ll_usb.c **** }
 4433              		.loc 1 1853 1 is_stmt 0 view .LVU1422
 4434 00de 3846     		mov	r0, r7
 4435              	.LVL348:
 4436              		.loc 1 1853 1 view .LVU1423
 4437 00e0 BDE8F883 		pop	{r3, r4, r5, r6, r7, r8, r9, pc}
 4438              	.LVL349:
 4439              	.L286:
1789:Drivers/STM32F4xx_HAL_Driver/Src/stm32f4xx_ll_usb.c ****       }
 4440              		.loc 1 1789 9 is_stmt 1 view .LVU1424
1789:Drivers/STM32F4xx_HAL_Driver/Src/stm32f4xx_ll_usb.c ****       }
 4441              		.loc 1 1789 45 is_stmt 0 view .LVU1425
 4442 00e4 DA68     		ldr	r2, [r3, #12]
 4443 00e6 42F48072 		orr	r2, r2, #256
 4444 00ea DA60     		str	r2, [r3, #12]
ARM GAS  /tmp/ccfbcrWA.s 			page 131


1743:Drivers/STM32F4xx_HAL_Driver/Src/stm32f4xx_ll_usb.c ****   uint32_t USBx_BASE = (uint32_t)USBx;
 4445              		.loc 1 1743 21 view .LVU1426
 4446 00ec 0027     		movs	r7, #0
 4447 00ee B7E7     		b	.L267
 4448              	.L271:
1795:Drivers/STM32F4xx_HAL_Driver/Src/stm32f4xx_ll_usb.c ****                                             USB_OTG_HCINTMSK_ACKM   |
 4449              		.loc 1 1795 7 is_stmt 1 view .LVU1427
1795:Drivers/STM32F4xx_HAL_Driver/Src/stm32f4xx_ll_usb.c ****                                             USB_OTG_HCINTMSK_ACKM   |
 4450              		.loc 1 1795 43 is_stmt 0 view .LVU1428
 4451 00f0 40F22522 		movw	r2, #549
 4452 00f4 DA60     		str	r2, [r3, #12]
1800:Drivers/STM32F4xx_HAL_Driver/Src/stm32f4xx_ll_usb.c ****       {
 4453              		.loc 1 1800 7 is_stmt 1 view .LVU1429
1800:Drivers/STM32F4xx_HAL_Driver/Src/stm32f4xx_ll_usb.c ****       {
 4454              		.loc 1 1800 10 is_stmt 0 view .LVU1430
 4455 00f6 19F0800F 		tst	r9, #128
 4456 00fa 01D1     		bne	.L289
1743:Drivers/STM32F4xx_HAL_Driver/Src/stm32f4xx_ll_usb.c ****   uint32_t USBx_BASE = (uint32_t)USBx;
 4457              		.loc 1 1743 21 view .LVU1431
 4458 00fc 0027     		movs	r7, #0
 4459 00fe AFE7     		b	.L267
 4460              	.L289:
1802:Drivers/STM32F4xx_HAL_Driver/Src/stm32f4xx_ll_usb.c ****       }
 4461              		.loc 1 1802 9 is_stmt 1 view .LVU1432
1802:Drivers/STM32F4xx_HAL_Driver/Src/stm32f4xx_ll_usb.c ****       }
 4462              		.loc 1 1802 45 is_stmt 0 view .LVU1433
 4463 0100 DA68     		ldr	r2, [r3, #12]
 4464 0102 42F4C072 		orr	r2, r2, #384
 4465 0106 DA60     		str	r2, [r3, #12]
1743:Drivers/STM32F4xx_HAL_Driver/Src/stm32f4xx_ll_usb.c ****   uint32_t USBx_BASE = (uint32_t)USBx;
 4466              		.loc 1 1743 21 view .LVU1434
 4467 0108 0027     		movs	r7, #0
 4468 010a A9E7     		b	.L267
 4469              	.L277:
1753:Drivers/STM32F4xx_HAL_Driver/Src/stm32f4xx_ll_usb.c ****   {
 4470              		.loc 1 1753 3 view .LVU1435
 4471 010c 0127     		movs	r7, #1
 4472 010e A7E7     		b	.L267
 4473              	.L278:
1743:Drivers/STM32F4xx_HAL_Driver/Src/stm32f4xx_ll_usb.c ****   uint32_t USBx_BASE = (uint32_t)USBx;
 4474              		.loc 1 1743 21 view .LVU1436
 4475 0110 0027     		movs	r7, #0
 4476 0112 A5E7     		b	.L267
 4477              	.LVL350:
 4478              	.L287:
1823:Drivers/STM32F4xx_HAL_Driver/Src/stm32f4xx_ll_usb.c ****   }
 4479              		.loc 1 1823 17 view .LVU1437
 4480 0114 4FF40048 		mov	r8, #32768
 4481 0118 B9E7     		b	.L273
 4482              	.LVL351:
 4483              	.L288:
1833:Drivers/STM32F4xx_HAL_Driver/Src/stm32f4xx_ll_usb.c ****   {
 4484              		.loc 1 1833 41 discriminator 1 view .LVU1438
 4485 011a 0228     		cmp	r0, #2
 4486 011c 02D0     		beq	.L290
1835:Drivers/STM32F4xx_HAL_Driver/Src/stm32f4xx_ll_usb.c ****   }
 4487              		.loc 1 1835 20 view .LVU1439
ARM GAS  /tmp/ccfbcrWA.s 			page 132


 4488 011e 4FF40031 		mov	r1, #131072
 4489 0122 BBE7     		b	.L274
 4490              	.L290:
1839:Drivers/STM32F4xx_HAL_Driver/Src/stm32f4xx_ll_usb.c ****   }
 4491              		.loc 1 1839 20 view .LVU1440
 4492 0124 0021     		movs	r1, #0
 4493 0126 B9E7     		b	.L274
 4494              		.cfi_endproc
 4495              	.LFE171:
 4497              		.section	.text.USB_HC_ReadInterrupt,"ax",%progbits
 4498              		.align	1
 4499              		.global	USB_HC_ReadInterrupt
 4500              		.syntax unified
 4501              		.thumb
 4502              		.thumb_func
 4503              		.fpu fpv4-sp-d16
 4505              	USB_HC_ReadInterrupt:
 4506              	.LVL352:
 4507              	.LFB173:
1854:Drivers/STM32F4xx_HAL_Driver/Src/stm32f4xx_ll_usb.c **** 
1855:Drivers/STM32F4xx_HAL_Driver/Src/stm32f4xx_ll_usb.c **** /**
1856:Drivers/STM32F4xx_HAL_Driver/Src/stm32f4xx_ll_usb.c ****   * @brief  Start a transfer over a host channel
1857:Drivers/STM32F4xx_HAL_Driver/Src/stm32f4xx_ll_usb.c ****   * @param  USBx  Selected device
1858:Drivers/STM32F4xx_HAL_Driver/Src/stm32f4xx_ll_usb.c ****   * @param  hc  pointer to host channel structure
1859:Drivers/STM32F4xx_HAL_Driver/Src/stm32f4xx_ll_usb.c ****   * @param  dma USB dma enabled or disabled
1860:Drivers/STM32F4xx_HAL_Driver/Src/stm32f4xx_ll_usb.c ****   *          This parameter can be one of these values:
1861:Drivers/STM32F4xx_HAL_Driver/Src/stm32f4xx_ll_usb.c ****   *           0 : DMA feature not used
1862:Drivers/STM32F4xx_HAL_Driver/Src/stm32f4xx_ll_usb.c ****   *           1 : DMA feature used
1863:Drivers/STM32F4xx_HAL_Driver/Src/stm32f4xx_ll_usb.c ****   * @retval HAL state
1864:Drivers/STM32F4xx_HAL_Driver/Src/stm32f4xx_ll_usb.c ****   */
1865:Drivers/STM32F4xx_HAL_Driver/Src/stm32f4xx_ll_usb.c **** HAL_StatusTypeDef USB_HC_StartXfer(USB_OTG_GlobalTypeDef *USBx, USB_OTG_HCTypeDef *hc, uint8_t dma)
1866:Drivers/STM32F4xx_HAL_Driver/Src/stm32f4xx_ll_usb.c **** {
1867:Drivers/STM32F4xx_HAL_Driver/Src/stm32f4xx_ll_usb.c ****   uint32_t USBx_BASE = (uint32_t)USBx;
1868:Drivers/STM32F4xx_HAL_Driver/Src/stm32f4xx_ll_usb.c ****   uint32_t ch_num = (uint32_t)hc->ch_num;
1869:Drivers/STM32F4xx_HAL_Driver/Src/stm32f4xx_ll_usb.c ****   __IO uint32_t tmpreg;
1870:Drivers/STM32F4xx_HAL_Driver/Src/stm32f4xx_ll_usb.c ****   uint8_t  is_oddframe;
1871:Drivers/STM32F4xx_HAL_Driver/Src/stm32f4xx_ll_usb.c ****   uint16_t len_words;
1872:Drivers/STM32F4xx_HAL_Driver/Src/stm32f4xx_ll_usb.c ****   uint16_t num_packets;
1873:Drivers/STM32F4xx_HAL_Driver/Src/stm32f4xx_ll_usb.c ****   uint16_t max_hc_pkt_count = 256U;
1874:Drivers/STM32F4xx_HAL_Driver/Src/stm32f4xx_ll_usb.c **** 
1875:Drivers/STM32F4xx_HAL_Driver/Src/stm32f4xx_ll_usb.c ****   if (((USBx->CID & (0x1U << 8)) != 0U) && (hc->speed == USBH_HS_SPEED))
1876:Drivers/STM32F4xx_HAL_Driver/Src/stm32f4xx_ll_usb.c ****   {
1877:Drivers/STM32F4xx_HAL_Driver/Src/stm32f4xx_ll_usb.c ****     /* in DMA mode host Core automatically issues ping  in case of NYET/NAK */
1878:Drivers/STM32F4xx_HAL_Driver/Src/stm32f4xx_ll_usb.c ****     if ((dma == 1U) && ((hc->ep_type == EP_TYPE_CTRL) || (hc->ep_type == EP_TYPE_BULK)))
1879:Drivers/STM32F4xx_HAL_Driver/Src/stm32f4xx_ll_usb.c ****     {
1880:Drivers/STM32F4xx_HAL_Driver/Src/stm32f4xx_ll_usb.c ****       USBx_HC((uint32_t)ch_num)->HCINTMSK &= ~(USB_OTG_HCINTMSK_NYET |
1881:Drivers/STM32F4xx_HAL_Driver/Src/stm32f4xx_ll_usb.c ****                                                USB_OTG_HCINTMSK_ACKM |
1882:Drivers/STM32F4xx_HAL_Driver/Src/stm32f4xx_ll_usb.c ****                                                USB_OTG_HCINTMSK_NAKM);
1883:Drivers/STM32F4xx_HAL_Driver/Src/stm32f4xx_ll_usb.c ****     }
1884:Drivers/STM32F4xx_HAL_Driver/Src/stm32f4xx_ll_usb.c **** 
1885:Drivers/STM32F4xx_HAL_Driver/Src/stm32f4xx_ll_usb.c ****     if ((dma == 0U) && (hc->do_ping == 1U))
1886:Drivers/STM32F4xx_HAL_Driver/Src/stm32f4xx_ll_usb.c ****     {
1887:Drivers/STM32F4xx_HAL_Driver/Src/stm32f4xx_ll_usb.c ****       (void)USB_DoPing(USBx, hc->ch_num);
1888:Drivers/STM32F4xx_HAL_Driver/Src/stm32f4xx_ll_usb.c ****       return HAL_OK;
1889:Drivers/STM32F4xx_HAL_Driver/Src/stm32f4xx_ll_usb.c ****     }
1890:Drivers/STM32F4xx_HAL_Driver/Src/stm32f4xx_ll_usb.c **** 
1891:Drivers/STM32F4xx_HAL_Driver/Src/stm32f4xx_ll_usb.c ****   }
ARM GAS  /tmp/ccfbcrWA.s 			page 133


1892:Drivers/STM32F4xx_HAL_Driver/Src/stm32f4xx_ll_usb.c **** 
1893:Drivers/STM32F4xx_HAL_Driver/Src/stm32f4xx_ll_usb.c ****   /* Compute the expected number of packets associated to the transfer */
1894:Drivers/STM32F4xx_HAL_Driver/Src/stm32f4xx_ll_usb.c ****   if (hc->xfer_len > 0U)
1895:Drivers/STM32F4xx_HAL_Driver/Src/stm32f4xx_ll_usb.c ****   {
1896:Drivers/STM32F4xx_HAL_Driver/Src/stm32f4xx_ll_usb.c ****     num_packets = (uint16_t)((hc->xfer_len + hc->max_packet - 1U) / hc->max_packet);
1897:Drivers/STM32F4xx_HAL_Driver/Src/stm32f4xx_ll_usb.c **** 
1898:Drivers/STM32F4xx_HAL_Driver/Src/stm32f4xx_ll_usb.c ****     if (num_packets > max_hc_pkt_count)
1899:Drivers/STM32F4xx_HAL_Driver/Src/stm32f4xx_ll_usb.c ****     {
1900:Drivers/STM32F4xx_HAL_Driver/Src/stm32f4xx_ll_usb.c ****       num_packets = max_hc_pkt_count;
1901:Drivers/STM32F4xx_HAL_Driver/Src/stm32f4xx_ll_usb.c ****       hc->XferSize = (uint32_t)num_packets * hc->max_packet;
1902:Drivers/STM32F4xx_HAL_Driver/Src/stm32f4xx_ll_usb.c ****     }
1903:Drivers/STM32F4xx_HAL_Driver/Src/stm32f4xx_ll_usb.c ****   }
1904:Drivers/STM32F4xx_HAL_Driver/Src/stm32f4xx_ll_usb.c ****   else
1905:Drivers/STM32F4xx_HAL_Driver/Src/stm32f4xx_ll_usb.c ****   {
1906:Drivers/STM32F4xx_HAL_Driver/Src/stm32f4xx_ll_usb.c ****     num_packets = 1U;
1907:Drivers/STM32F4xx_HAL_Driver/Src/stm32f4xx_ll_usb.c ****   }
1908:Drivers/STM32F4xx_HAL_Driver/Src/stm32f4xx_ll_usb.c **** 
1909:Drivers/STM32F4xx_HAL_Driver/Src/stm32f4xx_ll_usb.c ****   /*
1910:Drivers/STM32F4xx_HAL_Driver/Src/stm32f4xx_ll_usb.c ****    * For IN channel HCTSIZ.XferSize is expected to be an integer multiple of
1911:Drivers/STM32F4xx_HAL_Driver/Src/stm32f4xx_ll_usb.c ****    * max_packet size.
1912:Drivers/STM32F4xx_HAL_Driver/Src/stm32f4xx_ll_usb.c ****    */
1913:Drivers/STM32F4xx_HAL_Driver/Src/stm32f4xx_ll_usb.c ****   if (hc->ep_is_in != 0U)
1914:Drivers/STM32F4xx_HAL_Driver/Src/stm32f4xx_ll_usb.c ****   {
1915:Drivers/STM32F4xx_HAL_Driver/Src/stm32f4xx_ll_usb.c ****     hc->XferSize = (uint32_t)num_packets * hc->max_packet;
1916:Drivers/STM32F4xx_HAL_Driver/Src/stm32f4xx_ll_usb.c ****   }
1917:Drivers/STM32F4xx_HAL_Driver/Src/stm32f4xx_ll_usb.c ****   else
1918:Drivers/STM32F4xx_HAL_Driver/Src/stm32f4xx_ll_usb.c ****   {
1919:Drivers/STM32F4xx_HAL_Driver/Src/stm32f4xx_ll_usb.c ****     hc->XferSize = hc->xfer_len;
1920:Drivers/STM32F4xx_HAL_Driver/Src/stm32f4xx_ll_usb.c ****   }
1921:Drivers/STM32F4xx_HAL_Driver/Src/stm32f4xx_ll_usb.c **** 
1922:Drivers/STM32F4xx_HAL_Driver/Src/stm32f4xx_ll_usb.c ****   /* Initialize the HCTSIZn register */
1923:Drivers/STM32F4xx_HAL_Driver/Src/stm32f4xx_ll_usb.c ****   USBx_HC(ch_num)->HCTSIZ = (hc->XferSize & USB_OTG_HCTSIZ_XFRSIZ) |
1924:Drivers/STM32F4xx_HAL_Driver/Src/stm32f4xx_ll_usb.c ****                             (((uint32_t)num_packets << 19) & USB_OTG_HCTSIZ_PKTCNT) |
1925:Drivers/STM32F4xx_HAL_Driver/Src/stm32f4xx_ll_usb.c ****                             (((uint32_t)hc->data_pid << 29) & USB_OTG_HCTSIZ_DPID);
1926:Drivers/STM32F4xx_HAL_Driver/Src/stm32f4xx_ll_usb.c **** 
1927:Drivers/STM32F4xx_HAL_Driver/Src/stm32f4xx_ll_usb.c ****   if (dma != 0U)
1928:Drivers/STM32F4xx_HAL_Driver/Src/stm32f4xx_ll_usb.c ****   {
1929:Drivers/STM32F4xx_HAL_Driver/Src/stm32f4xx_ll_usb.c ****     /* xfer_buff MUST be 32-bits aligned */
1930:Drivers/STM32F4xx_HAL_Driver/Src/stm32f4xx_ll_usb.c ****     USBx_HC(ch_num)->HCDMA = (uint32_t)hc->xfer_buff;
1931:Drivers/STM32F4xx_HAL_Driver/Src/stm32f4xx_ll_usb.c ****   }
1932:Drivers/STM32F4xx_HAL_Driver/Src/stm32f4xx_ll_usb.c **** 
1933:Drivers/STM32F4xx_HAL_Driver/Src/stm32f4xx_ll_usb.c ****   is_oddframe = (((uint32_t)USBx_HOST->HFNUM & 0x01U) != 0U) ? 0U : 1U;
1934:Drivers/STM32F4xx_HAL_Driver/Src/stm32f4xx_ll_usb.c ****   USBx_HC(ch_num)->HCCHAR &= ~USB_OTG_HCCHAR_ODDFRM;
1935:Drivers/STM32F4xx_HAL_Driver/Src/stm32f4xx_ll_usb.c ****   USBx_HC(ch_num)->HCCHAR |= (uint32_t)is_oddframe << 29;
1936:Drivers/STM32F4xx_HAL_Driver/Src/stm32f4xx_ll_usb.c **** 
1937:Drivers/STM32F4xx_HAL_Driver/Src/stm32f4xx_ll_usb.c ****   /* Set host channel enable */
1938:Drivers/STM32F4xx_HAL_Driver/Src/stm32f4xx_ll_usb.c ****   tmpreg = USBx_HC(ch_num)->HCCHAR;
1939:Drivers/STM32F4xx_HAL_Driver/Src/stm32f4xx_ll_usb.c ****   tmpreg &= ~USB_OTG_HCCHAR_CHDIS;
1940:Drivers/STM32F4xx_HAL_Driver/Src/stm32f4xx_ll_usb.c **** 
1941:Drivers/STM32F4xx_HAL_Driver/Src/stm32f4xx_ll_usb.c ****   /* make sure to set the correct ep direction */
1942:Drivers/STM32F4xx_HAL_Driver/Src/stm32f4xx_ll_usb.c ****   if (hc->ep_is_in != 0U)
1943:Drivers/STM32F4xx_HAL_Driver/Src/stm32f4xx_ll_usb.c ****   {
1944:Drivers/STM32F4xx_HAL_Driver/Src/stm32f4xx_ll_usb.c ****     tmpreg |= USB_OTG_HCCHAR_EPDIR;
1945:Drivers/STM32F4xx_HAL_Driver/Src/stm32f4xx_ll_usb.c ****   }
1946:Drivers/STM32F4xx_HAL_Driver/Src/stm32f4xx_ll_usb.c ****   else
1947:Drivers/STM32F4xx_HAL_Driver/Src/stm32f4xx_ll_usb.c ****   {
1948:Drivers/STM32F4xx_HAL_Driver/Src/stm32f4xx_ll_usb.c ****     tmpreg &= ~USB_OTG_HCCHAR_EPDIR;
ARM GAS  /tmp/ccfbcrWA.s 			page 134


1949:Drivers/STM32F4xx_HAL_Driver/Src/stm32f4xx_ll_usb.c ****   }
1950:Drivers/STM32F4xx_HAL_Driver/Src/stm32f4xx_ll_usb.c ****   tmpreg |= USB_OTG_HCCHAR_CHENA;
1951:Drivers/STM32F4xx_HAL_Driver/Src/stm32f4xx_ll_usb.c ****   USBx_HC(ch_num)->HCCHAR = tmpreg;
1952:Drivers/STM32F4xx_HAL_Driver/Src/stm32f4xx_ll_usb.c **** 
1953:Drivers/STM32F4xx_HAL_Driver/Src/stm32f4xx_ll_usb.c ****   if (dma != 0U) /* dma mode */
1954:Drivers/STM32F4xx_HAL_Driver/Src/stm32f4xx_ll_usb.c ****   {
1955:Drivers/STM32F4xx_HAL_Driver/Src/stm32f4xx_ll_usb.c ****     return HAL_OK;
1956:Drivers/STM32F4xx_HAL_Driver/Src/stm32f4xx_ll_usb.c ****   }
1957:Drivers/STM32F4xx_HAL_Driver/Src/stm32f4xx_ll_usb.c **** 
1958:Drivers/STM32F4xx_HAL_Driver/Src/stm32f4xx_ll_usb.c ****   if ((hc->ep_is_in == 0U) && (hc->xfer_len > 0U))
1959:Drivers/STM32F4xx_HAL_Driver/Src/stm32f4xx_ll_usb.c ****   {
1960:Drivers/STM32F4xx_HAL_Driver/Src/stm32f4xx_ll_usb.c ****     switch (hc->ep_type)
1961:Drivers/STM32F4xx_HAL_Driver/Src/stm32f4xx_ll_usb.c ****     {
1962:Drivers/STM32F4xx_HAL_Driver/Src/stm32f4xx_ll_usb.c ****       /* Non periodic transfer */
1963:Drivers/STM32F4xx_HAL_Driver/Src/stm32f4xx_ll_usb.c ****       case EP_TYPE_CTRL:
1964:Drivers/STM32F4xx_HAL_Driver/Src/stm32f4xx_ll_usb.c ****       case EP_TYPE_BULK:
1965:Drivers/STM32F4xx_HAL_Driver/Src/stm32f4xx_ll_usb.c **** 
1966:Drivers/STM32F4xx_HAL_Driver/Src/stm32f4xx_ll_usb.c ****         len_words = (uint16_t)((hc->xfer_len + 3U) / 4U);
1967:Drivers/STM32F4xx_HAL_Driver/Src/stm32f4xx_ll_usb.c **** 
1968:Drivers/STM32F4xx_HAL_Driver/Src/stm32f4xx_ll_usb.c ****         /* check if there is enough space in FIFO space */
1969:Drivers/STM32F4xx_HAL_Driver/Src/stm32f4xx_ll_usb.c ****         if (len_words > (USBx->HNPTXSTS & 0xFFFFU))
1970:Drivers/STM32F4xx_HAL_Driver/Src/stm32f4xx_ll_usb.c ****         {
1971:Drivers/STM32F4xx_HAL_Driver/Src/stm32f4xx_ll_usb.c ****           /* need to process data in nptxfempty interrupt */
1972:Drivers/STM32F4xx_HAL_Driver/Src/stm32f4xx_ll_usb.c ****           USBx->GINTMSK |= USB_OTG_GINTMSK_NPTXFEM;
1973:Drivers/STM32F4xx_HAL_Driver/Src/stm32f4xx_ll_usb.c ****         }
1974:Drivers/STM32F4xx_HAL_Driver/Src/stm32f4xx_ll_usb.c ****         break;
1975:Drivers/STM32F4xx_HAL_Driver/Src/stm32f4xx_ll_usb.c **** 
1976:Drivers/STM32F4xx_HAL_Driver/Src/stm32f4xx_ll_usb.c ****       /* Periodic transfer */
1977:Drivers/STM32F4xx_HAL_Driver/Src/stm32f4xx_ll_usb.c ****       case EP_TYPE_INTR:
1978:Drivers/STM32F4xx_HAL_Driver/Src/stm32f4xx_ll_usb.c ****       case EP_TYPE_ISOC:
1979:Drivers/STM32F4xx_HAL_Driver/Src/stm32f4xx_ll_usb.c ****         len_words = (uint16_t)((hc->xfer_len + 3U) / 4U);
1980:Drivers/STM32F4xx_HAL_Driver/Src/stm32f4xx_ll_usb.c ****         /* check if there is enough space in FIFO space */
1981:Drivers/STM32F4xx_HAL_Driver/Src/stm32f4xx_ll_usb.c ****         if (len_words > (USBx_HOST->HPTXSTS & 0xFFFFU)) /* split the transfer */
1982:Drivers/STM32F4xx_HAL_Driver/Src/stm32f4xx_ll_usb.c ****         {
1983:Drivers/STM32F4xx_HAL_Driver/Src/stm32f4xx_ll_usb.c ****           /* need to process data in ptxfempty interrupt */
1984:Drivers/STM32F4xx_HAL_Driver/Src/stm32f4xx_ll_usb.c ****           USBx->GINTMSK |= USB_OTG_GINTMSK_PTXFEM;
1985:Drivers/STM32F4xx_HAL_Driver/Src/stm32f4xx_ll_usb.c ****         }
1986:Drivers/STM32F4xx_HAL_Driver/Src/stm32f4xx_ll_usb.c ****         break;
1987:Drivers/STM32F4xx_HAL_Driver/Src/stm32f4xx_ll_usb.c **** 
1988:Drivers/STM32F4xx_HAL_Driver/Src/stm32f4xx_ll_usb.c ****       default:
1989:Drivers/STM32F4xx_HAL_Driver/Src/stm32f4xx_ll_usb.c ****         break;
1990:Drivers/STM32F4xx_HAL_Driver/Src/stm32f4xx_ll_usb.c ****     }
1991:Drivers/STM32F4xx_HAL_Driver/Src/stm32f4xx_ll_usb.c **** 
1992:Drivers/STM32F4xx_HAL_Driver/Src/stm32f4xx_ll_usb.c ****     /* Write packet into the Tx FIFO. */
1993:Drivers/STM32F4xx_HAL_Driver/Src/stm32f4xx_ll_usb.c ****     (void)USB_WritePacket(USBx, hc->xfer_buff, hc->ch_num, (uint16_t)hc->xfer_len, 0);
1994:Drivers/STM32F4xx_HAL_Driver/Src/stm32f4xx_ll_usb.c ****   }
1995:Drivers/STM32F4xx_HAL_Driver/Src/stm32f4xx_ll_usb.c **** 
1996:Drivers/STM32F4xx_HAL_Driver/Src/stm32f4xx_ll_usb.c ****   return HAL_OK;
1997:Drivers/STM32F4xx_HAL_Driver/Src/stm32f4xx_ll_usb.c **** }
1998:Drivers/STM32F4xx_HAL_Driver/Src/stm32f4xx_ll_usb.c **** 
1999:Drivers/STM32F4xx_HAL_Driver/Src/stm32f4xx_ll_usb.c **** /**
2000:Drivers/STM32F4xx_HAL_Driver/Src/stm32f4xx_ll_usb.c ****   * @brief Read all host channel interrupts status
2001:Drivers/STM32F4xx_HAL_Driver/Src/stm32f4xx_ll_usb.c ****   * @param  USBx  Selected device
2002:Drivers/STM32F4xx_HAL_Driver/Src/stm32f4xx_ll_usb.c ****   * @retval HAL state
2003:Drivers/STM32F4xx_HAL_Driver/Src/stm32f4xx_ll_usb.c ****   */
2004:Drivers/STM32F4xx_HAL_Driver/Src/stm32f4xx_ll_usb.c **** uint32_t USB_HC_ReadInterrupt(USB_OTG_GlobalTypeDef *USBx)
2005:Drivers/STM32F4xx_HAL_Driver/Src/stm32f4xx_ll_usb.c **** {
ARM GAS  /tmp/ccfbcrWA.s 			page 135


 4508              		.loc 1 2005 1 is_stmt 1 view -0
 4509              		.cfi_startproc
 4510              		@ args = 0, pretend = 0, frame = 0
 4511              		@ frame_needed = 0, uses_anonymous_args = 0
 4512              		@ link register save eliminated.
2006:Drivers/STM32F4xx_HAL_Driver/Src/stm32f4xx_ll_usb.c ****   uint32_t USBx_BASE = (uint32_t)USBx;
 4513              		.loc 1 2006 3 view .LVU1442
2007:Drivers/STM32F4xx_HAL_Driver/Src/stm32f4xx_ll_usb.c **** 
2008:Drivers/STM32F4xx_HAL_Driver/Src/stm32f4xx_ll_usb.c ****   return ((USBx_HOST->HAINT) & 0xFFFFU);
 4514              		.loc 1 2008 3 view .LVU1443
 4515              		.loc 1 2008 12 is_stmt 0 view .LVU1444
 4516 0000 00F58060 		add	r0, r0, #1024
 4517              	.LVL353:
 4518              		.loc 1 2008 21 view .LVU1445
 4519 0004 4069     		ldr	r0, [r0, #20]
 4520              	.LVL354:
2009:Drivers/STM32F4xx_HAL_Driver/Src/stm32f4xx_ll_usb.c **** }
 4521              		.loc 1 2009 1 view .LVU1446
 4522 0006 80B2     		uxth	r0, r0
 4523 0008 7047     		bx	lr
 4524              		.cfi_endproc
 4525              	.LFE173:
 4527              		.section	.text.USB_HC_Halt,"ax",%progbits
 4528              		.align	1
 4529              		.global	USB_HC_Halt
 4530              		.syntax unified
 4531              		.thumb
 4532              		.thumb_func
 4533              		.fpu fpv4-sp-d16
 4535              	USB_HC_Halt:
 4536              	.LVL355:
 4537              	.LFB174:
2010:Drivers/STM32F4xx_HAL_Driver/Src/stm32f4xx_ll_usb.c **** 
2011:Drivers/STM32F4xx_HAL_Driver/Src/stm32f4xx_ll_usb.c **** /**
2012:Drivers/STM32F4xx_HAL_Driver/Src/stm32f4xx_ll_usb.c ****   * @brief  Halt a host channel
2013:Drivers/STM32F4xx_HAL_Driver/Src/stm32f4xx_ll_usb.c ****   * @param  USBx  Selected device
2014:Drivers/STM32F4xx_HAL_Driver/Src/stm32f4xx_ll_usb.c ****   * @param  hc_num  Host Channel number
2015:Drivers/STM32F4xx_HAL_Driver/Src/stm32f4xx_ll_usb.c ****   *         This parameter can be a value from 1 to 15
2016:Drivers/STM32F4xx_HAL_Driver/Src/stm32f4xx_ll_usb.c ****   * @retval HAL state
2017:Drivers/STM32F4xx_HAL_Driver/Src/stm32f4xx_ll_usb.c ****   */
2018:Drivers/STM32F4xx_HAL_Driver/Src/stm32f4xx_ll_usb.c **** HAL_StatusTypeDef USB_HC_Halt(USB_OTG_GlobalTypeDef *USBx, uint8_t hc_num)
2019:Drivers/STM32F4xx_HAL_Driver/Src/stm32f4xx_ll_usb.c **** {
 4538              		.loc 1 2019 1 is_stmt 1 view -0
 4539              		.cfi_startproc
 4540              		@ args = 0, pretend = 0, frame = 8
 4541              		@ frame_needed = 0, uses_anonymous_args = 0
 4542              		@ link register save eliminated.
 4543              		.loc 1 2019 1 is_stmt 0 view .LVU1448
 4544 0000 10B4     		push	{r4}
 4545              	.LCFI61:
 4546              		.cfi_def_cfa_offset 4
 4547              		.cfi_offset 4, -4
 4548 0002 83B0     		sub	sp, sp, #12
 4549              	.LCFI62:
 4550              		.cfi_def_cfa_offset 16
2020:Drivers/STM32F4xx_HAL_Driver/Src/stm32f4xx_ll_usb.c ****   uint32_t USBx_BASE = (uint32_t)USBx;
 4551              		.loc 1 2020 3 is_stmt 1 view .LVU1449
ARM GAS  /tmp/ccfbcrWA.s 			page 136


 4552              	.LVL356:
2021:Drivers/STM32F4xx_HAL_Driver/Src/stm32f4xx_ll_usb.c ****   uint32_t hcnum = (uint32_t)hc_num;
 4553              		.loc 1 2021 3 view .LVU1450
2022:Drivers/STM32F4xx_HAL_Driver/Src/stm32f4xx_ll_usb.c ****   __IO uint32_t count = 0U;
 4554              		.loc 1 2022 3 view .LVU1451
 4555              		.loc 1 2022 17 is_stmt 0 view .LVU1452
 4556 0004 0023     		movs	r3, #0
 4557 0006 0193     		str	r3, [sp, #4]
2023:Drivers/STM32F4xx_HAL_Driver/Src/stm32f4xx_ll_usb.c ****   uint32_t HcEpType = (USBx_HC(hcnum)->HCCHAR & USB_OTG_HCCHAR_EPTYP) >> 18;
 4558              		.loc 1 2023 3 is_stmt 1 view .LVU1453
 4559              		.loc 1 2023 24 is_stmt 0 view .LVU1454
 4560 0008 00EB4111 		add	r1, r0, r1, lsl #5
 4561              	.LVL357:
 4562              		.loc 1 2023 24 view .LVU1455
 4563 000c 01F5A06C 		add	ip, r1, #1280
 4564              		.loc 1 2023 38 view .LVU1456
 4565 0010 D1F80035 		ldr	r3, [r1, #1280]
 4566              		.loc 1 2023 12 view .LVU1457
 4567 0014 C3F38143 		ubfx	r3, r3, #18, #2
 4568              	.LVL358:
2024:Drivers/STM32F4xx_HAL_Driver/Src/stm32f4xx_ll_usb.c ****   uint32_t ChannelEna = (USBx_HC(hcnum)->HCCHAR & USB_OTG_HCCHAR_CHENA) >> 31;
 4569              		.loc 1 2024 3 is_stmt 1 view .LVU1458
 4570              		.loc 1 2024 40 is_stmt 0 view .LVU1459
 4571 0018 D1F80025 		ldr	r2, [r1, #1280]
 4572              	.LVL359:
2025:Drivers/STM32F4xx_HAL_Driver/Src/stm32f4xx_ll_usb.c **** 
2026:Drivers/STM32F4xx_HAL_Driver/Src/stm32f4xx_ll_usb.c ****   if (((USBx->GAHBCFG & USB_OTG_GAHBCFG_DMAEN) == USB_OTG_GAHBCFG_DMAEN) &&
 4573              		.loc 1 2026 3 is_stmt 1 view .LVU1460
 4574              		.loc 1 2026 13 is_stmt 0 view .LVU1461
 4575 001c 8468     		ldr	r4, [r0, #8]
 4576              		.loc 1 2026 6 view .LVU1462
 4577 001e 14F0200F 		tst	r4, #32
 4578 0022 02D0     		beq	.L293
 4579 0024 D20F     		lsrs	r2, r2, #31
 4580              	.LVL360:
 4581              		.loc 1 2026 74 discriminator 1 view .LVU1463
 4582 0026 002A     		cmp	r2, #0
 4583 0028 51D0     		beq	.L294
 4584              	.LVL361:
 4585              	.L293:
2027:Drivers/STM32F4xx_HAL_Driver/Src/stm32f4xx_ll_usb.c ****       (ChannelEna == 0U))
2028:Drivers/STM32F4xx_HAL_Driver/Src/stm32f4xx_ll_usb.c ****   {
2029:Drivers/STM32F4xx_HAL_Driver/Src/stm32f4xx_ll_usb.c ****     return HAL_OK;
2030:Drivers/STM32F4xx_HAL_Driver/Src/stm32f4xx_ll_usb.c ****   }
2031:Drivers/STM32F4xx_HAL_Driver/Src/stm32f4xx_ll_usb.c **** 
2032:Drivers/STM32F4xx_HAL_Driver/Src/stm32f4xx_ll_usb.c ****   /* Check for space in the request queue to issue the halt. */
2033:Drivers/STM32F4xx_HAL_Driver/Src/stm32f4xx_ll_usb.c ****   if ((HcEpType == HCCHAR_CTRL) || (HcEpType == HCCHAR_BULK))
 4586              		.loc 1 2033 3 is_stmt 1 view .LVU1464
 4587              		.loc 1 2033 6 is_stmt 0 view .LVU1465
 4588 002a 23B3     		cbz	r3, .L295
 4589              		.loc 1 2033 33 discriminator 1 view .LVU1466
 4590 002c 022B     		cmp	r3, #2
 4591 002e 22D0     		beq	.L295
2034:Drivers/STM32F4xx_HAL_Driver/Src/stm32f4xx_ll_usb.c ****   {
2035:Drivers/STM32F4xx_HAL_Driver/Src/stm32f4xx_ll_usb.c ****     USBx_HC(hcnum)->HCCHAR |= USB_OTG_HCCHAR_CHDIS;
2036:Drivers/STM32F4xx_HAL_Driver/Src/stm32f4xx_ll_usb.c **** 
2037:Drivers/STM32F4xx_HAL_Driver/Src/stm32f4xx_ll_usb.c ****     if ((USBx->GAHBCFG & USB_OTG_GAHBCFG_DMAEN) == 0U)
ARM GAS  /tmp/ccfbcrWA.s 			page 137


2038:Drivers/STM32F4xx_HAL_Driver/Src/stm32f4xx_ll_usb.c ****     {
2039:Drivers/STM32F4xx_HAL_Driver/Src/stm32f4xx_ll_usb.c ****       if ((USBx->HNPTXSTS & (0xFFU << 16)) == 0U)
2040:Drivers/STM32F4xx_HAL_Driver/Src/stm32f4xx_ll_usb.c ****       {
2041:Drivers/STM32F4xx_HAL_Driver/Src/stm32f4xx_ll_usb.c ****         USBx_HC(hcnum)->HCCHAR &= ~USB_OTG_HCCHAR_CHENA;
2042:Drivers/STM32F4xx_HAL_Driver/Src/stm32f4xx_ll_usb.c ****         USBx_HC(hcnum)->HCCHAR |= USB_OTG_HCCHAR_CHENA;
2043:Drivers/STM32F4xx_HAL_Driver/Src/stm32f4xx_ll_usb.c ****         do
2044:Drivers/STM32F4xx_HAL_Driver/Src/stm32f4xx_ll_usb.c ****         {
2045:Drivers/STM32F4xx_HAL_Driver/Src/stm32f4xx_ll_usb.c ****           count++;
2046:Drivers/STM32F4xx_HAL_Driver/Src/stm32f4xx_ll_usb.c **** 
2047:Drivers/STM32F4xx_HAL_Driver/Src/stm32f4xx_ll_usb.c ****           if (count > 1000U)
2048:Drivers/STM32F4xx_HAL_Driver/Src/stm32f4xx_ll_usb.c ****           {
2049:Drivers/STM32F4xx_HAL_Driver/Src/stm32f4xx_ll_usb.c ****             break;
2050:Drivers/STM32F4xx_HAL_Driver/Src/stm32f4xx_ll_usb.c ****           }
2051:Drivers/STM32F4xx_HAL_Driver/Src/stm32f4xx_ll_usb.c ****         } while ((USBx_HC(hcnum)->HCCHAR & USB_OTG_HCCHAR_CHENA) == USB_OTG_HCCHAR_CHENA);
2052:Drivers/STM32F4xx_HAL_Driver/Src/stm32f4xx_ll_usb.c ****       }
2053:Drivers/STM32F4xx_HAL_Driver/Src/stm32f4xx_ll_usb.c ****       else
2054:Drivers/STM32F4xx_HAL_Driver/Src/stm32f4xx_ll_usb.c ****       {
2055:Drivers/STM32F4xx_HAL_Driver/Src/stm32f4xx_ll_usb.c ****         USBx_HC(hcnum)->HCCHAR |= USB_OTG_HCCHAR_CHENA;
2056:Drivers/STM32F4xx_HAL_Driver/Src/stm32f4xx_ll_usb.c ****       }
2057:Drivers/STM32F4xx_HAL_Driver/Src/stm32f4xx_ll_usb.c ****     }
2058:Drivers/STM32F4xx_HAL_Driver/Src/stm32f4xx_ll_usb.c ****   }
2059:Drivers/STM32F4xx_HAL_Driver/Src/stm32f4xx_ll_usb.c ****   else
2060:Drivers/STM32F4xx_HAL_Driver/Src/stm32f4xx_ll_usb.c ****   {
2061:Drivers/STM32F4xx_HAL_Driver/Src/stm32f4xx_ll_usb.c ****     USBx_HC(hcnum)->HCCHAR |= USB_OTG_HCCHAR_CHDIS;
 4592              		.loc 1 2061 5 is_stmt 1 view .LVU1467
 4593              		.loc 1 2061 28 is_stmt 0 view .LVU1468
 4594 0030 D1F80035 		ldr	r3, [r1, #1280]
 4595              	.LVL362:
 4596              		.loc 1 2061 28 view .LVU1469
 4597 0034 43F08043 		orr	r3, r3, #1073741824
 4598 0038 C1F80035 		str	r3, [r1, #1280]
2062:Drivers/STM32F4xx_HAL_Driver/Src/stm32f4xx_ll_usb.c **** 
2063:Drivers/STM32F4xx_HAL_Driver/Src/stm32f4xx_ll_usb.c ****     if ((USBx_HOST->HPTXSTS & (0xFFU << 16)) == 0U)
 4599              		.loc 1 2063 5 is_stmt 1 view .LVU1470
 4600              		.loc 1 2063 19 is_stmt 0 view .LVU1471
 4601 003c D0F81034 		ldr	r3, [r0, #1040]
 4602              		.loc 1 2063 8 view .LVU1472
 4603 0040 13F47F0F 		tst	r3, #16711680
 4604 0044 48D1     		bne	.L299
2064:Drivers/STM32F4xx_HAL_Driver/Src/stm32f4xx_ll_usb.c ****     {
2065:Drivers/STM32F4xx_HAL_Driver/Src/stm32f4xx_ll_usb.c ****       USBx_HC(hcnum)->HCCHAR &= ~USB_OTG_HCCHAR_CHENA;
 4605              		.loc 1 2065 7 is_stmt 1 view .LVU1473
 4606              		.loc 1 2065 30 is_stmt 0 view .LVU1474
 4607 0046 D1F80035 		ldr	r3, [r1, #1280]
 4608 004a 23F00043 		bic	r3, r3, #-2147483648
 4609 004e C1F80035 		str	r3, [r1, #1280]
2066:Drivers/STM32F4xx_HAL_Driver/Src/stm32f4xx_ll_usb.c ****       USBx_HC(hcnum)->HCCHAR |= USB_OTG_HCCHAR_CHENA;
 4610              		.loc 1 2066 7 is_stmt 1 view .LVU1475
 4611              		.loc 1 2066 30 is_stmt 0 view .LVU1476
 4612 0052 D1F80035 		ldr	r3, [r1, #1280]
 4613 0056 43F00043 		orr	r3, r3, #-2147483648
 4614 005a C1F80035 		str	r3, [r1, #1280]
 4615              	.L300:
2067:Drivers/STM32F4xx_HAL_Driver/Src/stm32f4xx_ll_usb.c ****       do
 4616              		.loc 1 2067 7 is_stmt 1 view .LVU1477
2068:Drivers/STM32F4xx_HAL_Driver/Src/stm32f4xx_ll_usb.c ****       {
2069:Drivers/STM32F4xx_HAL_Driver/Src/stm32f4xx_ll_usb.c ****         count++;
ARM GAS  /tmp/ccfbcrWA.s 			page 138


 4617              		.loc 1 2069 9 view .LVU1478
 4618              		.loc 1 2069 14 is_stmt 0 view .LVU1479
 4619 005e 019B     		ldr	r3, [sp, #4]
 4620 0060 0133     		adds	r3, r3, #1
 4621 0062 0193     		str	r3, [sp, #4]
2070:Drivers/STM32F4xx_HAL_Driver/Src/stm32f4xx_ll_usb.c **** 
2071:Drivers/STM32F4xx_HAL_Driver/Src/stm32f4xx_ll_usb.c ****         if (count > 1000U)
 4622              		.loc 1 2071 9 is_stmt 1 view .LVU1480
 4623              		.loc 1 2071 19 is_stmt 0 view .LVU1481
 4624 0064 019B     		ldr	r3, [sp, #4]
 4625              		.loc 1 2071 12 view .LVU1482
 4626 0066 B3F57A7F 		cmp	r3, #1000
 4627 006a 30D8     		bhi	.L294
2072:Drivers/STM32F4xx_HAL_Driver/Src/stm32f4xx_ll_usb.c ****         {
2073:Drivers/STM32F4xx_HAL_Driver/Src/stm32f4xx_ll_usb.c ****           break;
2074:Drivers/STM32F4xx_HAL_Driver/Src/stm32f4xx_ll_usb.c ****         }
2075:Drivers/STM32F4xx_HAL_Driver/Src/stm32f4xx_ll_usb.c ****       } while ((USBx_HC(hcnum)->HCCHAR & USB_OTG_HCCHAR_CHENA) == USB_OTG_HCCHAR_CHENA);
 4628              		.loc 1 2075 15 is_stmt 1 view .LVU1483
 4629              		.loc 1 2075 31 is_stmt 0 view .LVU1484
 4630 006c DCF80030 		ldr	r3, [ip]
 4631              		.loc 1 2075 7 view .LVU1485
 4632 0070 002B     		cmp	r3, #0
 4633 0072 F4DB     		blt	.L300
 4634 0074 2BE0     		b	.L294
 4635              	.LVL363:
 4636              	.L295:
2035:Drivers/STM32F4xx_HAL_Driver/Src/stm32f4xx_ll_usb.c **** 
 4637              		.loc 1 2035 5 is_stmt 1 view .LVU1486
2035:Drivers/STM32F4xx_HAL_Driver/Src/stm32f4xx_ll_usb.c **** 
 4638              		.loc 1 2035 28 is_stmt 0 view .LVU1487
 4639 0076 D1F80035 		ldr	r3, [r1, #1280]
 4640              	.LVL364:
2035:Drivers/STM32F4xx_HAL_Driver/Src/stm32f4xx_ll_usb.c **** 
 4641              		.loc 1 2035 28 view .LVU1488
 4642 007a 43F08043 		orr	r3, r3, #1073741824
 4643 007e C1F80035 		str	r3, [r1, #1280]
2037:Drivers/STM32F4xx_HAL_Driver/Src/stm32f4xx_ll_usb.c ****     {
 4644              		.loc 1 2037 5 is_stmt 1 view .LVU1489
2037:Drivers/STM32F4xx_HAL_Driver/Src/stm32f4xx_ll_usb.c ****     {
 4645              		.loc 1 2037 14 is_stmt 0 view .LVU1490
 4646 0082 8368     		ldr	r3, [r0, #8]
2037:Drivers/STM32F4xx_HAL_Driver/Src/stm32f4xx_ll_usb.c ****     {
 4647              		.loc 1 2037 8 view .LVU1491
 4648 0084 13F0200F 		tst	r3, #32
 4649 0088 21D1     		bne	.L294
2039:Drivers/STM32F4xx_HAL_Driver/Src/stm32f4xx_ll_usb.c ****       {
 4650              		.loc 1 2039 7 is_stmt 1 view .LVU1492
2039:Drivers/STM32F4xx_HAL_Driver/Src/stm32f4xx_ll_usb.c ****       {
 4651              		.loc 1 2039 16 is_stmt 0 view .LVU1493
 4652 008a C36A     		ldr	r3, [r0, #44]
2039:Drivers/STM32F4xx_HAL_Driver/Src/stm32f4xx_ll_usb.c ****       {
 4653              		.loc 1 2039 10 view .LVU1494
 4654 008c 13F47F0F 		tst	r3, #16711680
 4655 0090 17D1     		bne	.L297
2041:Drivers/STM32F4xx_HAL_Driver/Src/stm32f4xx_ll_usb.c ****         USBx_HC(hcnum)->HCCHAR |= USB_OTG_HCCHAR_CHENA;
 4656              		.loc 1 2041 9 is_stmt 1 view .LVU1495
2041:Drivers/STM32F4xx_HAL_Driver/Src/stm32f4xx_ll_usb.c ****         USBx_HC(hcnum)->HCCHAR |= USB_OTG_HCCHAR_CHENA;
ARM GAS  /tmp/ccfbcrWA.s 			page 139


 4657              		.loc 1 2041 32 is_stmt 0 view .LVU1496
 4658 0092 D1F80035 		ldr	r3, [r1, #1280]
 4659 0096 23F00043 		bic	r3, r3, #-2147483648
 4660 009a C1F80035 		str	r3, [r1, #1280]
2042:Drivers/STM32F4xx_HAL_Driver/Src/stm32f4xx_ll_usb.c ****         do
 4661              		.loc 1 2042 9 is_stmt 1 view .LVU1497
2042:Drivers/STM32F4xx_HAL_Driver/Src/stm32f4xx_ll_usb.c ****         do
 4662              		.loc 1 2042 32 is_stmt 0 view .LVU1498
 4663 009e D1F80035 		ldr	r3, [r1, #1280]
 4664 00a2 43F00043 		orr	r3, r3, #-2147483648
 4665 00a6 C1F80035 		str	r3, [r1, #1280]
 4666              	.L298:
2043:Drivers/STM32F4xx_HAL_Driver/Src/stm32f4xx_ll_usb.c ****         {
 4667              		.loc 1 2043 9 is_stmt 1 view .LVU1499
2045:Drivers/STM32F4xx_HAL_Driver/Src/stm32f4xx_ll_usb.c **** 
 4668              		.loc 1 2045 11 view .LVU1500
2045:Drivers/STM32F4xx_HAL_Driver/Src/stm32f4xx_ll_usb.c **** 
 4669              		.loc 1 2045 16 is_stmt 0 view .LVU1501
 4670 00aa 019B     		ldr	r3, [sp, #4]
 4671 00ac 0133     		adds	r3, r3, #1
 4672 00ae 0193     		str	r3, [sp, #4]
2047:Drivers/STM32F4xx_HAL_Driver/Src/stm32f4xx_ll_usb.c ****           {
 4673              		.loc 1 2047 11 is_stmt 1 view .LVU1502
2047:Drivers/STM32F4xx_HAL_Driver/Src/stm32f4xx_ll_usb.c ****           {
 4674              		.loc 1 2047 21 is_stmt 0 view .LVU1503
 4675 00b0 019B     		ldr	r3, [sp, #4]
2047:Drivers/STM32F4xx_HAL_Driver/Src/stm32f4xx_ll_usb.c ****           {
 4676              		.loc 1 2047 14 view .LVU1504
 4677 00b2 B3F57A7F 		cmp	r3, #1000
 4678 00b6 0AD8     		bhi	.L294
2051:Drivers/STM32F4xx_HAL_Driver/Src/stm32f4xx_ll_usb.c ****       }
 4679              		.loc 1 2051 17 is_stmt 1 view .LVU1505
2051:Drivers/STM32F4xx_HAL_Driver/Src/stm32f4xx_ll_usb.c ****       }
 4680              		.loc 1 2051 33 is_stmt 0 view .LVU1506
 4681 00b8 DCF80030 		ldr	r3, [ip]
2051:Drivers/STM32F4xx_HAL_Driver/Src/stm32f4xx_ll_usb.c ****       }
 4682              		.loc 1 2051 9 view .LVU1507
 4683 00bc 002B     		cmp	r3, #0
 4684 00be F4DB     		blt	.L298
 4685 00c0 05E0     		b	.L294
 4686              	.L297:
2055:Drivers/STM32F4xx_HAL_Driver/Src/stm32f4xx_ll_usb.c ****       }
 4687              		.loc 1 2055 9 is_stmt 1 view .LVU1508
2055:Drivers/STM32F4xx_HAL_Driver/Src/stm32f4xx_ll_usb.c ****       }
 4688              		.loc 1 2055 32 is_stmt 0 view .LVU1509
 4689 00c2 D1F80035 		ldr	r3, [r1, #1280]
 4690 00c6 43F00043 		orr	r3, r3, #-2147483648
 4691 00ca C1F80035 		str	r3, [r1, #1280]
 4692              	.L294:
2076:Drivers/STM32F4xx_HAL_Driver/Src/stm32f4xx_ll_usb.c ****     }
2077:Drivers/STM32F4xx_HAL_Driver/Src/stm32f4xx_ll_usb.c ****     else
2078:Drivers/STM32F4xx_HAL_Driver/Src/stm32f4xx_ll_usb.c ****     {
2079:Drivers/STM32F4xx_HAL_Driver/Src/stm32f4xx_ll_usb.c ****       USBx_HC(hcnum)->HCCHAR |= USB_OTG_HCCHAR_CHENA;
2080:Drivers/STM32F4xx_HAL_Driver/Src/stm32f4xx_ll_usb.c ****     }
2081:Drivers/STM32F4xx_HAL_Driver/Src/stm32f4xx_ll_usb.c ****   }
2082:Drivers/STM32F4xx_HAL_Driver/Src/stm32f4xx_ll_usb.c **** 
2083:Drivers/STM32F4xx_HAL_Driver/Src/stm32f4xx_ll_usb.c ****   return HAL_OK;
ARM GAS  /tmp/ccfbcrWA.s 			page 140


2084:Drivers/STM32F4xx_HAL_Driver/Src/stm32f4xx_ll_usb.c **** }
 4693              		.loc 1 2084 1 view .LVU1510
 4694 00ce 0020     		movs	r0, #0
 4695              	.LVL365:
 4696              		.loc 1 2084 1 view .LVU1511
 4697 00d0 03B0     		add	sp, sp, #12
 4698              	.LCFI63:
 4699              		.cfi_remember_state
 4700              		.cfi_def_cfa_offset 4
 4701              		@ sp needed
 4702 00d2 5DF8044B 		ldr	r4, [sp], #4
 4703              	.LCFI64:
 4704              		.cfi_restore 4
 4705              		.cfi_def_cfa_offset 0
 4706 00d6 7047     		bx	lr
 4707              	.LVL366:
 4708              	.L299:
 4709              	.LCFI65:
 4710              		.cfi_restore_state
2079:Drivers/STM32F4xx_HAL_Driver/Src/stm32f4xx_ll_usb.c ****     }
 4711              		.loc 1 2079 7 is_stmt 1 view .LVU1512
2079:Drivers/STM32F4xx_HAL_Driver/Src/stm32f4xx_ll_usb.c ****     }
 4712              		.loc 1 2079 30 is_stmt 0 view .LVU1513
 4713 00d8 D1F80035 		ldr	r3, [r1, #1280]
 4714 00dc 43F00043 		orr	r3, r3, #-2147483648
 4715 00e0 C1F80035 		str	r3, [r1, #1280]
 4716 00e4 F3E7     		b	.L294
 4717              		.cfi_endproc
 4718              	.LFE174:
 4720              		.section	.text.USB_DoPing,"ax",%progbits
 4721              		.align	1
 4722              		.global	USB_DoPing
 4723              		.syntax unified
 4724              		.thumb
 4725              		.thumb_func
 4726              		.fpu fpv4-sp-d16
 4728              	USB_DoPing:
 4729              	.LVL367:
 4730              	.LFB175:
2085:Drivers/STM32F4xx_HAL_Driver/Src/stm32f4xx_ll_usb.c **** 
2086:Drivers/STM32F4xx_HAL_Driver/Src/stm32f4xx_ll_usb.c **** /**
2087:Drivers/STM32F4xx_HAL_Driver/Src/stm32f4xx_ll_usb.c ****   * @brief  Initiate Do Ping protocol
2088:Drivers/STM32F4xx_HAL_Driver/Src/stm32f4xx_ll_usb.c ****   * @param  USBx  Selected device
2089:Drivers/STM32F4xx_HAL_Driver/Src/stm32f4xx_ll_usb.c ****   * @param  hc_num  Host Channel number
2090:Drivers/STM32F4xx_HAL_Driver/Src/stm32f4xx_ll_usb.c ****   *         This parameter can be a value from 1 to 15
2091:Drivers/STM32F4xx_HAL_Driver/Src/stm32f4xx_ll_usb.c ****   * @retval HAL state
2092:Drivers/STM32F4xx_HAL_Driver/Src/stm32f4xx_ll_usb.c ****   */
2093:Drivers/STM32F4xx_HAL_Driver/Src/stm32f4xx_ll_usb.c **** HAL_StatusTypeDef USB_DoPing(USB_OTG_GlobalTypeDef *USBx, uint8_t ch_num)
2094:Drivers/STM32F4xx_HAL_Driver/Src/stm32f4xx_ll_usb.c **** {
 4731              		.loc 1 2094 1 is_stmt 1 view -0
 4732              		.cfi_startproc
 4733              		@ args = 0, pretend = 0, frame = 0
 4734              		@ frame_needed = 0, uses_anonymous_args = 0
 4735              		@ link register save eliminated.
2095:Drivers/STM32F4xx_HAL_Driver/Src/stm32f4xx_ll_usb.c ****   uint32_t USBx_BASE = (uint32_t)USBx;
 4736              		.loc 1 2095 3 view .LVU1515
2096:Drivers/STM32F4xx_HAL_Driver/Src/stm32f4xx_ll_usb.c ****   uint32_t chnum = (uint32_t)ch_num;
ARM GAS  /tmp/ccfbcrWA.s 			page 141


 4737              		.loc 1 2096 3 view .LVU1516
2097:Drivers/STM32F4xx_HAL_Driver/Src/stm32f4xx_ll_usb.c ****   uint32_t num_packets = 1U;
 4738              		.loc 1 2097 3 view .LVU1517
2098:Drivers/STM32F4xx_HAL_Driver/Src/stm32f4xx_ll_usb.c ****   uint32_t tmpreg;
 4739              		.loc 1 2098 3 view .LVU1518
2099:Drivers/STM32F4xx_HAL_Driver/Src/stm32f4xx_ll_usb.c **** 
2100:Drivers/STM32F4xx_HAL_Driver/Src/stm32f4xx_ll_usb.c ****   USBx_HC(chnum)->HCTSIZ = ((num_packets << 19) & USB_OTG_HCTSIZ_PKTCNT) |
 4740              		.loc 1 2100 3 view .LVU1519
 4741 0000 00EB4111 		add	r1, r0, r1, lsl #5
 4742              	.LVL368:
 4743              		.loc 1 2100 26 is_stmt 0 view .LVU1520
 4744 0004 064A     		ldr	r2, .L303
 4745 0006 C1F81025 		str	r2, [r1, #1296]
2101:Drivers/STM32F4xx_HAL_Driver/Src/stm32f4xx_ll_usb.c ****                            USB_OTG_HCTSIZ_DOPING;
2102:Drivers/STM32F4xx_HAL_Driver/Src/stm32f4xx_ll_usb.c **** 
2103:Drivers/STM32F4xx_HAL_Driver/Src/stm32f4xx_ll_usb.c ****   /* Set host channel enable */
2104:Drivers/STM32F4xx_HAL_Driver/Src/stm32f4xx_ll_usb.c ****   tmpreg = USBx_HC(chnum)->HCCHAR;
 4746              		.loc 1 2104 3 is_stmt 1 view .LVU1521
 4747              		.loc 1 2104 10 is_stmt 0 view .LVU1522
 4748 000a D1F80035 		ldr	r3, [r1, #1280]
 4749              	.LVL369:
2105:Drivers/STM32F4xx_HAL_Driver/Src/stm32f4xx_ll_usb.c ****   tmpreg &= ~USB_OTG_HCCHAR_CHDIS;
 4750              		.loc 1 2105 3 is_stmt 1 view .LVU1523
 4751              		.loc 1 2105 10 is_stmt 0 view .LVU1524
 4752 000e 23F08043 		bic	r3, r3, #1073741824
 4753              	.LVL370:
2106:Drivers/STM32F4xx_HAL_Driver/Src/stm32f4xx_ll_usb.c ****   tmpreg |= USB_OTG_HCCHAR_CHENA;
 4754              		.loc 1 2106 3 is_stmt 1 view .LVU1525
 4755              		.loc 1 2106 10 is_stmt 0 view .LVU1526
 4756 0012 43F00043 		orr	r3, r3, #-2147483648
 4757              	.LVL371:
2107:Drivers/STM32F4xx_HAL_Driver/Src/stm32f4xx_ll_usb.c ****   USBx_HC(chnum)->HCCHAR = tmpreg;
 4758              		.loc 1 2107 3 is_stmt 1 view .LVU1527
 4759              		.loc 1 2107 26 is_stmt 0 view .LVU1528
 4760 0016 C1F80035 		str	r3, [r1, #1280]
2108:Drivers/STM32F4xx_HAL_Driver/Src/stm32f4xx_ll_usb.c **** 
2109:Drivers/STM32F4xx_HAL_Driver/Src/stm32f4xx_ll_usb.c ****   return HAL_OK;
 4761              		.loc 1 2109 3 is_stmt 1 view .LVU1529
2110:Drivers/STM32F4xx_HAL_Driver/Src/stm32f4xx_ll_usb.c **** }
 4762              		.loc 1 2110 1 is_stmt 0 view .LVU1530
 4763 001a 0020     		movs	r0, #0
 4764              	.LVL372:
 4765              		.loc 1 2110 1 view .LVU1531
 4766 001c 7047     		bx	lr
 4767              	.L304:
 4768 001e 00BF     		.align	2
 4769              	.L303:
 4770 0020 00000880 		.word	-2146959360
 4771              		.cfi_endproc
 4772              	.LFE175:
 4774              		.section	.text.USB_HC_StartXfer,"ax",%progbits
 4775              		.align	1
 4776              		.global	USB_HC_StartXfer
 4777              		.syntax unified
 4778              		.thumb
 4779              		.thumb_func
 4780              		.fpu fpv4-sp-d16
ARM GAS  /tmp/ccfbcrWA.s 			page 142


 4782              	USB_HC_StartXfer:
 4783              	.LVL373:
 4784              	.LFB172:
1866:Drivers/STM32F4xx_HAL_Driver/Src/stm32f4xx_ll_usb.c ****   uint32_t USBx_BASE = (uint32_t)USBx;
 4785              		.loc 1 1866 1 is_stmt 1 view -0
 4786              		.cfi_startproc
 4787              		@ args = 0, pretend = 0, frame = 8
 4788              		@ frame_needed = 0, uses_anonymous_args = 0
1866:Drivers/STM32F4xx_HAL_Driver/Src/stm32f4xx_ll_usb.c ****   uint32_t USBx_BASE = (uint32_t)USBx;
 4789              		.loc 1 1866 1 is_stmt 0 view .LVU1533
 4790 0000 30B5     		push	{r4, r5, lr}
 4791              	.LCFI66:
 4792              		.cfi_def_cfa_offset 12
 4793              		.cfi_offset 4, -12
 4794              		.cfi_offset 5, -8
 4795              		.cfi_offset 14, -4
 4796 0002 85B0     		sub	sp, sp, #20
 4797              	.LCFI67:
 4798              		.cfi_def_cfa_offset 32
1867:Drivers/STM32F4xx_HAL_Driver/Src/stm32f4xx_ll_usb.c ****   uint32_t ch_num = (uint32_t)hc->ch_num;
 4799              		.loc 1 1867 3 is_stmt 1 view .LVU1534
 4800              	.LVL374:
1868:Drivers/STM32F4xx_HAL_Driver/Src/stm32f4xx_ll_usb.c ****   __IO uint32_t tmpreg;
 4801              		.loc 1 1868 3 view .LVU1535
1868:Drivers/STM32F4xx_HAL_Driver/Src/stm32f4xx_ll_usb.c ****   __IO uint32_t tmpreg;
 4802              		.loc 1 1868 33 is_stmt 0 view .LVU1536
 4803 0004 4B78     		ldrb	r3, [r1, #1]	@ zero_extendqisi2
 4804              	.LVL375:
1869:Drivers/STM32F4xx_HAL_Driver/Src/stm32f4xx_ll_usb.c ****   uint8_t  is_oddframe;
 4805              		.loc 1 1869 3 is_stmt 1 view .LVU1537
1870:Drivers/STM32F4xx_HAL_Driver/Src/stm32f4xx_ll_usb.c ****   uint16_t len_words;
 4806              		.loc 1 1870 3 view .LVU1538
1871:Drivers/STM32F4xx_HAL_Driver/Src/stm32f4xx_ll_usb.c ****   uint16_t num_packets;
 4807              		.loc 1 1871 3 view .LVU1539
1872:Drivers/STM32F4xx_HAL_Driver/Src/stm32f4xx_ll_usb.c ****   uint16_t max_hc_pkt_count = 256U;
 4808              		.loc 1 1872 3 view .LVU1540
1873:Drivers/STM32F4xx_HAL_Driver/Src/stm32f4xx_ll_usb.c **** 
 4809              		.loc 1 1873 3 view .LVU1541
1875:Drivers/STM32F4xx_HAL_Driver/Src/stm32f4xx_ll_usb.c ****   {
 4810              		.loc 1 1875 3 view .LVU1542
1875:Drivers/STM32F4xx_HAL_Driver/Src/stm32f4xx_ll_usb.c ****   {
 4811              		.loc 1 1875 13 is_stmt 0 view .LVU1543
 4812 0006 C46B     		ldr	r4, [r0, #60]
1875:Drivers/STM32F4xx_HAL_Driver/Src/stm32f4xx_ll_usb.c ****   {
 4813              		.loc 1 1875 6 view .LVU1544
 4814 0008 14F4807F 		tst	r4, #256
 4815 000c 07D0     		beq	.L306
1875:Drivers/STM32F4xx_HAL_Driver/Src/stm32f4xx_ll_usb.c ****   {
 4816              		.loc 1 1875 47 discriminator 1 view .LVU1545
 4817 000e 0C79     		ldrb	r4, [r1, #4]	@ zero_extendqisi2
1875:Drivers/STM32F4xx_HAL_Driver/Src/stm32f4xx_ll_usb.c ****   {
 4818              		.loc 1 1875 41 discriminator 1 view .LVU1546
 4819 0010 2CB9     		cbnz	r4, .L306
1878:Drivers/STM32F4xx_HAL_Driver/Src/stm32f4xx_ll_usb.c ****     {
 4820              		.loc 1 1878 5 is_stmt 1 view .LVU1547
1878:Drivers/STM32F4xx_HAL_Driver/Src/stm32f4xx_ll_usb.c ****     {
 4821              		.loc 1 1878 8 is_stmt 0 view .LVU1548
ARM GAS  /tmp/ccfbcrWA.s 			page 143


 4822 0012 012A     		cmp	r2, #1
 4823 0014 16D0     		beq	.L322
 4824              	.L307:
1885:Drivers/STM32F4xx_HAL_Driver/Src/stm32f4xx_ll_usb.c ****     {
 4825              		.loc 1 1885 5 is_stmt 1 view .LVU1549
1885:Drivers/STM32F4xx_HAL_Driver/Src/stm32f4xx_ll_usb.c ****     {
 4826              		.loc 1 1885 8 is_stmt 0 view .LVU1550
 4827 0016 12B9     		cbnz	r2, .L306
1885:Drivers/STM32F4xx_HAL_Driver/Src/stm32f4xx_ll_usb.c ****     {
 4828              		.loc 1 1885 27 discriminator 1 view .LVU1551
 4829 0018 4C79     		ldrb	r4, [r1, #5]	@ zero_extendqisi2
1885:Drivers/STM32F4xx_HAL_Driver/Src/stm32f4xx_ll_usb.c ****     {
 4830              		.loc 1 1885 21 discriminator 1 view .LVU1552
 4831 001a 012C     		cmp	r4, #1
 4832 001c 1FD0     		beq	.L323
 4833              	.L306:
1894:Drivers/STM32F4xx_HAL_Driver/Src/stm32f4xx_ll_usb.c ****   {
 4834              		.loc 1 1894 3 is_stmt 1 view .LVU1553
1894:Drivers/STM32F4xx_HAL_Driver/Src/stm32f4xx_ll_usb.c ****   {
 4835              		.loc 1 1894 9 is_stmt 0 view .LVU1554
 4836 001e 4C69     		ldr	r4, [r1, #20]
1894:Drivers/STM32F4xx_HAL_Driver/Src/stm32f4xx_ll_usb.c ****   {
 4837              		.loc 1 1894 6 view .LVU1555
 4838 0020 0CB3     		cbz	r4, .L320
1896:Drivers/STM32F4xx_HAL_Driver/Src/stm32f4xx_ll_usb.c **** 
 4839              		.loc 1 1896 5 is_stmt 1 view .LVU1556
1896:Drivers/STM32F4xx_HAL_Driver/Src/stm32f4xx_ll_usb.c **** 
 4840              		.loc 1 1896 48 is_stmt 0 view .LVU1557
 4841 0022 0D89     		ldrh	r5, [r1, #8]
1896:Drivers/STM32F4xx_HAL_Driver/Src/stm32f4xx_ll_usb.c **** 
 4842              		.loc 1 1896 44 view .LVU1558
 4843 0024 04EB050C 		add	ip, r4, r5
1896:Drivers/STM32F4xx_HAL_Driver/Src/stm32f4xx_ll_usb.c **** 
 4844              		.loc 1 1896 61 view .LVU1559
 4845 0028 0CF1FF3C 		add	ip, ip, #-1
1896:Drivers/STM32F4xx_HAL_Driver/Src/stm32f4xx_ll_usb.c **** 
 4846              		.loc 1 1896 67 view .LVU1560
 4847 002c BCFBF5FC 		udiv	ip, ip, r5
1896:Drivers/STM32F4xx_HAL_Driver/Src/stm32f4xx_ll_usb.c **** 
 4848              		.loc 1 1896 17 view .LVU1561
 4849 0030 1FFA8CFC 		uxth	ip, ip
 4850              	.LVL376:
1898:Drivers/STM32F4xx_HAL_Driver/Src/stm32f4xx_ll_usb.c ****     {
 4851              		.loc 1 1898 5 is_stmt 1 view .LVU1562
1898:Drivers/STM32F4xx_HAL_Driver/Src/stm32f4xx_ll_usb.c ****     {
 4852              		.loc 1 1898 8 is_stmt 0 view .LVU1563
 4853 0034 BCF5807F 		cmp	ip, #256
 4854 0038 17D9     		bls	.L310
1900:Drivers/STM32F4xx_HAL_Driver/Src/stm32f4xx_ll_usb.c ****       hc->XferSize = (uint32_t)num_packets * hc->max_packet;
 4855              		.loc 1 1900 7 is_stmt 1 view .LVU1564
 4856              	.LVL377:
1901:Drivers/STM32F4xx_HAL_Driver/Src/stm32f4xx_ll_usb.c ****     }
 4857              		.loc 1 1901 7 view .LVU1565
1901:Drivers/STM32F4xx_HAL_Driver/Src/stm32f4xx_ll_usb.c ****     }
 4858              		.loc 1 1901 44 is_stmt 0 view .LVU1566
 4859 003a 2D02     		lsls	r5, r5, #8
1901:Drivers/STM32F4xx_HAL_Driver/Src/stm32f4xx_ll_usb.c ****     }
ARM GAS  /tmp/ccfbcrWA.s 			page 144


 4860              		.loc 1 1901 20 view .LVU1567
 4861 003c 0D61     		str	r5, [r1, #16]
1900:Drivers/STM32F4xx_HAL_Driver/Src/stm32f4xx_ll_usb.c ****       hc->XferSize = (uint32_t)num_packets * hc->max_packet;
 4862              		.loc 1 1900 19 view .LVU1568
 4863 003e 4FF4807C 		mov	ip, #256
 4864 0042 12E0     		b	.L310
 4865              	.LVL378:
 4866              	.L322:
1878:Drivers/STM32F4xx_HAL_Driver/Src/stm32f4xx_ll_usb.c ****     {
 4867              		.loc 1 1878 28 discriminator 1 view .LVU1569
 4868 0044 CC79     		ldrb	r4, [r1, #7]	@ zero_extendqisi2
1878:Drivers/STM32F4xx_HAL_Driver/Src/stm32f4xx_ll_usb.c ****     {
 4869              		.loc 1 1878 21 discriminator 1 view .LVU1570
 4870 0046 0CB1     		cbz	r4, .L308
1878:Drivers/STM32F4xx_HAL_Driver/Src/stm32f4xx_ll_usb.c ****     {
 4871              		.loc 1 1878 55 discriminator 2 view .LVU1571
 4872 0048 022C     		cmp	r4, #2
 4873 004a E4D1     		bne	.L307
 4874              	.L308:
1880:Drivers/STM32F4xx_HAL_Driver/Src/stm32f4xx_ll_usb.c ****                                                USB_OTG_HCINTMSK_ACKM |
 4875              		.loc 1 1880 7 is_stmt 1 view .LVU1572
1880:Drivers/STM32F4xx_HAL_Driver/Src/stm32f4xx_ll_usb.c ****                                                USB_OTG_HCINTMSK_ACKM |
 4876              		.loc 1 1880 43 is_stmt 0 view .LVU1573
 4877 004c 00EB4314 		add	r4, r0, r3, lsl #5
 4878 0050 D4F80C55 		ldr	r5, [r4, #1292]
 4879 0054 25F07005 		bic	r5, r5, #112
 4880 0058 C4F80C55 		str	r5, [r4, #1292]
 4881 005c DBE7     		b	.L307
 4882              	.L323:
1887:Drivers/STM32F4xx_HAL_Driver/Src/stm32f4xx_ll_usb.c ****       return HAL_OK;
 4883              		.loc 1 1887 7 is_stmt 1 view .LVU1574
1887:Drivers/STM32F4xx_HAL_Driver/Src/stm32f4xx_ll_usb.c ****       return HAL_OK;
 4884              		.loc 1 1887 13 is_stmt 0 view .LVU1575
 4885 005e 4978     		ldrb	r1, [r1, #1]	@ zero_extendqisi2
 4886              	.LVL379:
1887:Drivers/STM32F4xx_HAL_Driver/Src/stm32f4xx_ll_usb.c ****       return HAL_OK;
 4887              		.loc 1 1887 13 view .LVU1576
 4888 0060 FFF7FEFF 		bl	USB_DoPing
 4889              	.LVL380:
1888:Drivers/STM32F4xx_HAL_Driver/Src/stm32f4xx_ll_usb.c ****     }
 4890              		.loc 1 1888 7 is_stmt 1 view .LVU1577
1888:Drivers/STM32F4xx_HAL_Driver/Src/stm32f4xx_ll_usb.c ****     }
 4891              		.loc 1 1888 14 is_stmt 0 view .LVU1578
 4892 0064 70E0     		b	.L309
 4893              	.LVL381:
 4894              	.L320:
1906:Drivers/STM32F4xx_HAL_Driver/Src/stm32f4xx_ll_usb.c ****   }
 4895              		.loc 1 1906 17 view .LVU1579
 4896 0066 4FF0010C 		mov	ip, #1
 4897              	.L310:
 4898              	.LVL382:
1913:Drivers/STM32F4xx_HAL_Driver/Src/stm32f4xx_ll_usb.c ****   {
 4899              		.loc 1 1913 3 is_stmt 1 view .LVU1580
1913:Drivers/STM32F4xx_HAL_Driver/Src/stm32f4xx_ll_usb.c ****   {
 4900              		.loc 1 1913 9 is_stmt 0 view .LVU1581
 4901 006a CD78     		ldrb	r5, [r1, #3]	@ zero_extendqisi2
1913:Drivers/STM32F4xx_HAL_Driver/Src/stm32f4xx_ll_usb.c ****   {
ARM GAS  /tmp/ccfbcrWA.s 			page 145


 4902              		.loc 1 1913 6 view .LVU1582
 4903 006c 002D     		cmp	r5, #0
 4904 006e 52D0     		beq	.L311
1915:Drivers/STM32F4xx_HAL_Driver/Src/stm32f4xx_ll_usb.c ****   }
 4905              		.loc 1 1915 5 is_stmt 1 view .LVU1583
1915:Drivers/STM32F4xx_HAL_Driver/Src/stm32f4xx_ll_usb.c ****   }
 4906              		.loc 1 1915 46 is_stmt 0 view .LVU1584
 4907 0070 0C89     		ldrh	r4, [r1, #8]
1915:Drivers/STM32F4xx_HAL_Driver/Src/stm32f4xx_ll_usb.c ****   }
 4908              		.loc 1 1915 42 view .LVU1585
 4909 0072 04FB0CF4 		mul	r4, r4, ip
1915:Drivers/STM32F4xx_HAL_Driver/Src/stm32f4xx_ll_usb.c ****   }
 4910              		.loc 1 1915 18 view .LVU1586
 4911 0076 0C61     		str	r4, [r1, #16]
 4912              	.L312:
1923:Drivers/STM32F4xx_HAL_Driver/Src/stm32f4xx_ll_usb.c ****                             (((uint32_t)num_packets << 19) & USB_OTG_HCTSIZ_PKTCNT) |
 4913              		.loc 1 1923 3 is_stmt 1 view .LVU1587
1923:Drivers/STM32F4xx_HAL_Driver/Src/stm32f4xx_ll_usb.c ****                             (((uint32_t)num_packets << 19) & USB_OTG_HCTSIZ_PKTCNT) |
 4914              		.loc 1 1923 32 is_stmt 0 view .LVU1588
 4915 0078 0C69     		ldr	r4, [r1, #16]
1923:Drivers/STM32F4xx_HAL_Driver/Src/stm32f4xx_ll_usb.c ****                             (((uint32_t)num_packets << 19) & USB_OTG_HCTSIZ_PKTCNT) |
 4916              		.loc 1 1923 43 view .LVU1589
 4917 007a C4F31204 		ubfx	r4, r4, #0, #19
1924:Drivers/STM32F4xx_HAL_Driver/Src/stm32f4xx_ll_usb.c ****                             (((uint32_t)hc->data_pid << 29) & USB_OTG_HCTSIZ_DPID);
 4918              		.loc 1 1924 60 view .LVU1590
 4919 007e 3A4D     		ldr	r5, .L324
 4920 0080 05EACC4C 		and	ip, r5, ip, lsl #19
 4921              	.LVL383:
1923:Drivers/STM32F4xx_HAL_Driver/Src/stm32f4xx_ll_usb.c ****                             (((uint32_t)num_packets << 19) & USB_OTG_HCTSIZ_PKTCNT) |
 4922              		.loc 1 1923 68 view .LVU1591
 4923 0084 44EA0C04 		orr	r4, r4, ip
1925:Drivers/STM32F4xx_HAL_Driver/Src/stm32f4xx_ll_usb.c **** 
 4924              		.loc 1 1925 43 view .LVU1592
 4925 0088 91F80AC0 		ldrb	ip, [r1, #10]	@ zero_extendqisi2
1925:Drivers/STM32F4xx_HAL_Driver/Src/stm32f4xx_ll_usb.c **** 
 4926              		.loc 1 1925 54 view .LVU1593
 4927 008c 4FEA4C7C 		lsl	ip, ip, #29
1925:Drivers/STM32F4xx_HAL_Driver/Src/stm32f4xx_ll_usb.c **** 
 4928              		.loc 1 1925 61 view .LVU1594
 4929 0090 0CF0C04C 		and	ip, ip, #1610612736
1923:Drivers/STM32F4xx_HAL_Driver/Src/stm32f4xx_ll_usb.c ****                             (((uint32_t)num_packets << 19) & USB_OTG_HCTSIZ_PKTCNT) |
 4930              		.loc 1 1923 3 view .LVU1595
 4931 0094 00EB4313 		add	r3, r0, r3, lsl #5
 4932              	.LVL384:
1924:Drivers/STM32F4xx_HAL_Driver/Src/stm32f4xx_ll_usb.c ****                             (((uint32_t)hc->data_pid << 29) & USB_OTG_HCTSIZ_DPID);
 4933              		.loc 1 1924 85 view .LVU1596
 4934 0098 44EA0C04 		orr	r4, r4, ip
1923:Drivers/STM32F4xx_HAL_Driver/Src/stm32f4xx_ll_usb.c ****                             (((uint32_t)num_packets << 19) & USB_OTG_HCTSIZ_PKTCNT) |
 4935              		.loc 1 1923 27 view .LVU1597
 4936 009c C3F81045 		str	r4, [r3, #1296]
1927:Drivers/STM32F4xx_HAL_Driver/Src/stm32f4xx_ll_usb.c ****   {
 4937              		.loc 1 1927 3 is_stmt 1 view .LVU1598
1927:Drivers/STM32F4xx_HAL_Driver/Src/stm32f4xx_ll_usb.c ****   {
 4938              		.loc 1 1927 6 is_stmt 0 view .LVU1599
 4939 00a0 12B1     		cbz	r2, .L313
1930:Drivers/STM32F4xx_HAL_Driver/Src/stm32f4xx_ll_usb.c ****   }
 4940              		.loc 1 1930 5 is_stmt 1 view .LVU1600
ARM GAS  /tmp/ccfbcrWA.s 			page 146


1930:Drivers/STM32F4xx_HAL_Driver/Src/stm32f4xx_ll_usb.c ****   }
 4941              		.loc 1 1930 42 is_stmt 0 view .LVU1601
 4942 00a2 CC68     		ldr	r4, [r1, #12]
1930:Drivers/STM32F4xx_HAL_Driver/Src/stm32f4xx_ll_usb.c ****   }
 4943              		.loc 1 1930 28 view .LVU1602
 4944 00a4 C3F81445 		str	r4, [r3, #1300]
 4945              	.L313:
1933:Drivers/STM32F4xx_HAL_Driver/Src/stm32f4xx_ll_usb.c ****   USBx_HC(ch_num)->HCCHAR &= ~USB_OTG_HCCHAR_ODDFRM;
 4946              		.loc 1 1933 3 is_stmt 1 view .LVU1603
1933:Drivers/STM32F4xx_HAL_Driver/Src/stm32f4xx_ll_usb.c ****   USBx_HC(ch_num)->HCCHAR &= ~USB_OTG_HCCHAR_ODDFRM;
 4947              		.loc 1 1933 29 is_stmt 0 view .LVU1604
 4948 00a8 00F5806C 		add	ip, r0, #1024
1933:Drivers/STM32F4xx_HAL_Driver/Src/stm32f4xx_ll_usb.c ****   USBx_HC(ch_num)->HCCHAR &= ~USB_OTG_HCCHAR_ODDFRM;
 4949              		.loc 1 1933 38 view .LVU1605
 4950 00ac DCF80840 		ldr	r4, [ip, #8]
1933:Drivers/STM32F4xx_HAL_Driver/Src/stm32f4xx_ll_usb.c ****   USBx_HC(ch_num)->HCCHAR &= ~USB_OTG_HCCHAR_ODDFRM;
 4951              		.loc 1 1933 67 view .LVU1606
 4952 00b0 14F0010F 		tst	r4, #1
 4953 00b4 0CBF     		ite	eq
 4954 00b6 4FF0010E 		moveq	lr, #1
 4955 00ba 4FF0000E 		movne	lr, #0
 4956              	.LVL385:
1934:Drivers/STM32F4xx_HAL_Driver/Src/stm32f4xx_ll_usb.c ****   USBx_HC(ch_num)->HCCHAR |= (uint32_t)is_oddframe << 29;
 4957              		.loc 1 1934 3 is_stmt 1 view .LVU1607
1934:Drivers/STM32F4xx_HAL_Driver/Src/stm32f4xx_ll_usb.c ****   USBx_HC(ch_num)->HCCHAR |= (uint32_t)is_oddframe << 29;
 4958              		.loc 1 1934 27 is_stmt 0 view .LVU1608
 4959 00be D3F80055 		ldr	r5, [r3, #1280]
 4960 00c2 25F00055 		bic	r5, r5, #536870912
 4961 00c6 C3F80055 		str	r5, [r3, #1280]
1935:Drivers/STM32F4xx_HAL_Driver/Src/stm32f4xx_ll_usb.c **** 
 4962              		.loc 1 1935 3 is_stmt 1 view .LVU1609
1935:Drivers/STM32F4xx_HAL_Driver/Src/stm32f4xx_ll_usb.c **** 
 4963              		.loc 1 1935 27 is_stmt 0 view .LVU1610
 4964 00ca D3F80045 		ldr	r4, [r3, #1280]
 4965 00ce 44EA4E74 		orr	r4, r4, lr, lsl #29
 4966 00d2 C3F80045 		str	r4, [r3, #1280]
1938:Drivers/STM32F4xx_HAL_Driver/Src/stm32f4xx_ll_usb.c ****   tmpreg &= ~USB_OTG_HCCHAR_CHDIS;
 4967              		.loc 1 1938 3 is_stmt 1 view .LVU1611
1938:Drivers/STM32F4xx_HAL_Driver/Src/stm32f4xx_ll_usb.c ****   tmpreg &= ~USB_OTG_HCCHAR_CHDIS;
 4968              		.loc 1 1938 27 is_stmt 0 view .LVU1612
 4969 00d6 D3F80045 		ldr	r4, [r3, #1280]
1938:Drivers/STM32F4xx_HAL_Driver/Src/stm32f4xx_ll_usb.c ****   tmpreg &= ~USB_OTG_HCCHAR_CHDIS;
 4970              		.loc 1 1938 10 view .LVU1613
 4971 00da 0394     		str	r4, [sp, #12]
1939:Drivers/STM32F4xx_HAL_Driver/Src/stm32f4xx_ll_usb.c **** 
 4972              		.loc 1 1939 3 is_stmt 1 view .LVU1614
1939:Drivers/STM32F4xx_HAL_Driver/Src/stm32f4xx_ll_usb.c **** 
 4973              		.loc 1 1939 10 is_stmt 0 view .LVU1615
 4974 00dc 039C     		ldr	r4, [sp, #12]
 4975 00de 24F08044 		bic	r4, r4, #1073741824
 4976 00e2 0394     		str	r4, [sp, #12]
1942:Drivers/STM32F4xx_HAL_Driver/Src/stm32f4xx_ll_usb.c ****   {
 4977              		.loc 1 1942 3 is_stmt 1 view .LVU1616
1942:Drivers/STM32F4xx_HAL_Driver/Src/stm32f4xx_ll_usb.c ****   {
 4978              		.loc 1 1942 9 is_stmt 0 view .LVU1617
 4979 00e4 CC78     		ldrb	r4, [r1, #3]	@ zero_extendqisi2
1942:Drivers/STM32F4xx_HAL_Driver/Src/stm32f4xx_ll_usb.c ****   {
ARM GAS  /tmp/ccfbcrWA.s 			page 147


 4980              		.loc 1 1942 6 view .LVU1618
 4981 00e6 C4B1     		cbz	r4, .L314
1944:Drivers/STM32F4xx_HAL_Driver/Src/stm32f4xx_ll_usb.c ****   }
 4982              		.loc 1 1944 5 is_stmt 1 view .LVU1619
1944:Drivers/STM32F4xx_HAL_Driver/Src/stm32f4xx_ll_usb.c ****   }
 4983              		.loc 1 1944 12 is_stmt 0 view .LVU1620
 4984 00e8 039C     		ldr	r4, [sp, #12]
 4985 00ea 44F40044 		orr	r4, r4, #32768
 4986 00ee 0394     		str	r4, [sp, #12]
 4987              	.L315:
1950:Drivers/STM32F4xx_HAL_Driver/Src/stm32f4xx_ll_usb.c ****   USBx_HC(ch_num)->HCCHAR = tmpreg;
 4988              		.loc 1 1950 3 is_stmt 1 view .LVU1621
1950:Drivers/STM32F4xx_HAL_Driver/Src/stm32f4xx_ll_usb.c ****   USBx_HC(ch_num)->HCCHAR = tmpreg;
 4989              		.loc 1 1950 10 is_stmt 0 view .LVU1622
 4990 00f0 039C     		ldr	r4, [sp, #12]
 4991 00f2 44F00044 		orr	r4, r4, #-2147483648
 4992 00f6 0394     		str	r4, [sp, #12]
1951:Drivers/STM32F4xx_HAL_Driver/Src/stm32f4xx_ll_usb.c **** 
 4993              		.loc 1 1951 3 is_stmt 1 view .LVU1623
1951:Drivers/STM32F4xx_HAL_Driver/Src/stm32f4xx_ll_usb.c **** 
 4994              		.loc 1 1951 27 is_stmt 0 view .LVU1624
 4995 00f8 039C     		ldr	r4, [sp, #12]
 4996 00fa C3F80045 		str	r4, [r3, #1280]
1953:Drivers/STM32F4xx_HAL_Driver/Src/stm32f4xx_ll_usb.c ****   {
 4997              		.loc 1 1953 3 is_stmt 1 view .LVU1625
1953:Drivers/STM32F4xx_HAL_Driver/Src/stm32f4xx_ll_usb.c ****   {
 4998              		.loc 1 1953 6 is_stmt 0 view .LVU1626
 4999 00fe 1ABB     		cbnz	r2, .L309
1958:Drivers/STM32F4xx_HAL_Driver/Src/stm32f4xx_ll_usb.c ****   {
 5000              		.loc 1 1958 3 is_stmt 1 view .LVU1627
1958:Drivers/STM32F4xx_HAL_Driver/Src/stm32f4xx_ll_usb.c ****   {
 5001              		.loc 1 1958 10 is_stmt 0 view .LVU1628
 5002 0100 CB78     		ldrb	r3, [r1, #3]	@ zero_extendqisi2
1958:Drivers/STM32F4xx_HAL_Driver/Src/stm32f4xx_ll_usb.c ****   {
 5003              		.loc 1 1958 6 view .LVU1629
 5004 0102 0BBB     		cbnz	r3, .L309
1958:Drivers/STM32F4xx_HAL_Driver/Src/stm32f4xx_ll_usb.c ****   {
 5005              		.loc 1 1958 34 discriminator 1 view .LVU1630
 5006 0104 4B69     		ldr	r3, [r1, #20]
1958:Drivers/STM32F4xx_HAL_Driver/Src/stm32f4xx_ll_usb.c ****   {
 5007              		.loc 1 1958 28 discriminator 1 view .LVU1631
 5008 0106 FBB1     		cbz	r3, .L309
1960:Drivers/STM32F4xx_HAL_Driver/Src/stm32f4xx_ll_usb.c ****     {
 5009              		.loc 1 1960 5 is_stmt 1 view .LVU1632
1960:Drivers/STM32F4xx_HAL_Driver/Src/stm32f4xx_ll_usb.c ****     {
 5010              		.loc 1 1960 15 is_stmt 0 view .LVU1633
 5011 0108 CA79     		ldrb	r2, [r1, #7]	@ zero_extendqisi2
 5012              	.LVL386:
1960:Drivers/STM32F4xx_HAL_Driver/Src/stm32f4xx_ll_usb.c ****     {
 5013              		.loc 1 1960 5 view .LVU1634
 5014 010a 032A     		cmp	r2, #3
 5015 010c 15D8     		bhi	.L316
 5016 010e DFE802F0 		tbb	[pc, r2]
 5017              	.L318:
 5018 0112 09       		.byte	(.L319-.L318)/2
 5019 0113 1E       		.byte	(.L317-.L318)/2
 5020 0114 09       		.byte	(.L319-.L318)/2
ARM GAS  /tmp/ccfbcrWA.s 			page 148


 5021 0115 1E       		.byte	(.L317-.L318)/2
 5022              	.LVL387:
 5023              		.p2align 1
 5024              	.L311:
1919:Drivers/STM32F4xx_HAL_Driver/Src/stm32f4xx_ll_usb.c ****   }
 5025              		.loc 1 1919 5 is_stmt 1 view .LVU1635
1919:Drivers/STM32F4xx_HAL_Driver/Src/stm32f4xx_ll_usb.c ****   }
 5026              		.loc 1 1919 18 is_stmt 0 view .LVU1636
 5027 0116 0C61     		str	r4, [r1, #16]
 5028 0118 AEE7     		b	.L312
 5029              	.LVL388:
 5030              	.L314:
1948:Drivers/STM32F4xx_HAL_Driver/Src/stm32f4xx_ll_usb.c ****   }
 5031              		.loc 1 1948 5 is_stmt 1 view .LVU1637
1948:Drivers/STM32F4xx_HAL_Driver/Src/stm32f4xx_ll_usb.c ****   }
 5032              		.loc 1 1948 12 is_stmt 0 view .LVU1638
 5033 011a 039C     		ldr	r4, [sp, #12]
 5034 011c 24F40044 		bic	r4, r4, #32768
 5035 0120 0394     		str	r4, [sp, #12]
 5036 0122 E5E7     		b	.L315
 5037              	.LVL389:
 5038              	.L319:
1966:Drivers/STM32F4xx_HAL_Driver/Src/stm32f4xx_ll_usb.c **** 
 5039              		.loc 1 1966 9 is_stmt 1 view .LVU1639
1966:Drivers/STM32F4xx_HAL_Driver/Src/stm32f4xx_ll_usb.c **** 
 5040              		.loc 1 1966 46 is_stmt 0 view .LVU1640
 5041 0124 0333     		adds	r3, r3, #3
 5042              	.LVL390:
1969:Drivers/STM32F4xx_HAL_Driver/Src/stm32f4xx_ll_usb.c ****         {
 5043              		.loc 1 1969 9 is_stmt 1 view .LVU1641
1969:Drivers/STM32F4xx_HAL_Driver/Src/stm32f4xx_ll_usb.c ****         {
 5044              		.loc 1 1969 30 is_stmt 0 view .LVU1642
 5045 0126 C26A     		ldr	r2, [r0, #44]
1969:Drivers/STM32F4xx_HAL_Driver/Src/stm32f4xx_ll_usb.c ****         {
 5046              		.loc 1 1969 41 view .LVU1643
 5047 0128 92B2     		uxth	r2, r2
1969:Drivers/STM32F4xx_HAL_Driver/Src/stm32f4xx_ll_usb.c ****         {
 5048              		.loc 1 1969 12 view .LVU1644
 5049 012a C3F38F03 		ubfx	r3, r3, #2, #16
 5050              	.LVL391:
1969:Drivers/STM32F4xx_HAL_Driver/Src/stm32f4xx_ll_usb.c ****         {
 5051              		.loc 1 1969 12 view .LVU1645
 5052 012e 9A42     		cmp	r2, r3
 5053 0130 03D2     		bcs	.L316
1972:Drivers/STM32F4xx_HAL_Driver/Src/stm32f4xx_ll_usb.c ****         }
 5054              		.loc 1 1972 11 is_stmt 1 view .LVU1646
1972:Drivers/STM32F4xx_HAL_Driver/Src/stm32f4xx_ll_usb.c ****         }
 5055              		.loc 1 1972 25 is_stmt 0 view .LVU1647
 5056 0132 8369     		ldr	r3, [r0, #24]
 5057 0134 43F02003 		orr	r3, r3, #32
 5058 0138 8361     		str	r3, [r0, #24]
 5059              	.LVL392:
 5060              	.L316:
1993:Drivers/STM32F4xx_HAL_Driver/Src/stm32f4xx_ll_usb.c ****   }
 5061              		.loc 1 1993 5 is_stmt 1 view .LVU1648
1993:Drivers/STM32F4xx_HAL_Driver/Src/stm32f4xx_ll_usb.c ****   }
 5062              		.loc 1 1993 11 is_stmt 0 view .LVU1649
ARM GAS  /tmp/ccfbcrWA.s 			page 149


 5063 013a 0023     		movs	r3, #0
 5064 013c 0093     		str	r3, [sp]
 5065 013e 8B8A     		ldrh	r3, [r1, #20]
 5066 0140 4A78     		ldrb	r2, [r1, #1]	@ zero_extendqisi2
 5067 0142 C968     		ldr	r1, [r1, #12]
 5068              	.LVL393:
1993:Drivers/STM32F4xx_HAL_Driver/Src/stm32f4xx_ll_usb.c ****   }
 5069              		.loc 1 1993 11 view .LVU1650
 5070 0144 FFF7FEFF 		bl	USB_WritePacket
 5071              	.LVL394:
 5072              	.L309:
1997:Drivers/STM32F4xx_HAL_Driver/Src/stm32f4xx_ll_usb.c **** 
 5073              		.loc 1 1997 1 view .LVU1651
 5074 0148 0020     		movs	r0, #0
 5075 014a 05B0     		add	sp, sp, #20
 5076              	.LCFI68:
 5077              		.cfi_remember_state
 5078              		.cfi_def_cfa_offset 12
 5079              		@ sp needed
 5080 014c 30BD     		pop	{r4, r5, pc}
 5081              	.LVL395:
 5082              	.L317:
 5083              	.LCFI69:
 5084              		.cfi_restore_state
1979:Drivers/STM32F4xx_HAL_Driver/Src/stm32f4xx_ll_usb.c ****         /* check if there is enough space in FIFO space */
 5085              		.loc 1 1979 9 is_stmt 1 view .LVU1652
1979:Drivers/STM32F4xx_HAL_Driver/Src/stm32f4xx_ll_usb.c ****         /* check if there is enough space in FIFO space */
 5086              		.loc 1 1979 46 is_stmt 0 view .LVU1653
 5087 014e 0333     		adds	r3, r3, #3
 5088              	.LVL396:
1981:Drivers/STM32F4xx_HAL_Driver/Src/stm32f4xx_ll_usb.c ****         {
 5089              		.loc 1 1981 9 is_stmt 1 view .LVU1654
1981:Drivers/STM32F4xx_HAL_Driver/Src/stm32f4xx_ll_usb.c ****         {
 5090              		.loc 1 1981 35 is_stmt 0 view .LVU1655
 5091 0150 DCF81020 		ldr	r2, [ip, #16]
1981:Drivers/STM32F4xx_HAL_Driver/Src/stm32f4xx_ll_usb.c ****         {
 5092              		.loc 1 1981 45 view .LVU1656
 5093 0154 92B2     		uxth	r2, r2
1981:Drivers/STM32F4xx_HAL_Driver/Src/stm32f4xx_ll_usb.c ****         {
 5094              		.loc 1 1981 12 view .LVU1657
 5095 0156 C3F38F03 		ubfx	r3, r3, #2, #16
 5096              	.LVL397:
1981:Drivers/STM32F4xx_HAL_Driver/Src/stm32f4xx_ll_usb.c ****         {
 5097              		.loc 1 1981 12 view .LVU1658
 5098 015a 9A42     		cmp	r2, r3
 5099 015c EDD2     		bcs	.L316
1984:Drivers/STM32F4xx_HAL_Driver/Src/stm32f4xx_ll_usb.c ****         }
 5100              		.loc 1 1984 11 is_stmt 1 view .LVU1659
1984:Drivers/STM32F4xx_HAL_Driver/Src/stm32f4xx_ll_usb.c ****         }
 5101              		.loc 1 1984 25 is_stmt 0 view .LVU1660
 5102 015e 8369     		ldr	r3, [r0, #24]
 5103 0160 43F08063 		orr	r3, r3, #67108864
 5104 0164 8361     		str	r3, [r0, #24]
 5105              	.LVL398:
1984:Drivers/STM32F4xx_HAL_Driver/Src/stm32f4xx_ll_usb.c ****         }
 5106              		.loc 1 1984 25 view .LVU1661
 5107 0166 E8E7     		b	.L316
ARM GAS  /tmp/ccfbcrWA.s 			page 150


 5108              	.L325:
 5109              		.align	2
 5110              	.L324:
 5111 0168 0000F81F 		.word	536346624
 5112              		.cfi_endproc
 5113              	.LFE172:
 5115              		.section	.text.USB_StopHost,"ax",%progbits
 5116              		.align	1
 5117              		.global	USB_StopHost
 5118              		.syntax unified
 5119              		.thumb
 5120              		.thumb_func
 5121              		.fpu fpv4-sp-d16
 5123              	USB_StopHost:
 5124              	.LVL399:
 5125              	.LFB176:
2111:Drivers/STM32F4xx_HAL_Driver/Src/stm32f4xx_ll_usb.c **** 
2112:Drivers/STM32F4xx_HAL_Driver/Src/stm32f4xx_ll_usb.c **** /**
2113:Drivers/STM32F4xx_HAL_Driver/Src/stm32f4xx_ll_usb.c ****   * @brief  Stop Host Core
2114:Drivers/STM32F4xx_HAL_Driver/Src/stm32f4xx_ll_usb.c ****   * @param  USBx  Selected device
2115:Drivers/STM32F4xx_HAL_Driver/Src/stm32f4xx_ll_usb.c ****   * @retval HAL state
2116:Drivers/STM32F4xx_HAL_Driver/Src/stm32f4xx_ll_usb.c ****   */
2117:Drivers/STM32F4xx_HAL_Driver/Src/stm32f4xx_ll_usb.c **** HAL_StatusTypeDef USB_StopHost(USB_OTG_GlobalTypeDef *USBx)
2118:Drivers/STM32F4xx_HAL_Driver/Src/stm32f4xx_ll_usb.c **** {
 5126              		.loc 1 2118 1 is_stmt 1 view -0
 5127              		.cfi_startproc
 5128              		@ args = 0, pretend = 0, frame = 8
 5129              		@ frame_needed = 0, uses_anonymous_args = 0
 5130              		.loc 1 2118 1 is_stmt 0 view .LVU1663
 5131 0000 30B5     		push	{r4, r5, lr}
 5132              	.LCFI70:
 5133              		.cfi_def_cfa_offset 12
 5134              		.cfi_offset 4, -12
 5135              		.cfi_offset 5, -8
 5136              		.cfi_offset 14, -4
 5137 0002 83B0     		sub	sp, sp, #12
 5138              	.LCFI71:
 5139              		.cfi_def_cfa_offset 24
 5140 0004 0446     		mov	r4, r0
2119:Drivers/STM32F4xx_HAL_Driver/Src/stm32f4xx_ll_usb.c ****   HAL_StatusTypeDef ret = HAL_OK;
 5141              		.loc 1 2119 3 is_stmt 1 view .LVU1664
 5142              	.LVL400:
2120:Drivers/STM32F4xx_HAL_Driver/Src/stm32f4xx_ll_usb.c ****   uint32_t USBx_BASE = (uint32_t)USBx;
 5143              		.loc 1 2120 3 view .LVU1665
2121:Drivers/STM32F4xx_HAL_Driver/Src/stm32f4xx_ll_usb.c ****   __IO uint32_t count = 0U;
 5144              		.loc 1 2121 3 view .LVU1666
 5145              		.loc 1 2121 17 is_stmt 0 view .LVU1667
 5146 0006 0023     		movs	r3, #0
 5147 0008 0193     		str	r3, [sp, #4]
2122:Drivers/STM32F4xx_HAL_Driver/Src/stm32f4xx_ll_usb.c ****   uint32_t value;
 5148              		.loc 1 2122 3 is_stmt 1 view .LVU1668
2123:Drivers/STM32F4xx_HAL_Driver/Src/stm32f4xx_ll_usb.c ****   uint32_t i;
 5149              		.loc 1 2123 3 view .LVU1669
2124:Drivers/STM32F4xx_HAL_Driver/Src/stm32f4xx_ll_usb.c **** 
2125:Drivers/STM32F4xx_HAL_Driver/Src/stm32f4xx_ll_usb.c ****   (void)USB_DisableGlobalInt(USBx);
 5150              		.loc 1 2125 3 view .LVU1670
 5151              		.loc 1 2125 9 is_stmt 0 view .LVU1671
ARM GAS  /tmp/ccfbcrWA.s 			page 151


 5152 000a FFF7FEFF 		bl	USB_DisableGlobalInt
 5153              	.LVL401:
2126:Drivers/STM32F4xx_HAL_Driver/Src/stm32f4xx_ll_usb.c **** 
2127:Drivers/STM32F4xx_HAL_Driver/Src/stm32f4xx_ll_usb.c ****   /* Flush USB FIFO */
2128:Drivers/STM32F4xx_HAL_Driver/Src/stm32f4xx_ll_usb.c ****   if (USB_FlushTxFifo(USBx, 0x10U) != HAL_OK) /* all Tx FIFOs */
 5154              		.loc 1 2128 3 is_stmt 1 view .LVU1672
 5155              		.loc 1 2128 7 is_stmt 0 view .LVU1673
 5156 000e 1021     		movs	r1, #16
 5157 0010 2046     		mov	r0, r4
 5158 0012 FFF7FEFF 		bl	USB_FlushTxFifo
 5159              	.LVL402:
 5160              		.loc 1 2128 6 view .LVU1674
 5161 0016 0546     		mov	r5, r0
 5162 0018 00B1     		cbz	r0, .L327
2129:Drivers/STM32F4xx_HAL_Driver/Src/stm32f4xx_ll_usb.c ****   {
2130:Drivers/STM32F4xx_HAL_Driver/Src/stm32f4xx_ll_usb.c ****     ret = HAL_ERROR;
 5163              		.loc 1 2130 9 view .LVU1675
 5164 001a 0125     		movs	r5, #1
 5165              	.L327:
 5166              	.LVL403:
2131:Drivers/STM32F4xx_HAL_Driver/Src/stm32f4xx_ll_usb.c ****   }
2132:Drivers/STM32F4xx_HAL_Driver/Src/stm32f4xx_ll_usb.c **** 
2133:Drivers/STM32F4xx_HAL_Driver/Src/stm32f4xx_ll_usb.c ****   if (USB_FlushRxFifo(USBx) != HAL_OK)
 5167              		.loc 1 2133 3 is_stmt 1 view .LVU1676
 5168              		.loc 1 2133 7 is_stmt 0 view .LVU1677
 5169 001c 2046     		mov	r0, r4
 5170 001e FFF7FEFF 		bl	USB_FlushRxFifo
 5171              	.LVL404:
 5172              		.loc 1 2133 6 view .LVU1678
 5173 0022 00B1     		cbz	r0, .L328
2134:Drivers/STM32F4xx_HAL_Driver/Src/stm32f4xx_ll_usb.c ****   {
2135:Drivers/STM32F4xx_HAL_Driver/Src/stm32f4xx_ll_usb.c ****     ret = HAL_ERROR;
 5174              		.loc 1 2135 9 view .LVU1679
 5175 0024 0125     		movs	r5, #1
 5176              	.LVL405:
 5177              	.L328:
2136:Drivers/STM32F4xx_HAL_Driver/Src/stm32f4xx_ll_usb.c ****   }
2137:Drivers/STM32F4xx_HAL_Driver/Src/stm32f4xx_ll_usb.c **** 
2138:Drivers/STM32F4xx_HAL_Driver/Src/stm32f4xx_ll_usb.c ****   /* Flush out any leftover queued requests. */
2139:Drivers/STM32F4xx_HAL_Driver/Src/stm32f4xx_ll_usb.c ****   for (i = 0U; i <= 15U; i++)
 5178              		.loc 1 2139 3 is_stmt 1 view .LVU1680
 5179              		.loc 1 2139 10 is_stmt 0 view .LVU1681
 5180 0026 0022     		movs	r2, #0
 5181              		.loc 1 2139 3 view .LVU1682
 5182 0028 0AE0     		b	.L329
 5183              	.LVL406:
 5184              	.L330:
2140:Drivers/STM32F4xx_HAL_Driver/Src/stm32f4xx_ll_usb.c ****   {
2141:Drivers/STM32F4xx_HAL_Driver/Src/stm32f4xx_ll_usb.c ****     value = USBx_HC(i)->HCCHAR;
 5185              		.loc 1 2141 5 is_stmt 1 discriminator 3 view .LVU1683
 5186              		.loc 1 2141 13 is_stmt 0 discriminator 3 view .LVU1684
 5187 002a 04EB4211 		add	r1, r4, r2, lsl #5
 5188              		.loc 1 2141 11 discriminator 3 view .LVU1685
 5189 002e D1F80035 		ldr	r3, [r1, #1280]
 5190              	.LVL407:
2142:Drivers/STM32F4xx_HAL_Driver/Src/stm32f4xx_ll_usb.c ****     value |=  USB_OTG_HCCHAR_CHDIS;
 5191              		.loc 1 2142 5 is_stmt 1 discriminator 3 view .LVU1686
ARM GAS  /tmp/ccfbcrWA.s 			page 152


2143:Drivers/STM32F4xx_HAL_Driver/Src/stm32f4xx_ll_usb.c ****     value &= ~USB_OTG_HCCHAR_CHENA;
 5192              		.loc 1 2143 5 discriminator 3 view .LVU1687
2144:Drivers/STM32F4xx_HAL_Driver/Src/stm32f4xx_ll_usb.c ****     value &= ~USB_OTG_HCCHAR_EPDIR;
 5193              		.loc 1 2144 5 discriminator 3 view .LVU1688
 5194 0032 23F08023 		bic	r3, r3, #-2147450880
 5195              	.LVL408:
 5196              		.loc 1 2144 11 is_stmt 0 discriminator 3 view .LVU1689
 5197 0036 43F08043 		orr	r3, r3, #1073741824
 5198              	.LVL409:
2145:Drivers/STM32F4xx_HAL_Driver/Src/stm32f4xx_ll_usb.c ****     USBx_HC(i)->HCCHAR = value;
 5199              		.loc 1 2145 5 is_stmt 1 discriminator 3 view .LVU1690
 5200              		.loc 1 2145 24 is_stmt 0 discriminator 3 view .LVU1691
 5201 003a C1F80035 		str	r3, [r1, #1280]
2139:Drivers/STM32F4xx_HAL_Driver/Src/stm32f4xx_ll_usb.c ****   {
 5202              		.loc 1 2139 26 is_stmt 1 discriminator 3 view .LVU1692
2139:Drivers/STM32F4xx_HAL_Driver/Src/stm32f4xx_ll_usb.c ****   {
 5203              		.loc 1 2139 27 is_stmt 0 discriminator 3 view .LVU1693
 5204 003e 0132     		adds	r2, r2, #1
 5205              	.LVL410:
 5206              	.L329:
2139:Drivers/STM32F4xx_HAL_Driver/Src/stm32f4xx_ll_usb.c ****   {
 5207              		.loc 1 2139 16 is_stmt 1 discriminator 1 view .LVU1694
2139:Drivers/STM32F4xx_HAL_Driver/Src/stm32f4xx_ll_usb.c ****   {
 5208              		.loc 1 2139 3 is_stmt 0 discriminator 1 view .LVU1695
 5209 0040 0F2A     		cmp	r2, #15
 5210 0042 F2D9     		bls	.L330
2146:Drivers/STM32F4xx_HAL_Driver/Src/stm32f4xx_ll_usb.c ****   }
2147:Drivers/STM32F4xx_HAL_Driver/Src/stm32f4xx_ll_usb.c **** 
2148:Drivers/STM32F4xx_HAL_Driver/Src/stm32f4xx_ll_usb.c ****   /* Halt all channels to put them into a known state. */
2149:Drivers/STM32F4xx_HAL_Driver/Src/stm32f4xx_ll_usb.c ****   for (i = 0U; i <= 15U; i++)
 5211              		.loc 1 2149 10 view .LVU1696
 5212 0044 0021     		movs	r1, #0
 5213 0046 00E0     		b	.L331
 5214              	.LVL411:
 5215              	.L332:
 5216              		.loc 1 2149 26 is_stmt 1 discriminator 2 view .LVU1697
 5217              		.loc 1 2149 27 is_stmt 0 discriminator 2 view .LVU1698
 5218 0048 0131     		adds	r1, r1, #1
 5219              	.LVL412:
 5220              	.L331:
 5221              		.loc 1 2149 16 is_stmt 1 discriminator 1 view .LVU1699
 5222              		.loc 1 2149 3 is_stmt 0 discriminator 1 view .LVU1700
 5223 004a 0F29     		cmp	r1, #15
 5224 004c 16D8     		bhi	.L338
2150:Drivers/STM32F4xx_HAL_Driver/Src/stm32f4xx_ll_usb.c ****   {
2151:Drivers/STM32F4xx_HAL_Driver/Src/stm32f4xx_ll_usb.c ****     value = USBx_HC(i)->HCCHAR;
 5225              		.loc 1 2151 5 is_stmt 1 view .LVU1701
 5226              		.loc 1 2151 13 is_stmt 0 view .LVU1702
 5227 004e 04EB4110 		add	r0, r4, r1, lsl #5
 5228 0052 00F5A062 		add	r2, r0, #1280
 5229              		.loc 1 2151 11 view .LVU1703
 5230 0056 D0F80035 		ldr	r3, [r0, #1280]
 5231              	.LVL413:
2152:Drivers/STM32F4xx_HAL_Driver/Src/stm32f4xx_ll_usb.c ****     value |= USB_OTG_HCCHAR_CHDIS;
 5232              		.loc 1 2152 5 is_stmt 1 view .LVU1704
2153:Drivers/STM32F4xx_HAL_Driver/Src/stm32f4xx_ll_usb.c ****     value |= USB_OTG_HCCHAR_CHENA;
 5233              		.loc 1 2153 5 view .LVU1705
ARM GAS  /tmp/ccfbcrWA.s 			page 153


2154:Drivers/STM32F4xx_HAL_Driver/Src/stm32f4xx_ll_usb.c ****     value &= ~USB_OTG_HCCHAR_EPDIR;
 5234              		.loc 1 2154 5 view .LVU1706
 5235 005a 23F40043 		bic	r3, r3, #32768
 5236              	.LVL414:
 5237              		.loc 1 2154 11 is_stmt 0 view .LVU1707
 5238 005e 43F04043 		orr	r3, r3, #-1073741824
 5239              	.LVL415:
2155:Drivers/STM32F4xx_HAL_Driver/Src/stm32f4xx_ll_usb.c ****     USBx_HC(i)->HCCHAR = value;
 5240              		.loc 1 2155 5 is_stmt 1 view .LVU1708
 5241              		.loc 1 2155 24 is_stmt 0 view .LVU1709
 5242 0062 C0F80035 		str	r3, [r0, #1280]
 5243              	.LVL416:
 5244              	.L333:
2156:Drivers/STM32F4xx_HAL_Driver/Src/stm32f4xx_ll_usb.c **** 
2157:Drivers/STM32F4xx_HAL_Driver/Src/stm32f4xx_ll_usb.c ****     do
 5245              		.loc 1 2157 5 is_stmt 1 view .LVU1710
2158:Drivers/STM32F4xx_HAL_Driver/Src/stm32f4xx_ll_usb.c ****     {
2159:Drivers/STM32F4xx_HAL_Driver/Src/stm32f4xx_ll_usb.c ****       count++;
 5246              		.loc 1 2159 7 view .LVU1711
 5247              		.loc 1 2159 12 is_stmt 0 view .LVU1712
 5248 0066 019B     		ldr	r3, [sp, #4]
 5249 0068 0133     		adds	r3, r3, #1
 5250 006a 0193     		str	r3, [sp, #4]
2160:Drivers/STM32F4xx_HAL_Driver/Src/stm32f4xx_ll_usb.c **** 
2161:Drivers/STM32F4xx_HAL_Driver/Src/stm32f4xx_ll_usb.c ****       if (count > 1000U)
 5251              		.loc 1 2161 7 is_stmt 1 view .LVU1713
 5252              		.loc 1 2161 17 is_stmt 0 view .LVU1714
 5253 006c 019B     		ldr	r3, [sp, #4]
 5254              		.loc 1 2161 10 view .LVU1715
 5255 006e B3F57A7F 		cmp	r3, #1000
 5256 0072 E9D8     		bhi	.L332
2162:Drivers/STM32F4xx_HAL_Driver/Src/stm32f4xx_ll_usb.c ****       {
2163:Drivers/STM32F4xx_HAL_Driver/Src/stm32f4xx_ll_usb.c ****         break;
2164:Drivers/STM32F4xx_HAL_Driver/Src/stm32f4xx_ll_usb.c ****       }
2165:Drivers/STM32F4xx_HAL_Driver/Src/stm32f4xx_ll_usb.c ****     } while ((USBx_HC(i)->HCCHAR & USB_OTG_HCCHAR_CHENA) == USB_OTG_HCCHAR_CHENA);
 5257              		.loc 1 2165 13 is_stmt 1 view .LVU1716
 5258              		.loc 1 2165 25 is_stmt 0 view .LVU1717
 5259 0074 1368     		ldr	r3, [r2]
 5260              		.loc 1 2165 5 view .LVU1718
 5261 0076 002B     		cmp	r3, #0
 5262 0078 F5DB     		blt	.L333
 5263 007a E5E7     		b	.L332
 5264              	.L338:
2166:Drivers/STM32F4xx_HAL_Driver/Src/stm32f4xx_ll_usb.c ****   }
2167:Drivers/STM32F4xx_HAL_Driver/Src/stm32f4xx_ll_usb.c **** 
2168:Drivers/STM32F4xx_HAL_Driver/Src/stm32f4xx_ll_usb.c ****   /* Clear any pending Host interrupts */
2169:Drivers/STM32F4xx_HAL_Driver/Src/stm32f4xx_ll_usb.c ****   USBx_HOST->HAINT = 0xFFFFFFFFU;
 5265              		.loc 1 2169 3 is_stmt 1 view .LVU1719
 5266              		.loc 1 2169 20 is_stmt 0 view .LVU1720
 5267 007c 4FF0FF33 		mov	r3, #-1
 5268 0080 C4F81434 		str	r3, [r4, #1044]
2170:Drivers/STM32F4xx_HAL_Driver/Src/stm32f4xx_ll_usb.c ****   USBx->GINTSTS = 0xFFFFFFFFU;
 5269              		.loc 1 2170 3 is_stmt 1 view .LVU1721
 5270              		.loc 1 2170 17 is_stmt 0 view .LVU1722
 5271 0084 6361     		str	r3, [r4, #20]
2171:Drivers/STM32F4xx_HAL_Driver/Src/stm32f4xx_ll_usb.c **** 
2172:Drivers/STM32F4xx_HAL_Driver/Src/stm32f4xx_ll_usb.c ****   (void)USB_EnableGlobalInt(USBx);
ARM GAS  /tmp/ccfbcrWA.s 			page 154


 5272              		.loc 1 2172 3 is_stmt 1 view .LVU1723
 5273              		.loc 1 2172 9 is_stmt 0 view .LVU1724
 5274 0086 2046     		mov	r0, r4
 5275 0088 FFF7FEFF 		bl	USB_EnableGlobalInt
 5276              	.LVL417:
2173:Drivers/STM32F4xx_HAL_Driver/Src/stm32f4xx_ll_usb.c **** 
2174:Drivers/STM32F4xx_HAL_Driver/Src/stm32f4xx_ll_usb.c ****   return ret;
 5277              		.loc 1 2174 3 is_stmt 1 view .LVU1725
2175:Drivers/STM32F4xx_HAL_Driver/Src/stm32f4xx_ll_usb.c **** }
 5278              		.loc 1 2175 1 is_stmt 0 view .LVU1726
 5279 008c 2846     		mov	r0, r5
 5280 008e 03B0     		add	sp, sp, #12
 5281              	.LCFI72:
 5282              		.cfi_def_cfa_offset 12
 5283              		@ sp needed
 5284 0090 30BD     		pop	{r4, r5, pc}
 5285              		.loc 1 2175 1 view .LVU1727
 5286              		.cfi_endproc
 5287              	.LFE176:
 5289              		.section	.text.USB_ActivateRemoteWakeup,"ax",%progbits
 5290              		.align	1
 5291              		.global	USB_ActivateRemoteWakeup
 5292              		.syntax unified
 5293              		.thumb
 5294              		.thumb_func
 5295              		.fpu fpv4-sp-d16
 5297              	USB_ActivateRemoteWakeup:
 5298              	.LVL418:
 5299              	.LFB177:
2176:Drivers/STM32F4xx_HAL_Driver/Src/stm32f4xx_ll_usb.c **** 
2177:Drivers/STM32F4xx_HAL_Driver/Src/stm32f4xx_ll_usb.c **** /**
2178:Drivers/STM32F4xx_HAL_Driver/Src/stm32f4xx_ll_usb.c ****   * @brief  USB_ActivateRemoteWakeup active remote wakeup signalling
2179:Drivers/STM32F4xx_HAL_Driver/Src/stm32f4xx_ll_usb.c ****   * @param  USBx Selected device
2180:Drivers/STM32F4xx_HAL_Driver/Src/stm32f4xx_ll_usb.c ****   * @retval HAL status
2181:Drivers/STM32F4xx_HAL_Driver/Src/stm32f4xx_ll_usb.c ****   */
2182:Drivers/STM32F4xx_HAL_Driver/Src/stm32f4xx_ll_usb.c **** HAL_StatusTypeDef USB_ActivateRemoteWakeup(USB_OTG_GlobalTypeDef *USBx)
2183:Drivers/STM32F4xx_HAL_Driver/Src/stm32f4xx_ll_usb.c **** {
 5300              		.loc 1 2183 1 is_stmt 1 view -0
 5301              		.cfi_startproc
 5302              		@ args = 0, pretend = 0, frame = 0
 5303              		@ frame_needed = 0, uses_anonymous_args = 0
 5304              		@ link register save eliminated.
2184:Drivers/STM32F4xx_HAL_Driver/Src/stm32f4xx_ll_usb.c ****   uint32_t USBx_BASE = (uint32_t)USBx;
 5305              		.loc 1 2184 3 view .LVU1729
2185:Drivers/STM32F4xx_HAL_Driver/Src/stm32f4xx_ll_usb.c **** 
2186:Drivers/STM32F4xx_HAL_Driver/Src/stm32f4xx_ll_usb.c ****   if ((USBx_DEVICE->DSTS & USB_OTG_DSTS_SUSPSTS) == USB_OTG_DSTS_SUSPSTS)
 5306              		.loc 1 2186 3 view .LVU1730
 5307              		.loc 1 2186 19 is_stmt 0 view .LVU1731
 5308 0000 D0F80838 		ldr	r3, [r0, #2056]
 5309              		.loc 1 2186 8 view .LVU1732
 5310 0004 00F50060 		add	r0, r0, #2048
 5311              	.LVL419:
 5312              		.loc 1 2186 6 view .LVU1733
 5313 0008 13F0010F 		tst	r3, #1
 5314 000c 03D0     		beq	.L340
2187:Drivers/STM32F4xx_HAL_Driver/Src/stm32f4xx_ll_usb.c ****   {
2188:Drivers/STM32F4xx_HAL_Driver/Src/stm32f4xx_ll_usb.c ****     /* active Remote wakeup signalling */
ARM GAS  /tmp/ccfbcrWA.s 			page 155


2189:Drivers/STM32F4xx_HAL_Driver/Src/stm32f4xx_ll_usb.c ****     USBx_DEVICE->DCTL |= USB_OTG_DCTL_RWUSIG;
 5315              		.loc 1 2189 5 is_stmt 1 view .LVU1734
 5316              		.loc 1 2189 23 is_stmt 0 view .LVU1735
 5317 000e 4368     		ldr	r3, [r0, #4]
 5318 0010 43F00103 		orr	r3, r3, #1
 5319 0014 4360     		str	r3, [r0, #4]
 5320              	.L340:
2190:Drivers/STM32F4xx_HAL_Driver/Src/stm32f4xx_ll_usb.c ****   }
2191:Drivers/STM32F4xx_HAL_Driver/Src/stm32f4xx_ll_usb.c **** 
2192:Drivers/STM32F4xx_HAL_Driver/Src/stm32f4xx_ll_usb.c ****   return HAL_OK;
 5321              		.loc 1 2192 3 is_stmt 1 view .LVU1736
2193:Drivers/STM32F4xx_HAL_Driver/Src/stm32f4xx_ll_usb.c **** }
 5322              		.loc 1 2193 1 is_stmt 0 view .LVU1737
 5323 0016 0020     		movs	r0, #0
 5324              	.LVL420:
 5325              		.loc 1 2193 1 view .LVU1738
 5326 0018 7047     		bx	lr
 5327              		.cfi_endproc
 5328              	.LFE177:
 5330              		.section	.text.USB_DeActivateRemoteWakeup,"ax",%progbits
 5331              		.align	1
 5332              		.global	USB_DeActivateRemoteWakeup
 5333              		.syntax unified
 5334              		.thumb
 5335              		.thumb_func
 5336              		.fpu fpv4-sp-d16
 5338              	USB_DeActivateRemoteWakeup:
 5339              	.LVL421:
 5340              	.LFB178:
2194:Drivers/STM32F4xx_HAL_Driver/Src/stm32f4xx_ll_usb.c **** 
2195:Drivers/STM32F4xx_HAL_Driver/Src/stm32f4xx_ll_usb.c **** /**
2196:Drivers/STM32F4xx_HAL_Driver/Src/stm32f4xx_ll_usb.c ****   * @brief  USB_DeActivateRemoteWakeup de-active remote wakeup signalling
2197:Drivers/STM32F4xx_HAL_Driver/Src/stm32f4xx_ll_usb.c ****   * @param  USBx Selected device
2198:Drivers/STM32F4xx_HAL_Driver/Src/stm32f4xx_ll_usb.c ****   * @retval HAL status
2199:Drivers/STM32F4xx_HAL_Driver/Src/stm32f4xx_ll_usb.c ****   */
2200:Drivers/STM32F4xx_HAL_Driver/Src/stm32f4xx_ll_usb.c **** HAL_StatusTypeDef USB_DeActivateRemoteWakeup(USB_OTG_GlobalTypeDef *USBx)
2201:Drivers/STM32F4xx_HAL_Driver/Src/stm32f4xx_ll_usb.c **** {
 5341              		.loc 1 2201 1 is_stmt 1 view -0
 5342              		.cfi_startproc
 5343              		@ args = 0, pretend = 0, frame = 0
 5344              		@ frame_needed = 0, uses_anonymous_args = 0
 5345              		@ link register save eliminated.
2202:Drivers/STM32F4xx_HAL_Driver/Src/stm32f4xx_ll_usb.c ****   uint32_t USBx_BASE = (uint32_t)USBx;
 5346              		.loc 1 2202 3 view .LVU1740
2203:Drivers/STM32F4xx_HAL_Driver/Src/stm32f4xx_ll_usb.c **** 
2204:Drivers/STM32F4xx_HAL_Driver/Src/stm32f4xx_ll_usb.c ****   /* active Remote wakeup signalling */
2205:Drivers/STM32F4xx_HAL_Driver/Src/stm32f4xx_ll_usb.c ****   USBx_DEVICE->DCTL &= ~(USB_OTG_DCTL_RWUSIG);
 5347              		.loc 1 2205 3 view .LVU1741
 5348              		.loc 1 2205 21 is_stmt 0 view .LVU1742
 5349 0000 D0F80438 		ldr	r3, [r0, #2052]
 5350 0004 23F00103 		bic	r3, r3, #1
 5351 0008 C0F80438 		str	r3, [r0, #2052]
2206:Drivers/STM32F4xx_HAL_Driver/Src/stm32f4xx_ll_usb.c **** 
2207:Drivers/STM32F4xx_HAL_Driver/Src/stm32f4xx_ll_usb.c ****   return HAL_OK;
 5352              		.loc 1 2207 3 is_stmt 1 view .LVU1743
2208:Drivers/STM32F4xx_HAL_Driver/Src/stm32f4xx_ll_usb.c **** }
 5353              		.loc 1 2208 1 is_stmt 0 view .LVU1744
ARM GAS  /tmp/ccfbcrWA.s 			page 156


 5354 000c 0020     		movs	r0, #0
 5355              	.LVL422:
 5356              		.loc 1 2208 1 view .LVU1745
 5357 000e 7047     		bx	lr
 5358              		.cfi_endproc
 5359              	.LFE178:
 5361              		.text
 5362              	.Letext0:
 5363              		.file 2 "/usr/lib/gcc/arm-none-eabi/10.3.1/include/stdint.h"
 5364              		.file 3 "Drivers/CMSIS/Include/cmsis_gcc.h"
 5365              		.file 4 "Drivers/CMSIS/Device/ST/STM32F4xx/Include/stm32f407xx.h"
 5366              		.file 5 "Drivers/STM32F4xx_HAL_Driver/Inc/stm32f4xx_hal_def.h"
 5367              		.file 6 "Drivers/STM32F4xx_HAL_Driver/Inc/stm32f4xx_ll_usb.h"
 5368              		.file 7 "Drivers/STM32F4xx_HAL_Driver/Inc/stm32f4xx_hal.h"
ARM GAS  /tmp/ccfbcrWA.s 			page 157


DEFINED SYMBOLS
                            *ABS*:0000000000000000 stm32f4xx_ll_usb.c
     /tmp/ccfbcrWA.s:18     .text.USB_CoreReset:0000000000000000 $t
     /tmp/ccfbcrWA.s:25     .text.USB_CoreReset:0000000000000000 USB_CoreReset
     /tmp/ccfbcrWA.s:121    .text.USB_CoreReset:000000000000004c $d
     /tmp/ccfbcrWA.s:126    .text.USB_CoreInit:0000000000000000 $t
     /tmp/ccfbcrWA.s:133    .text.USB_CoreInit:0000000000000000 USB_CoreInit
     /tmp/ccfbcrWA.s:268    .text.USB_SetTurnaroundTime:0000000000000000 $t
     /tmp/ccfbcrWA.s:275    .text.USB_SetTurnaroundTime:0000000000000000 USB_SetTurnaroundTime
     /tmp/ccfbcrWA.s:455    .text.USB_SetTurnaroundTime:00000000000000a8 $d
     /tmp/ccfbcrWA.s:474    .text.USB_EnableGlobalInt:0000000000000000 $t
     /tmp/ccfbcrWA.s:481    .text.USB_EnableGlobalInt:0000000000000000 USB_EnableGlobalInt
     /tmp/ccfbcrWA.s:504    .text.USB_DisableGlobalInt:0000000000000000 $t
     /tmp/ccfbcrWA.s:511    .text.USB_DisableGlobalInt:0000000000000000 USB_DisableGlobalInt
     /tmp/ccfbcrWA.s:534    .text.USB_FlushTxFifo:0000000000000000 $t
     /tmp/ccfbcrWA.s:541    .text.USB_FlushTxFifo:0000000000000000 USB_FlushTxFifo
     /tmp/ccfbcrWA.s:639    .text.USB_FlushTxFifo:000000000000004c $d
     /tmp/ccfbcrWA.s:644    .text.USB_FlushRxFifo:0000000000000000 $t
     /tmp/ccfbcrWA.s:651    .text.USB_FlushRxFifo:0000000000000000 USB_FlushRxFifo
     /tmp/ccfbcrWA.s:745    .text.USB_FlushRxFifo:0000000000000048 $d
     /tmp/ccfbcrWA.s:750    .text.USB_SetDevSpeed:0000000000000000 $t
     /tmp/ccfbcrWA.s:757    .text.USB_SetDevSpeed:0000000000000000 USB_SetDevSpeed
     /tmp/ccfbcrWA.s:783    .text.USB_DevInit:0000000000000000 $t
     /tmp/ccfbcrWA.s:790    .text.USB_DevInit:0000000000000000 USB_DevInit
     /tmp/ccfbcrWA.s:1154   .text.USB_DevInit:000000000000018c $d
     /tmp/ccfbcrWA.s:1159   .text.USB_GetDevSpeed:0000000000000000 $t
     /tmp/ccfbcrWA.s:1166   .text.USB_GetDevSpeed:0000000000000000 USB_GetDevSpeed
     /tmp/ccfbcrWA.s:1224   .text.USB_ActivateEndpoint:0000000000000000 $t
     /tmp/ccfbcrWA.s:1231   .text.USB_ActivateEndpoint:0000000000000000 USB_ActivateEndpoint
     /tmp/ccfbcrWA.s:1348   .text.USB_ActivateDedicatedEndpoint:0000000000000000 $t
     /tmp/ccfbcrWA.s:1355   .text.USB_ActivateDedicatedEndpoint:0000000000000000 USB_ActivateDedicatedEndpoint
     /tmp/ccfbcrWA.s:1480   .text.USB_DeactivateEndpoint:0000000000000000 $t
     /tmp/ccfbcrWA.s:1487   .text.USB_DeactivateEndpoint:0000000000000000 USB_DeactivateEndpoint
     /tmp/ccfbcrWA.s:1652   .text.USB_DeactivateEndpoint:00000000000000d8 $d
     /tmp/ccfbcrWA.s:1658   .text.USB_DeactivateDedicatedEndpoint:0000000000000000 $t
     /tmp/ccfbcrWA.s:1665   .text.USB_DeactivateDedicatedEndpoint:0000000000000000 USB_DeactivateDedicatedEndpoint
     /tmp/ccfbcrWA.s:1788   .text.USB_EP0StartXfer:0000000000000000 $t
     /tmp/ccfbcrWA.s:1795   .text.USB_EP0StartXfer:0000000000000000 USB_EP0StartXfer
     /tmp/ccfbcrWA.s:2039   .text.USB_EPStopXfer:0000000000000000 $t
     /tmp/ccfbcrWA.s:2046   .text.USB_EPStopXfer:0000000000000000 USB_EPStopXfer
     /tmp/ccfbcrWA.s:2204   .text.USB_WritePacket:0000000000000000 $t
     /tmp/ccfbcrWA.s:2211   .text.USB_WritePacket:0000000000000000 USB_WritePacket
     /tmp/ccfbcrWA.s:2282   .text.USB_EPStartXfer:0000000000000000 $t
     /tmp/ccfbcrWA.s:2289   .text.USB_EPStartXfer:0000000000000000 USB_EPStartXfer
     /tmp/ccfbcrWA.s:2687   .text.USB_EPStartXfer:0000000000000230 $d
     /tmp/ccfbcrWA.s:2692   .text.USB_ReadPacket:0000000000000000 $t
     /tmp/ccfbcrWA.s:2699   .text.USB_ReadPacket:0000000000000000 USB_ReadPacket
     /tmp/ccfbcrWA.s:2809   .text.USB_EPSetStall:0000000000000000 $t
     /tmp/ccfbcrWA.s:2816   .text.USB_EPSetStall:0000000000000000 USB_EPSetStall
     /tmp/ccfbcrWA.s:2897   .text.USB_EPClearStall:0000000000000000 $t
     /tmp/ccfbcrWA.s:2904   .text.USB_EPClearStall:0000000000000000 USB_EPClearStall
     /tmp/ccfbcrWA.s:2987   .text.USB_StopDevice:0000000000000000 $t
     /tmp/ccfbcrWA.s:2994   .text.USB_StopDevice:0000000000000000 USB_StopDevice
     /tmp/ccfbcrWA.s:3077   .text.USB_SetDevAddress:0000000000000000 $t
     /tmp/ccfbcrWA.s:3084   .text.USB_SetDevAddress:0000000000000000 USB_SetDevAddress
     /tmp/ccfbcrWA.s:3119   .text.USB_DevConnect:0000000000000000 $t
     /tmp/ccfbcrWA.s:3126   .text.USB_DevConnect:0000000000000000 USB_DevConnect
ARM GAS  /tmp/ccfbcrWA.s 			page 158


     /tmp/ccfbcrWA.s:3155   .text.USB_DevDisconnect:0000000000000000 $t
     /tmp/ccfbcrWA.s:3162   .text.USB_DevDisconnect:0000000000000000 USB_DevDisconnect
     /tmp/ccfbcrWA.s:3191   .text.USB_ReadInterrupts:0000000000000000 $t
     /tmp/ccfbcrWA.s:3198   .text.USB_ReadInterrupts:0000000000000000 USB_ReadInterrupts
     /tmp/ccfbcrWA.s:3225   .text.USB_ReadDevAllOutEpInterrupt:0000000000000000 $t
     /tmp/ccfbcrWA.s:3232   .text.USB_ReadDevAllOutEpInterrupt:0000000000000000 USB_ReadDevAllOutEpInterrupt
     /tmp/ccfbcrWA.s:3265   .text.USB_ReadDevAllInEpInterrupt:0000000000000000 $t
     /tmp/ccfbcrWA.s:3272   .text.USB_ReadDevAllInEpInterrupt:0000000000000000 USB_ReadDevAllInEpInterrupt
     /tmp/ccfbcrWA.s:3305   .text.USB_ReadDevOutEPInterrupt:0000000000000000 $t
     /tmp/ccfbcrWA.s:3312   .text.USB_ReadDevOutEPInterrupt:0000000000000000 USB_ReadDevOutEPInterrupt
     /tmp/ccfbcrWA.s:3346   .text.USB_ReadDevInEPInterrupt:0000000000000000 $t
     /tmp/ccfbcrWA.s:3353   .text.USB_ReadDevInEPInterrupt:0000000000000000 USB_ReadDevInEPInterrupt
     /tmp/ccfbcrWA.s:3414   .text.USB_ClearInterrupts:0000000000000000 $t
     /tmp/ccfbcrWA.s:3421   .text.USB_ClearInterrupts:0000000000000000 USB_ClearInterrupts
     /tmp/ccfbcrWA.s:3440   .text.USB_GetMode:0000000000000000 $t
     /tmp/ccfbcrWA.s:3447   .text.USB_GetMode:0000000000000000 USB_GetMode
     /tmp/ccfbcrWA.s:3466   .text.USB_SetCurrentMode:0000000000000000 $t
     /tmp/ccfbcrWA.s:3473   .text.USB_SetCurrentMode:0000000000000000 USB_SetCurrentMode
     /tmp/ccfbcrWA.s:3590   .text.USB_ActivateSetup:0000000000000000 $t
     /tmp/ccfbcrWA.s:3597   .text.USB_ActivateSetup:0000000000000000 USB_ActivateSetup
     /tmp/ccfbcrWA.s:3627   .text.USB_EP0_OutStart:0000000000000000 $t
     /tmp/ccfbcrWA.s:3634   .text.USB_EP0_OutStart:0000000000000000 USB_EP0_OutStart
     /tmp/ccfbcrWA.s:3717   .text.USB_EP0_OutStart:000000000000005c $d
     /tmp/ccfbcrWA.s:3722   .text.USB_HostInit:0000000000000000 $t
     /tmp/ccfbcrWA.s:3729   .text.USB_HostInit:0000000000000000 USB_HostInit
     /tmp/ccfbcrWA.s:3941   .text.USB_HostInit:00000000000000ec $d
     /tmp/ccfbcrWA.s:3948   .text.USB_InitFSLSPClkSel:0000000000000000 $t
     /tmp/ccfbcrWA.s:3955   .text.USB_InitFSLSPClkSel:0000000000000000 USB_InitFSLSPClkSel
     /tmp/ccfbcrWA.s:4011   .text.USB_ResetPort:0000000000000000 $t
     /tmp/ccfbcrWA.s:4018   .text.USB_ResetPort:0000000000000000 USB_ResetPort
     /tmp/ccfbcrWA.s:4087   .text.USB_DriveVbus:0000000000000000 $t
     /tmp/ccfbcrWA.s:4094   .text.USB_DriveVbus:0000000000000000 USB_DriveVbus
     /tmp/ccfbcrWA.s:4173   .text.USB_GetHostSpeed:0000000000000000 $t
     /tmp/ccfbcrWA.s:4180   .text.USB_GetHostSpeed:0000000000000000 USB_GetHostSpeed
     /tmp/ccfbcrWA.s:4218   .text.USB_GetCurrentFrame:0000000000000000 $t
     /tmp/ccfbcrWA.s:4225   .text.USB_GetCurrentFrame:0000000000000000 USB_GetCurrentFrame
     /tmp/ccfbcrWA.s:4248   .text.USB_HC_Init:0000000000000000 $t
     /tmp/ccfbcrWA.s:4255   .text.USB_HC_Init:0000000000000000 USB_HC_Init
     /tmp/ccfbcrWA.s:4297   .text.USB_HC_Init:0000000000000022 $d
     /tmp/ccfbcrWA.s:4301   .text.USB_HC_Init:0000000000000026 $t
     /tmp/ccfbcrWA.s:4498   .text.USB_HC_ReadInterrupt:0000000000000000 $t
     /tmp/ccfbcrWA.s:4505   .text.USB_HC_ReadInterrupt:0000000000000000 USB_HC_ReadInterrupt
     /tmp/ccfbcrWA.s:4528   .text.USB_HC_Halt:0000000000000000 $t
     /tmp/ccfbcrWA.s:4535   .text.USB_HC_Halt:0000000000000000 USB_HC_Halt
     /tmp/ccfbcrWA.s:4721   .text.USB_DoPing:0000000000000000 $t
     /tmp/ccfbcrWA.s:4728   .text.USB_DoPing:0000000000000000 USB_DoPing
     /tmp/ccfbcrWA.s:4770   .text.USB_DoPing:0000000000000020 $d
     /tmp/ccfbcrWA.s:4775   .text.USB_HC_StartXfer:0000000000000000 $t
     /tmp/ccfbcrWA.s:4782   .text.USB_HC_StartXfer:0000000000000000 USB_HC_StartXfer
     /tmp/ccfbcrWA.s:5018   .text.USB_HC_StartXfer:0000000000000112 $d
     /tmp/ccfbcrWA.s:5023   .text.USB_HC_StartXfer:0000000000000116 $t
     /tmp/ccfbcrWA.s:5111   .text.USB_HC_StartXfer:0000000000000168 $d
     /tmp/ccfbcrWA.s:5116   .text.USB_StopHost:0000000000000000 $t
     /tmp/ccfbcrWA.s:5123   .text.USB_StopHost:0000000000000000 USB_StopHost
     /tmp/ccfbcrWA.s:5290   .text.USB_ActivateRemoteWakeup:0000000000000000 $t
     /tmp/ccfbcrWA.s:5297   .text.USB_ActivateRemoteWakeup:0000000000000000 USB_ActivateRemoteWakeup
     /tmp/ccfbcrWA.s:5331   .text.USB_DeActivateRemoteWakeup:0000000000000000 $t
ARM GAS  /tmp/ccfbcrWA.s 			page 159


     /tmp/ccfbcrWA.s:5338   .text.USB_DeActivateRemoteWakeup:0000000000000000 USB_DeActivateRemoteWakeup

UNDEFINED SYMBOLS
HAL_Delay
