ARM GAS  /tmp/cc6qutqz.s 			page 1


   1              		.cpu cortex-m4
   2              		.eabi_attribute 27, 1
   3              		.eabi_attribute 28, 1
   4              		.eabi_attribute 20, 1
   5              		.eabi_attribute 21, 1
   6              		.eabi_attribute 23, 3
   7              		.eabi_attribute 24, 1
   8              		.eabi_attribute 25, 1
   9              		.eabi_attribute 26, 1
  10              		.eabi_attribute 30, 1
  11              		.eabi_attribute 34, 1
  12              		.eabi_attribute 18, 4
  13              		.file	"usb.c"
  14              		.text
  15              	.Ltext0:
  16              		.cfi_sections	.debug_frame
  17              		.section	.text.USBPrint,"ax",%progbits
  18              		.align	1
  19              		.global	USBPrint
  20              		.arch armv7e-m
  21              		.syntax unified
  22              		.thumb
  23              		.thumb_func
  24              		.fpu fpv4-sp-d16
  26              	USBPrint:
  27              	.LVL0:
  28              	.LFB134:
  29              		.file 1 "Core/Src/usb.c"
   1:Core/Src/usb.c **** #include "usb.h"
   2:Core/Src/usb.c **** 
   3:Core/Src/usb.c **** void USBPrint(uint8_t *buf)
   4:Core/Src/usb.c **** {
  30              		.loc 1 4 1 view -0
  31              		.cfi_startproc
  32              		@ args = 0, pretend = 0, frame = 0
  33              		@ frame_needed = 0, uses_anonymous_args = 0
  34              		.loc 1 4 1 is_stmt 0 view .LVU1
  35 0000 10B5     		push	{r4, lr}
  36              	.LCFI0:
  37              		.cfi_def_cfa_offset 8
  38              		.cfi_offset 4, -8
  39              		.cfi_offset 14, -4
  40 0002 0446     		mov	r4, r0
   5:Core/Src/usb.c ****   HAL_Delay(50);
  41              		.loc 1 5 3 is_stmt 1 view .LVU2
  42 0004 3220     		movs	r0, #50
  43              	.LVL1:
  44              		.loc 1 5 3 is_stmt 0 view .LVU3
  45 0006 FFF7FEFF 		bl	HAL_Delay
  46              	.LVL2:
   6:Core/Src/usb.c ****   CDC_Transmit_FS(buf, strlen(buf));
  47              		.loc 1 6 3 is_stmt 1 view .LVU4
  48              		.loc 1 6 24 is_stmt 0 view .LVU5
  49 000a 2046     		mov	r0, r4
  50 000c FFF7FEFF 		bl	strlen
  51              	.LVL3:
  52              		.loc 1 6 3 view .LVU6
ARM GAS  /tmp/cc6qutqz.s 			page 2


  53 0010 81B2     		uxth	r1, r0
  54 0012 2046     		mov	r0, r4
  55 0014 FFF7FEFF 		bl	CDC_Transmit_FS
  56              	.LVL4:
   7:Core/Src/usb.c **** }
  57              		.loc 1 7 1 view .LVU7
  58 0018 10BD     		pop	{r4, pc}
  59              		.loc 1 7 1 view .LVU8
  60              		.cfi_endproc
  61              	.LFE134:
  63              		.section	.rodata.USBprintArray.str1.4,"aMS",%progbits,1
  64              		.align	2
  65              	.LC0:
  66 0000 53697A65 		.ascii	"Size: %d [\000"
  66      3A202564 
  66      205B00
  67 000b 00       		.align	2
  68              	.LC1:
  69 000c 25582C20 		.ascii	"%X, \000"
  69      00
  70 0011 000000   		.align	2
  71              	.LC2:
  72 0014 5D0A00   		.ascii	"]\012\000"
  73              		.section	.text.USBprintArray,"ax",%progbits
  74              		.align	1
  75              		.global	USBprintArray
  76              		.syntax unified
  77              		.thumb
  78              		.thumb_func
  79              		.fpu fpv4-sp-d16
  81              	USBprintArray:
  82              	.LVL5:
  83              	.LFB135:
   8:Core/Src/usb.c **** 
   9:Core/Src/usb.c **** 
  10:Core/Src/usb.c **** void USBprintArray(uint8_t *buf, uint8_t size){
  84              		.loc 1 10 47 is_stmt 1 view -0
  85              		.cfi_startproc
  86              		@ args = 0, pretend = 0, frame = 16
  87              		@ frame_needed = 0, uses_anonymous_args = 0
  88              		.loc 1 10 47 is_stmt 0 view .LVU10
  89 0000 70B5     		push	{r4, r5, r6, lr}
  90              	.LCFI1:
  91              		.cfi_def_cfa_offset 16
  92              		.cfi_offset 4, -16
  93              		.cfi_offset 5, -12
  94              		.cfi_offset 6, -8
  95              		.cfi_offset 14, -4
  96 0002 84B0     		sub	sp, sp, #16
  97              	.LCFI2:
  98              		.cfi_def_cfa_offset 32
  99 0004 0646     		mov	r6, r0
 100 0006 0D46     		mov	r5, r1
  11:Core/Src/usb.c ****   uint8_t out[10];
 101              		.loc 1 11 3 is_stmt 1 view .LVU11
  12:Core/Src/usb.c ****   sprintf(out, "Size: %d [", size);
 102              		.loc 1 12 3 view .LVU12
ARM GAS  /tmp/cc6qutqz.s 			page 3


 103 0008 0A46     		mov	r2, r1
 104 000a 0C49     		ldr	r1, .L7
 105              	.LVL6:
 106              		.loc 1 12 3 is_stmt 0 view .LVU13
 107 000c 01A8     		add	r0, sp, #4
 108              	.LVL7:
 109              		.loc 1 12 3 view .LVU14
 110 000e FFF7FEFF 		bl	sprintf
 111              	.LVL8:
  13:Core/Src/usb.c ****   USBPrint(out);
 112              		.loc 1 13 3 is_stmt 1 view .LVU15
 113 0012 01A8     		add	r0, sp, #4
 114 0014 FFF7FEFF 		bl	USBPrint
 115              	.LVL9:
  14:Core/Src/usb.c ****   // USBPrint("[");
  15:Core/Src/usb.c ****   for(int i = 0; i < size; ++i){
 116              		.loc 1 15 3 view .LVU16
 117              	.LBB2:
 118              		.loc 1 15 7 view .LVU17
 119              		.loc 1 15 11 is_stmt 0 view .LVU18
 120 0018 0024     		movs	r4, #0
 121              		.loc 1 15 3 view .LVU19
 122 001a 08E0     		b	.L4
 123              	.LVL10:
 124              	.L5:
  16:Core/Src/usb.c ****     sprintf(out, "%X, ", buf[i]);
 125              		.loc 1 16 5 is_stmt 1 discriminator 3 view .LVU20
 126 001c 325D     		ldrb	r2, [r6, r4]	@ zero_extendqisi2
 127 001e 0849     		ldr	r1, .L7+4
 128 0020 01A8     		add	r0, sp, #4
 129 0022 FFF7FEFF 		bl	sprintf
 130              	.LVL11:
  17:Core/Src/usb.c ****     USBPrint(out);
 131              		.loc 1 17 5 discriminator 3 view .LVU21
 132 0026 01A8     		add	r0, sp, #4
 133 0028 FFF7FEFF 		bl	USBPrint
 134              	.LVL12:
  15:Core/Src/usb.c ****     sprintf(out, "%X, ", buf[i]);
 135              		.loc 1 15 28 discriminator 3 view .LVU22
 136 002c 0134     		adds	r4, r4, #1
 137              	.LVL13:
 138              	.L4:
  15:Core/Src/usb.c ****     sprintf(out, "%X, ", buf[i]);
 139              		.loc 1 15 18 discriminator 1 view .LVU23
  15:Core/Src/usb.c ****     sprintf(out, "%X, ", buf[i]);
 140              		.loc 1 15 3 is_stmt 0 discriminator 1 view .LVU24
 141 002e A542     		cmp	r5, r4
 142 0030 F4DC     		bgt	.L5
 143              	.LBE2:
  18:Core/Src/usb.c ****   }
  19:Core/Src/usb.c ****   USBPrint("]\n");
 144              		.loc 1 19 3 is_stmt 1 view .LVU25
 145 0032 0448     		ldr	r0, .L7+8
 146 0034 FFF7FEFF 		bl	USBPrint
 147              	.LVL14:
  20:Core/Src/usb.c **** }...
 148              		.loc 1 20 1 is_stmt 0 view .LVU26
ARM GAS  /tmp/cc6qutqz.s 			page 4


 149 0038 04B0     		add	sp, sp, #16
 150              	.LCFI3:
 151              		.cfi_def_cfa_offset 16
 152              		@ sp needed
 153 003a 70BD     		pop	{r4, r5, r6, pc}
 154              	.LVL15:
 155              	.L8:
 156              		.loc 1 20 1 view .LVU27
 157              		.align	2
 158              	.L7:
 159 003c 00000000 		.word	.LC0
 160 0040 0C000000 		.word	.LC1
 161 0044 14000000 		.word	.LC2
 162              		.cfi_endproc
 163              	.LFE135:
 165              		.text
 166              	.Letext0:
 167              		.file 2 "/usr/include/newlib/machine/_default_types.h"
 168              		.file 3 "/usr/include/newlib/sys/_stdint.h"
 169              		.file 4 "/usr/include/newlib/stdio.h"
 170              		.file 5 "Drivers/STM32F4xx_HAL_Driver/Inc/stm32f4xx_hal.h"
 171              		.file 6 "/usr/include/newlib/string.h"
 172              		.file 7 "USB_DEVICE/App/usbd_cdc_if.h"
ARM GAS  /tmp/cc6qutqz.s 			page 5

